(lp1
(lp2
(I6
S'ROOT'
p3
I6
tp4
a(I1
S'det'
p5
I0
tp6
a(I6
S'nsubjpass'
p7
I1
tp8
a(I3
S'case'
p9
I2
tp10
a(I1
S'nmod'
p11
I3
tp12
a(I6
S'cop'
p13
I4
tp14
a(I6
S'det'
p15
I5
tp16
a(I8
S'case'
p17
I7
tp18
a(I6
S'amod'
p19
I8
tp20
a(I8
S'punct'
p21
I9
tp22
aa(lp23
(I1
g3
I1
tp24
a(I1
S'nsubj'
p25
I0
tp26
a(I1
S'advmod'
p27
I2
tp28
a(I5
S'neg'
p29
I3
tp30
a(I5
S'advmod'
p31
I4
tp32
a(I1
S'dobj'
p33
I5
tp34
a(I1
S'punct'
p35
I6
tp36
aa(lp37
(I1
g3
I1
tp38
a(I1
S'nsubj'
p39
I0
tp40
a(I4
S'case'
p41
I2
tp42
a(I4
S'amod'
p43
I3
tp44
a(I1
S'nmod'
p45
I4
tp46
a(I19
S'aux'
p47
I5
tp48
a(I19
S'nsubj'
p49
I6
tp50
a(I8
S'case'
p51
I7
tp52
a(I19
S'nmod'
p53
I8
tp54
a(I8
S'cc'
p55
I9
tp56
a(I8
S'conj:und'
p57
I10
tp58
a(I12
S'advmod'
p59
I11
tp60
a(I13
S'amod'
p61
I12
tp62
a(I8
S'dobj'
p63
I13
tp64
a(I16
S'case'
p65
I14
tp66
a(I16
S'det'
p67
I15
tp68
a(I13
S'nmod'
p69
I16
tp70
a(I18
S'det'
p71
I17
tp72
a(I16
S'det'
p73
I18
tp74
a(I1
S'acl'
p75
I19
tp76
a(I1
S'punct'
p77
I20
tp78
aa(lp79
(I7
g3
I7
tp80
a(I2
S'det'
p81
I0
tp82
a(I2
S'amod'
p83
I1
tp84
a(I7
S'nsubjpass'
p85
I2
tp86
a(I4
S'case'
p87
I3
tp88
a(I2
S'nmod'
p89
I4
tp90
a(I7
S'auxpass'
p91
I5
tp92
a(I7
S'advmod'
p93
I6
tp94
a(I7
S'punct'
p95
I8
tp96
a(I18
S'mark'
p97
I9
tp98
a(I18
S'nsubj'
p99
I10
tp100
a(I16
S'det'
p101
I11
tp102
a(I14
S'case'
p103
I12
tp104
a(I14
S'det'
p105
I13
tp106
a(I15
S'nmod'
p107
I14
tp108
a(I16
S'amod'
p109
I15
tp110
a(I18
S'dobj'
p111
I16
tp112
a(I18
S'neg'
p113
I17
tp114
a(I7
S'advcl'
p115
I18
tp116
a(I7
S'punct'
p117
I19
tp118
aa(lp119
(I4
g3
I4
tp120
a(I1
S'det'
p121
I0
tp122
a(I4
S'nsubj'
p123
I1
tp124
a(I4
S'cop'
p125
I2
tp126
a(I4
S'det'
p127
I3
tp128
a(I6
S'det'
p129
I5
tp130
a(I4
S'det'
p131
I6
tp132
a(I4
S'punct'
p133
I7
tp134
a(I15
S'case'
p135
I8
tp136
a(I8
S'dep'
p137
I9
tp138
a(I12
S'case'
p139
I10
tp140
a(I12
S'det'
p141
I11
tp142
a(I8
S'nmod'
p143
I12
tp144
a(I14
S'case'
p145
I13
tp146
a(I8
S'nmod'
p147
I14
tp148
a(I16
S'nmod'
p149
I15
tp150
a(I4
S'parataxis'
p151
I16
tp152
a(I16
S'punct'
p153
I17
tp154
a(I16
S'cc'
p155
I18
tp156
a(I24
S'advcl'
p157
I19
tp158
a(I19
S'punct'
p159
I20
tp160
a(I22
S'amod'
p161
I21
tp162
a(I24
S'dobj'
p163
I22
tp164
a(I24
S'aux'
p165
I23
tp166
a(I16
S'conj:die'
p167
I24
tp168
a(I4
S'punct'
p169
I25
tp170
aa(lp171
(I3
g3
I3
tp172
a(I3
S'nsubj'
p173
I0
tp174
a(I3
S'aux'
p175
I1
tp176
a(I3
S'neg'
p177
I2
tp178
a(I3
S'punct'
p179
I4
tp180
a(I12
S'advmod'
p181
I5
tp182
a(I8
S'det'
p183
I6
tp184
a(I8
S'amod'
p185
I7
tp186
a(I12
S'nsubjpass'
p187
I8
tp188
a(I10
S'det'
p189
I9
tp190
a(I8
S'det'
p191
I10
tp192
a(I12
S'advmod'
p193
I11
tp194
a(I3
S'ccomp'
p195
I12
tp196
a(I12
S'auxpass'
p197
I13
tp198
a(I3
S'punct'
p199
I14
tp200
aa(lp201
(I7
g3
I7
tp202
a(I7
S'det'
p203
I0
tp204
a(I3
S'case'
p205
I1
tp206
a(I1
S'case'
p207
I2
tp208
a(I6
S'nmod'
p209
I3
tp210
a(I5
S'det'
p211
I4
tp212
a(I3
S'det'
p213
I5
tp214
a(I7
S'nummod'
p215
I6
tp216
a(I7
S'advmod'
p217
I8
tp218
a(I8
S'advmod'
p219
I9
tp220
a(I11
S'case'
p221
I10
tp222
a(I7
S'conj'
p223
I11
tp224
a(I15
S'det'
p225
I12
tp226
a(I14
S'advmod'
p227
I13
tp228
a(I15
S'amod'
p229
I14
tp230
a(I11
S'det'
p231
I15
tp232
a(I7
S'punct'
p233
I16
tp234
a(I20
S'case'
p235
I17
tp236
a(I20
S'det'
p237
I18
tp238
a(I20
S'cc'
p239
I19
tp240
a(I22
S'nmod'
p241
I20
tp242
a(I22
S'advmod'
p243
I21
tp244
a(I7
S'advcl'
p245
I22
tp246
a(I22
S'nsubj'
p247
I23
tp248
a(I22
S'punct'
p249
I24
tp250
a(I22
S'dep'
p251
I25
tp252
a(I25
S'auxpass'
p253
I26
tp254
a(I25
S'punct'
p255
I27
tp256
a(I29
S'neg'
p257
I28
tp258
a(I25
S'nsubjpass'
p259
I29
tp260
a(I29
S'auxpass'
p261
I30
tp262
a(I7
S'punct'
p263
I31
tp264
aa(lp265
(I1
g3
I1
tp266
a(I1
S'nsubj'
p267
I0
tp268
a(I1
S'advmod'
p269
I2
tp270
a(I4
S'nummod'
p271
I3
tp272
a(I1
S'nmod'
p273
I4
tp274
a(I4
S'nmod'
p275
I5
tp276
a(I7
S'mwe'
p277
I6
tp278
a(I1
S'advmod'
p279
I7
tp280
a(I9
S'nummod'
p281
I8
tp282
a(I1
S'dobj'
p283
I9
tp284
a(I11
S'det'
p285
I10
tp286
a(I9
S'det'
p287
I11
tp288
a(I13
S'det'
p289
I12
tp290
a(I11
S'det'
p291
I13
tp292
a(I1
S'punct'
p293
I14
tp294
aa(lp295
(I18
g3
I18
tp296
a(I9
S'advmod'
p297
I0
tp298
a(I2
S'det'
p299
I1
tp300
a(I9
S'dobj'
p301
I2
tp302
a(I4
S'det'
p303
I3
tp304
a(I9
S'nsubjpass'
p305
I4
tp306
a(I6
S'case'
p307
I5
tp308
a(I4
S'nmod'
p309
I6
tp310
a(I4
S'dep'
p311
I7
tp312
a(I9
S'auxpass'
p313
I8
tp314
a(I18
S'advcl'
p315
I9
tp316
a(I9
S'punct'
p317
I10
tp318
a(I18
S'advmod'
p319
I11
tp320
a(I18
S'aux'
p321
I12
tp322
a(I18
S'nsubj'
p323
I13
tp324
a(I18
S'advmod'
p325
I14
tp326
a(I18
S'iobj'
p327
I15
tp328
a(I17
S'det'
p329
I16
tp330
a(I18
S'iobj'
p331
I17
tp332
a(I18
S'punct'
p333
I19
tp334
a(I23
S'nsubj'
p335
I20
tp336
a(I23
S'expl'
p337
I21
tp338
a(I23
S'iobj'
p339
I22
tp340
a(I18
S'acl'
p341
I23
tp342
a(I23
S'punct'
p343
I24
tp344
a(I27
S'det'
p345
I25
tp346
a(I27
S'amod'
p347
I26
tp348
a(I32
S'dobj'
p349
I27
tp350
a(I30
S'case'
p351
I28
tp352
a(I30
S'amod'
p353
I29
tp354
a(I27
S'nmod'
p355
I30
tp356
a(I32
S'aux'
p357
I31
tp358
a(I23
S'xcomp'
p359
I32
tp360
a(I18
S'punct'
p361
I33
tp362
aa(lp363
(I9
g3
I9
tp364
a(I1
S'det'
p365
I0
tp366
a(I9
S'nsubjpass'
p367
I1
tp368
a(I1
S'punct'
p369
I2
tp370
a(I1
S'conj'
p371
I3
tp372
a(I1
S'advmod'
p373
I4
tp374
a(I9
S'aux'
p375
I5
tp376
a(I7
S'neg'
p377
I6
tp378
a(I9
S'advmod'
p379
I7
tp380
a(I9
S'aux'
p381
I8
tp382
a(I9
S'punct'
p383
I10
tp384
a(I9
S'conj'
p385
I11
tp386
a(I11
S'iobj'
p387
I12
tp388
a(I11
S'advmod'
p389
I13
tp390
a(I16
S'case'
p391
I14
tp392
a(I16
S'nummod'
p393
I15
tp394
a(I11
S'nmod'
p395
I16
tp396
a(I11
S'mark'
p397
I17
tp398
a(I9
S'punct'
p399
I18
tp400
aa(lp401
(I2
g3
I2
tp402
a(I1
S'name'
p403
I0
tp404
a(I2
S'nsubj'
p405
I1
tp406
a(I2
S'advmod'
p407
I3
tp408
a(I6
S'case'
p409
I4
tp410
a(I6
S'det'
p411
I5
tp412
a(I7
S'nmod'
p413
I6
tp414
a(I2
S'amod'
p415
I7
tp416
a(I7
S'punct'
p417
I8
tp418
aa(lp419
(I1
g3
I1
tp420
a(I1
S'det'
p421
I0
tp422
a(I1
S'case'
p423
I2
tp424
a(I5
S'det'
p425
I3
tp426
a(I5
S'name'
p427
I4
tp428
a(I2
S'dep'
p429
I5
tp430
a(I5
S'punct'
p431
I6
tp432
a(I5
S'conj'
p433
I7
tp434
a(I5
S'punct'
p435
I8
tp436
a(I5
S'conj'
p437
I9
tp438
a(I5
S'punct'
p439
I10
tp440
a(I5
S'conj'
p441
I11
tp442
a(I5
S'punct'
p443
I12
tp444
a(I5
S'conj'
p445
I13
tp446
a(I5
S'cc'
p447
I14
tp448
a(I18
S'conj'
p449
I15
tp450
a(I18
S'case'
p451
I16
tp452
a(I18
S'amod'
p453
I17
tp454
a(I19
S'nmod'
p455
I18
tp456
a(I5
S'conj:und'
p457
I19
tp458
a(I5
S'punct'
p459
I20
tp460
aa(lp461
(I17
g3
I17
tp462
a(I1
S'det'
p463
I0
tp464
a(I17
S'dobj'
p465
I1
tp466
a(I17
S'aux'
p467
I2
tp468
a(I4
S'det'
p469
I3
tp470
a(I17
S'nsubj'
p471
I4
tp472
a(I4
S'punct'
p473
I5
tp474
a(I13
S'nsubj'
p475
I6
tp476
a(I8
S'det'
p477
I7
tp478
a(I6
S'dep'
p479
I8
tp480
a(I12
S'conj'
p481
I9
tp482
a(I9
S'cc'
p483
I10
tp484
a(I9
S'conj:und'
p485
I11
tp486
a(I13
S'advmod'
p487
I12
tp488
a(I4
S'acl'
p489
I13
tp490
a(I13
S'punct'
p491
I14
tp492
a(I16
S'amod'
p493
I15
tp494
a(I17
S'dobj'
p495
I16
tp496
a(I17
S'punct'
p497
I18
tp498
aa(lp499
(I4
g3
I4
tp500
a(I4
S'nsubj'
p501
I0
tp502
a(I4
S'aux'
p503
I1
tp504
a(I3
S'det'
p505
I2
tp506
a(I4
S'dobj'
p507
I3
tp508
a(I4
S'punct'
p509
I5
tp510
a(I12
S'nsubj'
p511
I6
tp512
a(I8
S'det'
p513
I7
tp514
a(I12
S'dobj'
p515
I8
tp516
a(I10
S'det'
p517
I9
tp518
a(I8
S'det'
p519
I10
tp520
a(I12
S'neg'
p521
I11
tp522
a(I4
S'acl'
p523
I12
tp524
a(I12
S'punct'
p525
I13
tp526
a(I12
S'cc'
p527
I14
tp528
a(I20
S'dobj'
p529
I15
tp530
a(I19
S'case'
p531
I16
tp532
a(I19
S'det'
p533
I17
tp534
a(I19
S'amod'
p535
I18
tp536
a(I20
S'nmod'
p537
I19
tp538
a(I12
S'conj:und'
p539
I20
tp540
a(I12
S'punct'
p541
I21
tp542
aa(lp543
(I10
g3
I10
tp544
a(I10
S'nsubj'
p545
I0
tp546
a(I10
S'aux'
p547
I1
tp548
a(I10
S'advmod'
p549
I2
tp550
a(I4
S'case'
p551
I3
tp552
a(I10
S'nmod'
p553
I4
tp554
a(I4
S'compound'
p555
I5
tp556
a(I7
S'det'
p557
I6
tp558
a(I4
S'det'
p559
I7
tp560
a(I9
S'det'
p561
I8
tp562
a(I10
S'dobj'
p563
I9
tp564
a(I10
S'punct'
p565
I11
tp566
a(I19
S'advmod'
p567
I12
tp568
a(I17
S'det'
p569
I13
tp570
a(I17
S'amod'
p571
I14
tp572
a(I17
S'name'
p573
I15
tp574
a(I17
S'case'
p575
I16
tp576
a(I19
S'dobj'
p577
I17
tp578
a(I19
S'aux'
p579
I18
tp580
a(I10
S'advcl'
p581
I19
tp582
a(I10
S'punct'
p583
I20
tp584
aa(lp585
(I1
g3
I1
tp586
a(I1
S'advmod'
p587
I0
tp588
a(I1
S'punct'
p589
I2
tp590
a(I6
S'iobj'
p591
I3
tp592
a(I5
S'det'
p593
I4
tp594
a(I6
S'iobj'
p595
I5
tp596
a(I1
S'conj'
p597
I6
tp598
a(I6
S'nmod'
p599
I7
tp600
a(I6
S'neg'
p601
I8
tp602
a(I6
S'mark'
p603
I9
tp604
a(I1
S'punct'
p605
I10
tp606
aa(lp607
(I4
g3
I4
tp608
a(I1
S'det'
p609
I0
tp610
a(I4
S'nsubj'
p611
I1
tp612
a(I4
S'aux'
p613
I2
tp614
a(I4
S'advmod'
p615
I3
tp616
a(I4
S'dobj'
p617
I5
tp618
a(I5
S'punct'
p619
I6
tp620
a(I9
S'case'
p621
I7
tp622
a(I9
S'det'
p623
I8
tp624
a(I10
S'nmod'
p625
I9
tp626
a(I5
S'acl'
p627
I10
tp628
a(I12
S'cc'
p629
I11
tp630
a(I10
S'cc'
p631
I12
tp632
a(I12
S'cop'
p633
I13
tp634
a(I12
S'punct'
p635
I14
tp636
a(I16
S'advmod'
p637
I15
tp638
a(I12
S'conj:weiter'
p639
I16
tp640
a(I12
S'punct'
p641
I17
tp642
aa(lp643
(I4
g3
I4
tp644
a(I4
S'nsubj'
p645
I0
tp646
a(I4
S'cop'
p647
I1
tp648
a(I4
S'advmod'
p649
I2
tp650
a(I4
S'det'
p651
I3
tp652
a(I4
S'punct'
p653
I5
tp654
a(I4
S'acl'
p655
I6
tp656
a(I9
S'case'
p657
I7
tp658
a(I9
S'det'
p659
I8
tp660
a(I6
S'nmod'
p661
I9
tp662
a(I11
S'det'
p663
I10
tp664
a(I9
S'det'
p665
I11
tp666
a(I13
S'advmod'
p667
I12
tp668
a(I11
S'det'
p669
I13
tp670
a(I15
S'case'
p671
I14
tp672
a(I9
S'nmod'
p673
I15
tp674
a(I15
S'punct'
p675
I16
tp676
a(I18
S'amod'
p677
I17
tp678
a(I15
S'conj'
p679
I18
tp680
a(I21
S'case'
p681
I19
tp682
a(I21
S'amod'
p683
I20
tp684
a(I18
S'nmod'
p685
I21
tp686
a(I23
S'det'
p687
I22
tp688
a(I21
S'det'
p689
I23
tp690
a(I15
S'punct'
p691
I24
tp692
a(I15
S'nmod'
p693
I25
tp694
a(I29
S'case'
p695
I26
tp696
a(I29
S'det'
p697
I27
tp698
a(I29
S'amod'
p699
I28
tp700
a(I15
S'nmod'
p701
I29
tp702
a(I29
S'cc'
p703
I30
tp704
a(I32
S'iobj'
p705
I31
tp706
a(I29
S'conj:sowie'
p707
I32
tp708
a(I32
S'auxpass'
p709
I33
tp710
a(I32
S'aux'
p711
I34
tp712
a(I9
S'punct'
p713
I35
tp714
aa(lp715
(I15
g3
I15
tp716
a(I1
S'det'
p717
I0
tp718
a(I15
S'nsubj'
p719
I1
tp720
a(I1
S'cc'
p721
I2
tp722
a(I5
S'det'
p723
I3
tp724
a(I5
S'amod'
p725
I4
tp726
a(I1
S'conj:kann'
p727
I5
tp728
a(I5
S'acl'
p729
I6
tp730
a(I8
S'det'
p731
I7
tp732
a(I6
S'nmod'
p733
I8
tp734
a(I10
S'case'
p735
I9
tp736
a(I6
S'nmod'
p737
I10
tp738
a(I10
S'cc'
p739
I11
tp740
a(I10
S'conj:und'
p741
I12
tp742
a(I15
S'advmod'
p743
I13
tp744
a(I15
S'neg'
p745
I14
tp746
a(I15
S'punct'
p747
I16
tp748
aa(lp749
(I3
g3
I3
tp750
a(I1
S'det'
p751
I0
tp752
a(I3
S'mwe'
p753
I1
tp754
a(I1
S'nmod'
p755
I2
tp756
a(I5
S'det'
p757
I4
tp758
a(I3
S'nsubjpass'
p759
I5
tp760
a(I7
S'advmod'
p761
I6
tp762
a(I8
S'neg'
p763
I7
tp764
a(I12
S'appos'
p765
I8
tp766
a(I11
S'case'
p767
I9
tp768
a(I11
S'det'
p769
I10
tp770
a(I12
S'nmod'
p771
I11
tp772
a(I5
S'dep'
p773
I12
tp774
a(I12
S'punct'
p775
I13
tp776
a(I12
S'cc'
p777
I14
tp778
a(I16
S'det'
p779
I15
tp780
a(I12
S'conj:die'
p781
I16
tp782
a(I16
S'cc'
p783
I17
tp784
a(I16
S'conj:und'
p785
I18
tp786
a(I16
S'acl'
p787
I19
tp788
a(I19
S'nmod'
p789
I20
tp790
a(I19
S'cop'
p791
I21
tp792
a(I19
S'dep'
p793
I22
tp794
a(I12
S'punct'
p795
I23
tp796
aa(lp797
(I6
g3
I6
tp798
a(I1
S'det'
p799
I0
tp800
a(I6
S'nsubjpass'
p801
I1
tp802
a(I6
S'auxpass'
p803
I2
tp804
a(I6
S'advmod'
p805
I3
tp806
a(I5
S'advmod'
p807
I4
tp808
a(I6
S'neg'
p809
I5
tp810
a(I6
S'punct'
p811
I7
tp812
a(I12
S'name'
p813
I8
tp814
a(I10
S'det'
p815
I9
tp816
a(I8
S'dobj'
p817
I10
tp818
a(I10
S'nmod'
p819
I11
tp820
a(I6
S'xcomp'
p821
I12
tp822
a(I12
S'cop'
p823
I13
tp824
a(I6
S'punct'
p825
I14
tp826
a(I24
S'mark'
p827
I15
tp828
a(I17
S'det'
p829
I16
tp830
a(I24
S'iobj'
p831
I17
tp832
a(I24
S'nsubjpass'
p833
I18
tp834
a(I21
S'case'
p835
I19
tp836
a(I21
S'det'
p837
I20
tp838
a(I18
S'nmod'
p839
I21
tp840
a(I23
S'det'
p841
I22
tp842
a(I21
S'det'
p843
I23
tp844
a(I6
S'advcl'
p845
I24
tp846
a(I24
S'auxpass'
p847
I25
tp848
a(I24
S'aux'
p849
I26
tp850
a(I6
S'punct'
p851
I27
tp852
aa(lp853
(I1
g3
I1
tp854
a(I1
S'nsubj'
p855
I0
tp856
a(I4
S'iobj'
p857
I2
tp858
a(I4
S'iobj'
p859
I3
tp860
a(I1
S'nmod'
p861
I4
tp862
a(I6
S'det'
p863
I5
tp864
a(I4
S'nsubj'
p865
I6
tp866
a(I8
S'case'
p867
I7
tp868
a(I6
S'nmod'
p869
I8
tp870
a(I1
S'advmod'
p871
I9
tp872
a(I1
S'mark'
p873
I10
tp874
a(I1
S'punct'
p875
I11
tp876
aa(lp877
(I5
g3
I5
tp878
a(I5
S'acl'
p879
I0
tp880
a(I5
S'auxpass'
p881
I1
tp882
a(I5
S'advmod'
p883
I2
tp884
a(I2
S'case'
p885
I3
tp886
a(I3
S'nummod'
p887
I4
tp888
a(I5
S'nsubj'
p889
I6
tp890
a(I5
S'punct'
p891
I7
tp892
a(I5
S'dep'
p893
I8
tp894
a(I8
S'punct'
p895
I9
tp896
a(I8
S'cc'
p897
I10
tp898
a(I12
S'det'
p899
I11
tp900
a(I20
S'dobj'
p901
I12
tp902
a(I15
S'det'
p903
I13
tp904
a(I15
S'amod'
p905
I14
tp906
a(I12
S'det'
p907
I15
tp908
a(I17
S'nummod'
p909
I16
tp910
a(I19
S'compound'
p911
I17
tp912
a(I19
S'name'
p913
I18
tp914
a(I20
S'appos'
p915
I19
tp916
a(I8
S'conj:da\xc3\x9f'
p917
I20
tp918
a(I8
S'punct'
p919
I21
tp920
aa(lp921
(I1
g3
I1
tp922
a(I1
S'det'
p923
I0
tp924
a(I27
S'advcl'
p925
I2
tp926
a(I4
S'det'
p927
I3
tp928
a(I2
S'dobj'
p929
I4
tp930
a(I4
S'dobj'
p931
I5
tp932
a(I5
S'punct'
p933
I6
tp934
a(I5
S'conj'
p935
I7
tp936
a(I5
S'cc'
p937
I8
tp938
a(I11
S'dobj'
p939
I9
tp940
a(I9
S'advmod'
p941
I10
tp942
a(I5
S'conj:und'
p943
I11
tp944
a(I2
S'dep'
p945
I12
tp946
a(I27
S'auxpass'
p947
I13
tp948
a(I27
S'nsubjpass'
p949
I14
tp950
a(I27
S'advmod'
p951
I15
tp952
a(I18
S'case'
p953
I16
tp954
a(I18
S'det'
p955
I17
tp956
a(I27
S'nmod'
p957
I18
tp958
a(I20
S'case'
p959
I19
tp960
a(I27
S'nmod'
p961
I20
tp962
a(I21
S'nummod'
p963
I20
tp964
a(I22
S'nummod'
p965
I21
tp966
a(I27
S'dobj'
p967
I22
tp968
a(I24
S'det'
p969
I23
tp970
a(I27
S'iobj'
p971
I24
tp972
a(I26
S'det'
p973
I25
tp974
a(I27
S'iobj'
p975
I26
tp976
a(I1
S'amod'
p977
I27
tp978
a(I27
S'punct'
p979
I28
tp980
aa(lp981
(I2
g3
I2
tp982
a(I1
S'det'
p983
I0
tp984
a(I2
S'nsubj'
p985
I1
tp986
a(I4
S'amod'
p987
I3
tp988
a(I2
S'advmod'
p989
I4
tp990
a(I7
S'case'
p991
I5
tp992
a(I7
S'det'
p993
I6
tp994
a(I2
S'amod'
p995
I7
tp996
a(I7
S'punct'
p997
I8
tp998
a(I16
S'nsubj'
p999
I9
tp1000
a(I11
S'det'
p1001
I10
tp1002
a(I15
S'dobj'
p1003
I11
tp1004
a(I11
S'case'
p1005
I12
tp1006
a(I12
S'cc'
p1007
I13
tp1008
a(I12
S'nummod'
p1009
I14
tp1010
a(I16
S'xcomp'
p1011
I15
tp1012
a(I7
S'acl'
p1013
I16
tp1014
a(I7
S'punct'
p1015
I17
tp1016
aa(lp1017
(I2
g3
I2
tp1018
a(I2
S'expl'
p1019
I0
tp1020
a(I2
S'aux'
p1021
I1
tp1022
a(I2
S'auxpass'
p1023
I3
tp1024
a(I2
S'punct'
p1025
I4
tp1026
a(I12
S'iobj'
p1027
I5
tp1028
a(I8
S'det'
p1029
I6
tp1030
a(I8
S'amod'
p1031
I7
tp1032
a(I12
S'nsubjpass'
p1033
I8
tp1034
a(I12
S'iobj'
p1035
I9
tp1036
a(I11
S'amod'
p1037
I10
tp1038
a(I12
S'iobj'
p1039
I11
tp1040
a(I2
S'csubj'
p1041
I12
tp1042
a(I14
S'det'
p1043
I13
tp1044
a(I12
S'iobj'
p1045
I14
tp1046
a(I12
S'aux'
p1047
I15
tp1048
a(I2
S'punct'
p1049
I16
tp1050
aa(lp1051
(I11
g3
I11
tp1052
a(I7
S'mark'
p1053
I0
tp1054
a(I7
S'nsubj'
p1055
I1
tp1056
a(I7
S'advmod'
p1057
I2
tp1058
a(I7
S'advmod'
p1059
I3
tp1060
a(I6
S'case'
p1061
I4
tp1062
a(I6
S'amod'
p1063
I5
tp1064
a(I7
S'nmod'
p1065
I6
tp1066
a(I11
S'advcl'
p1067
I7
tp1068
a(I11
S'punct'
p1069
I8
tp1070
a(I11
S'cop'
p1071
I9
tp1072
a(I11
S'det'
p1073
I10
tp1074
a(I13
S'det'
p1075
I12
tp1076
a(I11
S'iobj'
p1077
I13
tp1078
a(I11
S'punct'
p1079
I14
tp1080
a(I25
S'iobj'
p1081
I15
tp1082
a(I17
S'det'
p1083
I16
tp1084
a(I25
S'dobj'
p1085
I17
tp1086
a(I19
S'det'
p1087
I18
tp1088
a(I17
S'det'
p1089
I19
tp1090
a(I22
S'case'
p1091
I20
tp1092
a(I22
S'amod'
p1093
I21
tp1094
a(I19
S'nmod'
p1095
I22
tp1096
a(I24
S'advmod'
p1097
I23
tp1098
a(I25
S'amod'
p1099
I24
tp1100
a(I31
S'nsubjpass'
p1101
I25
tp1102
a(I28
S'det'
p1103
I26
tp1104
a(I28
S'amod'
p1105
I27
tp1106
a(I25
S'iobj'
p1107
I28
tp1108
a(I30
S'det'
p1109
I29
tp1110
a(I28
S'det'
p1111
I30
tp1112
a(I11
S'advcl'
p1113
I31
tp1114
a(I31
S'auxpass'
p1115
I32
tp1116
a(I31
S'aux'
p1117
I33
tp1118
a(I11
S'punct'
p1119
I34
tp1120
aa(lp1121
(I12
g3
I12
tp1122
a(I12
S'nsubj'
p1123
I0
tp1124
a(I12
S'auxpass'
p1125
I1
tp1126
a(I12
S'advmod'
p1127
I2
tp1128
a(I5
S'det'
p1129
I3
tp1130
a(I5
S'amod'
p1131
I4
tp1132
a(I12
S'nsubjpass'
p1133
I5
tp1134
a(I5
S'cc'
p1135
I6
tp1136
a(I8
S'det'
p1137
I7
tp1138
a(I5
S'conj:sowie'
p1139
I8
tp1140
a(I10
S'case'
p1141
I9
tp1142
a(I8
S'nmod'
p1143
I10
tp1144
a(I10
S'compound'
p1145
I11
tp1146
a(I12
S'punct'
p1147
I13
tp1148
a(I16
S'case'
p1149
I14
tp1150
a(I16
S'det'
p1151
I15
tp1152
a(I29
S'nmod'
p1153
I16
tp1154
a(I29
S'aux'
p1155
I17
tp1156
a(I29
S'punct'
p1157
I18
tp1158
a(I29
S'advmod'
p1159
I19
tp1160
a(I21
S'det'
p1161
I20
tp1162
a(I29
S'nsubjpass'
p1163
I21
tp1164
a(I24
S'case'
p1165
I22
tp1166
a(I24
S'amod'
p1167
I23
tp1168
a(I21
S'nmod'
p1169
I24
tp1170
a(I28
S'case'
p1171
I25
tp1172
a(I28
S'det'
p1173
I26
tp1174
a(I28
S'amod'
p1175
I27
tp1176
a(I29
S'nmod'
p1177
I28
tp1178
a(I12
S'conj'
p1179
I29
tp1180
a(I29
S'auxpass'
p1181
I30
tp1182
a(I12
S'punct'
p1183
I31
tp1184
aa(lp1185
(I22
g3
I22
tp1186
a(I1
S'det'
p1187
I0
tp1188
a(I22
S'nsubj'
p1189
I1
tp1190
a(I22
S'aux'
p1191
I2
tp1192
a(I4
S'det'
p1193
I3
tp1194
a(I22
S'dobj'
p1195
I4
tp1196
a(I8
S'case'
p1197
I5
tp1198
a(I5
S'nmod'
p1199
I6
tp1200
a(I8
S'nummod'
p1201
I7
tp1202
a(I22
S'aux'
p1203
I8
tp1204
a(I8
S'punct'
p1205
I9
tp1206
a(I17
S'nsubj'
p1207
I10
tp1208
a(I12
S'det'
p1209
I11
tp1210
a(I17
S'dobj'
p1211
I12
tp1212
a(I14
S'det'
p1213
I13
tp1214
a(I12
S'det'
p1215
I14
tp1216
a(I17
S'punct'
p1217
I15
tp1218
a(I17
S'det'
p1219
I16
tp1220
a(I8
S'acl'
p1221
I17
tp1222
a(I17
S'punct'
p1223
I18
tp1224
a(I22
S'case'
p1225
I19
tp1226
a(I21
S'amod'
p1227
I20
tp1228
a(I19
S'nmod'
p1229
I21
tp1230
a(I22
S'punct'
p1231
I23
tp1232
aa(lp1233
(I1
g3
I1
tp1234
a(I1
S'det'
p1235
I0
tp1236
a(I3
S'case'
p1237
I2
tp1238
a(I1
S'nmod'
p1239
I3
tp1240
a(I1
S'advmod'
p1241
I4
tp1242
a(I1
S'nmod'
p1243
I5
tp1244
a(I5
S'dobj'
p1245
I6
tp1246
a(I1
S'mark'
p1247
I7
tp1248
a(I1
S'punct'
p1249
I8
tp1250
aa(lp1251
(I1
g3
I1
tp1252
a(I1
S'det'
p1253
I0
tp1254
a(I1
S'case'
p1255
I2
tp1256
a(I2
S'dep'
p1257
I3
tp1258
a(I5
S'name'
p1259
I4
tp1260
a(I3
S'cc'
p1261
I5
tp1262
a(I5
S'punct'
p1263
I6
tp1264
a(I5
S'conj'
p1265
I7
tp1266
a(I5
S'punct'
p1267
I8
tp1268
a(I5
S'conj'
p1269
I9
tp1270
a(I5
S'cc'
p1271
I10
tp1272
a(I13
S'dobj'
p1273
I11
tp1274
a(I13
S'neg'
p1275
I12
tp1276
a(I5
S'conj:und'
p1277
I13
tp1278
a(I5
S'punct'
p1279
I14
tp1280
aa(lp1281
(I1
g3
I1
tp1282
a(I1
S'nsubj'
p1283
I0
tp1284
a(I3
S'det'
p1285
I2
tp1286
a(I1
S'iobj'
p1287
I3
tp1288
a(I5
S'det'
p1289
I4
tp1290
a(I3
S'det'
p1291
I5
tp1292
a(I1
S'punct'
p1293
I6
tp1294
a(I24
S'nsubj'
p1295
I7
tp1296
a(I9
S'det'
p1297
I8
tp1298
a(I24
S'nsubj'
p1299
I9
tp1300
a(I12
S'det'
p1301
I10
tp1302
a(I12
S'amod'
p1303
I11
tp1304
a(I9
S'det'
p1305
I12
tp1306
a(I12
S'nmod'
p1307
I13
tp1308
a(I16
S'case'
p1309
I14
tp1310
a(I16
S'det'
p1311
I15
tp1312
a(I9
S'nmod'
p1313
I16
tp1314
a(I16
S'cc'
p1315
I17
tp1316
a(I19
S'det'
p1317
I18
tp1318
a(I16
S'conj:sowie'
p1319
I19
tp1320
a(I21
S'det'
p1321
I20
tp1322
a(I19
S'det'
p1323
I21
tp1324
a(I23
S'det'
p1325
I22
tp1326
a(I21
S'det'
p1327
I23
tp1328
a(I1
S'acl'
p1329
I24
tp1330
a(I24
S'punct'
p1331
I25
tp1332
a(I28
S'case'
p1333
I26
tp1334
a(I28
S'det'
p1335
I27
tp1336
a(I24
S'conj'
p1337
I28
tp1338
a(I30
S'det'
p1339
I29
tp1340
a(I28
S'det'
p1341
I30
tp1342
a(I28
S'mark'
p1343
I31
tp1344
a(I1
S'punct'
p1345
I32
tp1346
aa(lp1347
(I4
g3
I4
tp1348
a(I2
S'mark'
p1349
I0
tp1350
a(I2
S'advmod'
p1351
I1
tp1352
a(I4
S'advcl'
p1353
I2
tp1354
a(I2
S'punct'
p1355
I3
tp1356
a(I4
S'nsubj'
p1357
I5
tp1358
a(I5
S'amod'
p1359
I6
tp1360
a(I6
S'nmod'
p1361
I7
tp1362
a(I7
S'case'
p1363
I8
tp1364
a(I6
S'nmod'
p1365
I9
tp1366
a(I14
S'advmod'
p1367
I10
tp1368
a(I14
S'case'
p1369
I11
tp1370
a(I14
S'det'
p1371
I12
tp1372
a(I14
S'amod'
p1373
I13
tp1374
a(I6
S'nmod'
p1375
I14
tp1376
a(I6
S'mark'
p1377
I15
tp1378
a(I6
S'punct'
p1379
I16
tp1380
aa(lp1381
(I4
g3
I4
tp1382
a(I1
S'det'
p1383
I0
tp1384
a(I4
S'nsubj'
p1385
I1
tp1386
a(I4
S'cop'
p1387
I2
tp1388
a(I4
S'det'
p1389
I3
tp1390
a(I4
S'punct'
p1391
I5
tp1392
a(I9
S'mark'
p1393
I6
tp1394
a(I9
S'nsubj'
p1395
I7
tp1396
a(I9
S'neg'
p1397
I8
tp1398
a(I4
S'advcl'
p1399
I9
tp1400
a(I9
S'cop'
p1401
I10
tp1402
a(I10
S'dep'
p1403
I11
tp1404
a(I11
S'punct'
p1405
I12
tp1406
a(I19
S'nsubj'
p1407
I13
tp1408
a(I16
S'case'
p1409
I14
tp1410
a(I14
S'nmod'
p1411
I15
tp1412
a(I17
S'nmod'
p1413
I16
tp1414
a(I19
S'xcomp'
p1415
I17
tp1416
a(I19
S'aux'
p1417
I18
tp1418
a(I11
S'acl'
p1419
I19
tp1420
a(I11
S'punct'
p1421
I20
tp1422
a(I32
S'mark'
p1423
I21
tp1424
a(I23
S'det'
p1425
I22
tp1426
a(I32
S'iobj'
p1427
I23
tp1428
a(I25
S'det'
p1429
I24
tp1430
a(I32
S'dobj'
p1431
I25
tp1432
a(I32
S'mark'
p1433
I26
tp1434
a(I28
S'det'
p1435
I27
tp1436
a(I32
S'nsubj'
p1437
I28
tp1438
a(I32
S'aux'
p1439
I29
tp1440
a(I32
S'iobj'
p1441
I30
tp1442
a(I32
S'advmod'
p1443
I31
tp1444
a(I11
S'advcl'
p1445
I32
tp1446
a(I4
S'punct'
p1447
I33
tp1448
aa(lp1449
(I6
g3
I6
tp1450
a(I6
S'nsubj'
p1451
I0
tp1452
a(I6
S'aux'
p1453
I1
tp1454
a(I3
S'case'
p1455
I2
tp1456
a(I6
S'nmod'
p1457
I3
tp1458
a(I3
S'advmod'
p1459
I4
tp1460
a(I4
S'advmod'
p1461
I5
tp1462
a(I6
S'punct'
p1463
I7
tp1464
a(I6
S'cc'
p1465
I8
tp1466
a(I11
S'det'
p1467
I9
tp1468
a(I11
S'amod'
p1469
I10
tp1470
a(I12
S'conj'
p1471
I11
tp1472
a(I15
S'aux'
p1473
I12
tp1474
a(I14
S'advmod'
p1475
I13
tp1476
a(I15
S'advmod'
p1477
I14
tp1478
a(I6
S'conj:aber'
p1479
I15
tp1480
a(I15
S'auxpass'
p1481
I16
tp1482
a(I15
S'punct'
p1483
I17
tp1484
a(I20
S'mark'
p1485
I18
tp1486
a(I20
S'nsubj'
p1487
I19
tp1488
a(I22
S'advcl'
p1489
I20
tp1490
a(I20
S'punct'
p1491
I21
tp1492
a(I15
S'parataxis'
p1493
I22
tp1494
a(I24
S'det'
p1495
I23
tp1496
a(I22
S'nsubj'
p1497
I24
tp1498
a(I26
S'det'
p1499
I25
tp1500
a(I22
S'dobj'
p1501
I26
tp1502
a(I28
S'case'
p1503
I27
tp1504
a(I29
S'nmod'
p1505
I28
tp1506
a(I22
S'neg'
p1507
I29
tp1508
a(I6
S'punct'
p1509
I30
tp1510
aa(lp1511
(I2
g3
I2
tp1512
a(I2
S'nsubj'
p1513
I0
tp1514
a(I2
S'aux'
p1515
I1
tp1516
a(I2
S'cc'
p1517
I3
tp1518
a(I3
S'advmod'
p1519
I4
tp1520
a(I6
S'neg'
p1521
I5
tp1522
a(I3
S'dobj'
p1523
I6
tp1524
a(I3
S'punct'
p1525
I7
tp1526
aa(lp1527
(I1
g3
I1
tp1528
a(I1
S'advmod'
p1529
I0
tp1530
a(I1
S'dep'
p1531
I2
tp1532
a(I1
S'advmod'
p1533
I3
tp1534
a(I1
S'nsubj'
p1535
I4
tp1536
a(I6
S'det'
p1537
I5
tp1538
a(I4
S'det'
p1539
I6
tp1540
a(I9
S'case'
p1541
I7
tp1542
a(I9
S'det'
p1543
I8
tp1544
a(I10
S'nmod'
p1545
I9
tp1546
a(I6
S'amod'
p1547
I10
tp1548
a(I10
S'advmod'
p1549
I11
tp1550
a(I10
S'mark'
p1551
I12
tp1552
a(I10
S'punct'
p1553
I13
tp1554
a(I15
S'case'
p1555
I14
tp1556
a(I16
S'nmod'
p1557
I15
tp1558
a(I18
S'xcomp'
p1559
I16
tp1560
a(I18
S'aux'
p1561
I17
tp1562
a(I10
S'acl'
p1563
I18
tp1564
a(I18
S'punct'
p1565
I19
tp1566
a(I23
S'advmod'
p1567
I20
tp1568
a(I22
S'det'
p1569
I21
tp1570
a(I23
S'nsubjpass'
p1571
I22
tp1572
a(I18
S'acl'
p1573
I23
tp1574
a(I23
S'auxpass'
p1575
I24
tp1576
a(I23
S'aux'
p1577
I25
tp1578
a(I10
S'punct'
p1579
I26
tp1580
aa(lp1581
(I9
g3
I9
tp1582
a(I2
S'det'
p1583
I0
tp1584
a(I2
S'amod'
p1585
I1
tp1586
a(I9
S'nsubj'
p1587
I2
tp1588
a(I2
S'punct'
p1589
I3
tp1590
a(I2
S'conj'
p1591
I4
tp1592
a(I2
S'cc'
p1593
I5
tp1594
a(I2
S'conj:und'
p1595
I6
tp1596
a(I9
S'cop'
p1597
I7
tp1598
a(I9
S'advmod'
p1599
I8
tp1600
a(I9
S'punct'
p1601
I10
tp1602
aa(lp1603
(I2
g3
I2
tp1604
a(I1
S'det'
p1605
I0
tp1606
a(I2
S'nsubj'
p1607
I1
tp1608
a(I2
S'advmod'
p1609
I3
tp1610
a(I2
S'advmod'
p1611
I4
tp1612
a(I6
S'amod'
p1613
I5
tp1614
a(I4
S'dobj'
p1615
I6
tp1616
a(I6
S'det'
p1617
I7
tp1618
a(I9
S'det'
p1619
I8
tp1620
a(I7
S'det'
p1621
I9
tp1622
a(I9
S'cc'
p1623
I10
tp1624
a(I13
S'det'
p1625
I11
tp1626
a(I13
S'amod'
p1627
I12
tp1628
a(I9
S'conj:und'
p1629
I13
tp1630
a(I2
S'punct'
p1631
I14
tp1632
a(I2
S'cc'
p1633
I15
tp1634
a(I2
S'conj:aber'
p1635
I16
tp1636
a(I16
S'root'
p1637
I17
tp1638
a(I17
S'cc'
p1639
I18
tp1640
a(I21
S'neg'
p1641
I19
tp1642
a(I21
S'amod'
p1643
I20
tp1644
a(I18
S'nsubj'
p1645
I21
tp1646
a(I21
S'mark'
p1647
I22
tp1648
a(I21
S'punct'
p1649
I23
tp1650
a(I25
S'mark'
p1651
I24
tp1652
a(I21
S'conj'
p1653
I25
tp1654
a(I27
S'aux'
p1655
I26
tp1656
a(I25
S'aux'
p1657
I27
tp1658
a(I25
S'punct'
p1659
I28
tp1660
a(I34
S'advmod'
p1661
I29
tp1662
a(I32
S'det'
p1663
I30
tp1664
a(I32
S'amod'
p1665
I31
tp1666
a(I34
S'nsubjpass'
p1667
I32
tp1668
a(I34
S'advmod'
p1669
I33
tp1670
a(I25
S'acl'
p1671
I34
tp1672
a(I34
S'auxpass'
p1673
I35
tp1674
a(I18
S'punct'
p1675
I36
tp1676
aa(lp1677
(I5
g3
I5
tp1678
a(I1
S'det'
p1679
I0
tp1680
a(I5
S'nsubj'
p1681
I1
tp1682
a(I5
S'aux'
p1683
I2
tp1684
a(I5
S'dobj'
p1685
I3
tp1686
a(I3
S'advmod'
p1687
I4
tp1688
a(I5
S'punct'
p1689
I6
tp1690
aa(lp1691
(I2
g3
I2
tp1692
a(I2
S'iobj'
p1693
I0
tp1694
a(I2
S'iobj'
p1695
I1
tp1696
a(I2
S'punct'
p1697
I3
tp1698
a(I2
S'conj'
p1699
I4
tp1700
a(I4
S'advmod'
p1701
I5
tp1702
a(I7
S'det'
p1703
I6
tp1704
a(I4
S'dobj'
p1705
I7
tp1706
a(I7
S'cc'
p1707
I8
tp1708
a(I10
S'det'
p1709
I9
tp1710
a(I10
S'amod'
p1711
I10
tp1712
a(I11
S'iobj'
p1713
I10
tp1714
a(I10
S'case'
p1715
I10
tp1716
a(I11
S'nmod'
p1717
I10
tp1718
a(I7
S'conj:oder'
p1719
I11
tp1720
a(I2
S'punct'
p1721
I12
tp1722
aa(lp1723
(I2
g3
I2
tp1724
a(I1
S'amod'
p1725
I0
tp1726
a(I2
S'nmod'
p1727
I1
tp1728
a(I4
S'det'
p1729
I3
tp1730
a(I2
S'dobj'
p1731
I4
tp1732
a(I6
S'det'
p1733
I5
tp1734
a(I4
S'iobj'
p1735
I6
tp1736
a(I8
S'det'
p1737
I7
tp1738
a(I6
S'det'
p1739
I8
tp1740
a(I2
S'mark'
p1741
I9
tp1742
a(I2
S'punct'
p1743
I10
tp1744
a(I12
S'det'
p1745
I11
tp1746
a(I17
S'dobj'
p1747
I12
tp1748
a(I15
S'case'
p1749
I13
tp1750
a(I15
S'det'
p1751
I14
tp1752
a(I17
S'nmod'
p1753
I15
tp1754
a(I17
S'aux'
p1755
I16
tp1756
a(I2
S'conj'
p1757
I17
tp1758
a(I2
S'punct'
p1759
I18
tp1760
aa(lp1761
(I3
g3
I3
tp1762
a(I1
S'det'
p1763
I0
tp1764
a(I3
S'nsubjpass'
p1765
I1
tp1766
a(I3
S'auxpass'
p1767
I2
tp1768
a(I3
S'punct'
p1769
I4
tp1770
a(I12
S'mark'
p1771
I5
tp1772
a(I7
S'det'
p1773
I6
tp1774
a(I12
S'advmod'
p1775
I7
tp1776
a(I9
S'amod'
p1777
I8
tp1778
a(I12
S'nsubjpass'
p1779
I9
tp1780
a(I11
S'det'
p1781
I10
tp1782
a(I9
S'det'
p1783
I11
tp1784
a(I3
S'ccomp'
p1785
I12
tp1786
a(I12
S'auxpass'
p1787
I13
tp1788
a(I12
S'aux'
p1789
I14
tp1790
a(I3
S'cc'
p1791
I15
tp1792
a(I25
S'mark'
p1793
I16
tp1794
a(I25
S'advmod'
p1795
I17
tp1796
a(I19
S'amod'
p1797
I18
tp1798
a(I25
S'nsubjpass'
p1799
I19
tp1800
a(I24
S'case'
p1801
I20
tp1802
a(I23
S'amod'
p1803
I21
tp1804
a(I23
S'amod'
p1805
I22
tp1806
a(I20
S'nmod'
p1807
I23
tp1808
a(I19
S'nmod'
p1809
I24
tp1810
a(I3
S'conj:und'
p1811
I25
tp1812
a(I25
S'punct'
p1813
I26
tp1814
aa(lp1815
(I6
g3
I6
tp1816
a(I1
S'det'
p1817
I0
tp1818
a(I6
S'nsubj'
p1819
I1
tp1820
a(I6
S'aux'
p1821
I2
tp1822
a(I4
S'amod'
p1823
I3
tp1824
a(I6
S'dobj'
p1825
I4
tp1826
a(I6
S'neg'
p1827
I5
tp1828
a(I6
S'punct'
p1829
I7
tp1830
aa(lp1831
(I1
g3
I1
tp1832
a(I1
S'nsubj'
p1833
I0
tp1834
a(I5
S'case'
p1835
I2
tp1836
a(I5
S'det'
p1837
I3
tp1838
a(I5
S'amod'
p1839
I4
tp1840
a(I17
S'nmod'
p1841
I5
tp1842
a(I8
S'case'
p1843
I6
tp1844
a(I8
S'det'
p1845
I7
tp1846
a(I17
S'nmod'
p1847
I8
tp1848
a(I8
S'punct'
p1849
I9
tp1850
a(I11
S'det'
p1851
I10
tp1852
a(I8
S'conj'
p1853
I11
tp1854
a(I8
S'punct'
p1855
I12
tp1856
a(I14
S'case'
p1857
I13
tp1858
a(I8
S'conj'
p1859
I14
tp1860
a(I16
S'amod'
p1861
I15
tp1862
a(I17
S'dobj'
p1863
I16
tp1864
a(I1
S'xcomp'
p1865
I17
tp1866
a(I17
S'aux'
p1867
I18
tp1868
a(I1
S'punct'
p1869
I19
tp1870
a(I1
S'conj'
p1871
I20
tp1872
a(I1
S'punct'
p1873
I21
tp1874
aa(lp1875
(I4
g3
I4
tp1876
a(I1
S'neg'
p1877
I0
tp1878
a(I4
S'nsubjpass'
p1879
I1
tp1880
a(I3
S'amod'
p1881
I2
tp1882
a(I1
S'advmod'
p1883
I3
tp1884
a(I7
S'case'
p1885
I5
tp1886
a(I7
S'det'
p1887
I6
tp1888
a(I11
S'nmod'
p1889
I7
tp1890
a(I11
S'punct'
p1891
I8
tp1892
a(I10
S'name'
p1893
I9
tp1894
a(I11
S'amod'
p1895
I10
tp1896
a(I4
S'amod'
p1897
I11
tp1898
a(I11
S'punct'
p1899
I12
tp1900
a(I17
S'aux'
p1901
I13
tp1902
a(I15
S'det'
p1903
I14
tp1904
a(I17
S'nsubjpass'
p1905
I15
tp1906
a(I17
S'advmod'
p1907
I16
tp1908
a(I11
S'advcl'
p1909
I17
tp1910
a(I17
S'punct'
p1911
I18
tp1912
a(I28
S'mark'
p1913
I19
tp1914
a(I28
S'nsubj'
p1915
I20
tp1916
a(I23
S'case'
p1917
I21
tp1918
a(I23
S'amod'
p1919
I22
tp1920
a(I28
S'nmod'
p1921
I23
tp1922
a(I28
S'neg'
p1923
I24
tp1924
a(I27
S'case'
p1925
I25
tp1926
a(I27
S'det'
p1927
I26
tp1928
a(I28
S'nmod'
p1929
I27
tp1930
a(I17
S'advcl'
p1931
I28
tp1932
a(I28
S'cc'
p1933
I29
tp1934
a(I32
S'name'
p1935
I30
tp1936
a(I32
S'amod'
p1937
I31
tp1938
a(I34
S'iobj'
p1939
I32
tp1940
a(I34
S'neg'
p1941
I33
tp1942
a(I28
S'conj:und'
p1943
I34
tp1944
a(I11
S'punct'
p1945
I35
tp1946
aa(lp1947
(I4
g3
I4
tp1948
a(I2
S'det'
p1949
I0
tp1950
a(I2
S'amod'
p1951
I1
tp1952
a(I4
S'nsubj'
p1953
I2
tp1954
a(I4
S'cop'
p1955
I3
tp1956
a(I7
S'case'
p1957
I5
tp1958
a(I7
S'det'
p1959
I6
tp1960
a(I4
S'nmod'
p1961
I7
tp1962
a(I10
S'case'
p1963
I8
tp1964
a(I10
S'det'
p1965
I9
tp1966
a(I7
S'nmod'
p1967
I10
tp1968
a(I12
S'case'
p1969
I11
tp1970
a(I10
S'nmod'
p1971
I12
tp1972
a(I4
S'punct'
p1973
I13
tp1974
aa(lp1975
(I5
g3
I5
tp1976
a(I5
S'nsubj'
p1977
I0
tp1978
a(I5
S'aux'
p1979
I1
tp1980
a(I4
S'det'
p1981
I2
tp1982
a(I4
S'amod'
p1983
I3
tp1984
a(I5
S'dobj'
p1985
I4
tp1986
a(I5
S'punct'
p1987
I6
tp1988
aa(lp1989
(I6
g3
I6
tp1990
a(I1
S'det'
p1991
I0
tp1992
a(I6
S'nsubj'
p1993
I1
tp1994
a(I6
S'aux'
p1995
I2
tp1996
a(I6
S'appos'
p1997
I3
tp1998
a(I6
S'iobj'
p1999
I4
tp2000
a(I6
S'neg'
p2001
I5
tp2002
a(I6
S'punct'
p2003
I7
tp2004
aa(lp2005
(I13
g3
I13
tp2006
a(I13
S'advmod'
p2007
I0
tp2008
a(I13
S'aux'
p2009
I1
tp2010
a(I13
S'nsubj'
p2011
I2
tp2012
a(I4
S'advmod'
p2013
I3
tp2014
a(I13
S'advmod'
p2015
I4
tp2016
a(I13
S'advmod'
p2017
I5
tp2018
a(I7
S'det'
p2019
I6
tp2020
a(I5
S'det'
p2021
I7
tp2022
a(I9
S'amod'
p2023
I8
tp2024
a(I5
S'advmod'
p2025
I9
tp2026
a(I13
S'dobj'
p2027
I10
tp2028
a(I12
S'det'
p2029
I11
tp2030
a(I10
S'iobj'
p2031
I12
tp2032
a(I13
S'punct'
p2033
I14
tp2034
aa(lp2035
(I1
g3
I1
tp2036
a(I1
S'advmod'
p2037
I0
tp2038
a(I1
S'nsubj'
p2039
I2
tp2040
a(I4
S'advmod'
p2041
I3
tp2042
a(I1
S'dobj'
p2043
I4
tp2044
a(I4
S'advmod'
p2045
I5
tp2046
a(I1
S'mark'
p2047
I6
tp2048
a(I1
S'punct'
p2049
I7
tp2050
aa(lp2051
(I6
g3
I6
tp2052
a(I5
S'det'
p2053
I0
tp2054
a(I3
S'case'
p2055
I1
tp2056
a(I3
S'det'
p2057
I2
tp2058
a(I4
S'nmod'
p2059
I3
tp2060
a(I5
S'amod'
p2061
I4
tp2062
a(I6
S'nsubj'
p2063
I5
tp2064
a(I6
S'advmod'
p2065
I7
tp2066
a(I10
S'det'
p2067
I8
tp2068
a(I10
S'amod'
p2069
I9
tp2070
a(I11
S'iobj'
p2071
I10
tp2072
a(I6
S'advmod'
p2073
I11
tp2074
a(I11
S'dobj'
p2075
I12
tp2076
a(I14
S'iobj'
p2077
I13
tp2078
a(I12
S'det'
p2079
I14
tp2080
a(I16
S'case'
p2081
I15
tp2082
a(I11
S'nmod'
p2083
I16
tp2084
a(I21
S'case'
p2085
I17
tp2086
a(I21
S'det'
p2087
I18
tp2088
a(I21
S'amod'
p2089
I19
tp2090
a(I21
S'det'
p2091
I20
tp2092
a(I6
S'nmod'
p2093
I21
tp2094
a(I24
S'case'
p2095
I22
tp2096
a(I24
S'det'
p2097
I23
tp2098
a(I21
S'nmod'
p2099
I24
tp2100
a(I6
S'punct'
p2101
I25
tp2102
aa(lp2103
(I18
g3
I18
tp2104
a(I1
S'amod'
p2105
I0
tp2106
a(I18
S'nsubj'
p2107
I1
tp2108
a(I18
S'aux'
p2109
I2
tp2110
a(I18
S'dobj'
p2111
I3
tp2112
a(I18
S'advmod'
p2113
I4
tp2114
a(I6
S'det'
p2115
I5
tp2116
a(I18
S'nsubj'
p2117
I6
tp2118
a(I9
S'case'
p2119
I7
tp2120
a(I9
S'nummod'
p2121
I8
tp2122
a(I6
S'nmod'
p2123
I9
tp2124
a(I12
S'case'
p2125
I10
tp2126
a(I12
S'det'
p2127
I11
tp2128
a(I18
S'nmod'
p2129
I12
tp2130
a(I15
S'mwe'
p2131
I13
tp2132
a(I13
S'nmod'
p2133
I14
tp2134
a(I18
S'advmod'
p2135
I15
tp2136
a(I18
S'det'
p2137
I16
tp2138
a(I18
S'dobj'
p2139
I17
tp2140
a(I18
S'punct'
p2141
I19
tp2142
aa(lp2143
(I3
g3
I3
tp2144
a(I1
S'det'
p2145
I0
tp2146
a(I3
S'nsubj'
p2147
I1
tp2148
a(I3
S'cop'
p2149
I2
tp2150
a(I3
S'punct'
p2151
I4
tp2152
aa(lp2153
(I2
g3
I2
tp2154
a(I1
S'det'
p2155
I0
tp2156
a(I2
S'nsubj'
p2157
I1
tp2158
a(I2
S'advmod'
p2159
I3
tp2160
a(I6
S'case'
p2161
I4
tp2162
a(I6
S'nummod'
p2163
I5
tp2164
a(I2
S'nmod'
p2165
I6
tp2166
a(I2
S'mark'
p2167
I7
tp2168
a(I2
S'punct'
p2169
I8
tp2170
aa(lp2171
(I1
g3
I1
tp2172
a(I1
S'iobj'
p2173
I0
tp2174
a(I1
S'advmod'
p2175
I2
tp2176
aa(lp2177
(I3
g3
I3
tp2178
a(I2
S'case'
p2179
I0
tp2180
a(I2
S'det'
p2181
I1
tp2182
a(I3
S'nmod'
p2183
I2
tp2184
a(I5
S'det'
p2185
I4
tp2186
a(I3
S'nsubj'
p2187
I5
tp2188
a(I9
S'case'
p2189
I6
tp2190
a(I8
S'nummod'
p2191
I7
tp2192
a(I9
S'nummod'
p2193
I8
tp2194
a(I3
S'nmod'
p2195
I9
tp2196
a(I12
S'case'
p2197
I10
tp2198
a(I12
S'det'
p2199
I11
tp2200
a(I3
S'nmod'
p2201
I12
tp2202
a(I15
S'case'
p2203
I13
tp2204
a(I15
S'det'
p2205
I14
tp2206
a(I12
S'nmod'
p2207
I15
tp2208
a(I18
S'case'
p2209
I16
tp2210
a(I18
S'det'
p2211
I17
tp2212
a(I15
S'nmod'
p2213
I18
tp2214
a(I18
S'cc'
p2215
I19
tp2216
a(I21
S'amod'
p2217
I20
tp2218
a(I18
S'conj:und'
p2219
I21
tp2220
a(I24
S'det'
p2221
I22
tp2222
a(I24
S'amod'
p2223
I23
tp2224
a(I21
S'det'
p2225
I24
tp2226
a(I24
S'appos'
p2227
I25
tp2228
a(I25
S'appos'
p2229
I26
tp2230
a(I26
S'punct'
p2231
I27
tp2232
a(I26
S'conj'
p2233
I28
tp2234
a(I25
S'cc'
p2235
I29
tp2236
a(I33
S'dobj'
p2237
I30
tp2238
a(I30
S'punct'
p2239
I31
tp2240
a(I30
S'nmod'
p2241
I32
tp2242
a(I25
S'conj:und'
p2243
I33
tp2244
a(I3
S'punct'
p2245
I34
tp2246
aa(lp2247
(I1
g3
I1
tp2248
a(I1
S'compound'
p2249
I0
tp2250
a(I1
S'punct'
p2251
I2
tp2252
a(I14
S'nsubj'
p2253
I3
tp2254
a(I14
S'aux'
p2255
I4
tp2256
a(I6
S'det'
p2257
I5
tp2258
a(I14
S'dobj'
p2259
I6
tp2260
a(I8
S'det'
p2261
I7
tp2262
a(I6
S'det'
p2263
I8
tp2264
a(I14
S'advmod'
p2265
I9
tp2266
a(I13
S'det'
p2267
I10
tp2268
a(I13
S'det'
p2269
I11
tp2270
a(I13
S'amod'
p2271
I12
tp2272
a(I14
S'dobj'
p2273
I13
tp2274
a(I1
S'parataxis'
p2275
I14
tp2276
a(I1
S'punct'
p2277
I15
tp2278
aa(lp2279
(I4
g3
I4
tp2280
a(I1
S'advmod'
p2281
I0
tp2282
a(I4
S'advmod'
p2283
I1
tp2284
a(I4
S'aux'
p2285
I2
tp2286
a(I4
S'nsubj'
p2287
I3
tp2288
a(I4
S'dep'
p2289
I5
tp2290
a(I8
S'case'
p2291
I6
tp2292
a(I8
S'det'
p2293
I7
tp2294
a(I5
S'nmod'
p2295
I8
tp2296
a(I11
S'case'
p2297
I9
tp2298
a(I11
S'compound'
p2299
I10
tp2300
a(I8
S'nmod'
p2301
I11
tp2302
a(I15
S'case'
p2303
I12
tp2304
a(I15
S'det'
p2305
I13
tp2306
a(I15
S'amod'
p2307
I14
tp2308
a(I5
S'nmod'
p2309
I15
tp2310
a(I17
S'det'
p2311
I16
tp2312
a(I15
S'det'
p2313
I17
tp2314
a(I5
S'punct'
p2315
I18
tp2316
aa(lp2317
(I7
g3
I7
tp2318
a(I7
S'advmod'
p2319
I0
tp2320
a(I7
S'aux'
p2321
I1
tp2322
a(I7
S'advmod'
p2323
I2
tp2324
a(I7
S'det'
p2325
I3
tp2326
a(I7
S'nmod'
p2327
I4
tp2328
a(I6
S'advmod'
p2329
I5
tp2330
a(I7
S'amod'
p2331
I6
tp2332
a(I7
S'punct'
p2333
I8
tp2334
aa(lp2335
(I5
g3
I5
tp2336
a(I5
S'nsubj'
p2337
I0
tp2338
a(I5
S'aux'
p2339
I1
tp2340
a(I5
S'dep'
p2341
I2
tp2342
a(I4
S'det'
p2343
I3
tp2344
a(I2
S'dep'
p2345
I4
tp2346
a(I5
S'punct'
p2347
I6
tp2348
a(I9
S'det'
p2349
I7
tp2350
a(I9
S'amod'
p2351
I8
tp2352
a(I5
S'det'
p2353
I9
tp2354
a(I11
S'amod'
p2355
I10
tp2356
a(I11
S'amod'
p2357
I11
tp2358
a(I16
S'amod'
p2359
I11
tp2360
a(I14
S'amod'
p2361
I12
tp2362
a(I14
S'punct'
p2363
I13
tp2364
a(I14
S'amod'
p2365
I14
tp2366
a(I16
S'amod'
p2367
I14
tp2368
a(I14
S'punct'
p2369
I15
tp2370
a(I9
S'appos'
p2371
I16
tp2372
a(I9
S'cop'
p2373
I17
tp2374
a(I5
S'punct'
p2375
I18
tp2376
aa(lp2377
(I2
g3
I2
tp2378
a(I2
S'nsubj'
p2379
I0
tp2380
a(I2
S'aux'
p2381
I1
tp2382
a(I2
S'punct'
p2383
I3
tp2384
a(I22
S'mark'
p2385
I4
tp2386
a(I6
S'det'
p2387
I5
tp2388
a(I4
S'conj'
p2389
I6
tp2390
a(I9
S'name'
p2391
I7
tp2392
a(I7
S'punct'
p2393
I8
tp2394
a(I6
S'appos'
p2395
I9
tp2396
a(I9
S'punct'
p2397
I10
tp2398
a(I4
S'cc'
p2399
I11
tp2400
a(I13
S'punct'
p2401
I12
tp2402
a(I4
S'conj:und'
p2403
I13
tp2404
a(I13
S'dobj'
p2405
I14
tp2406
a(I16
S'det'
p2407
I15
tp2408
a(I14
S'dep'
p2409
I16
tp2410
a(I4
S'punct'
p2411
I17
tp2412
a(I19
S'acl'
p2413
I18
tp2414
a(I22
S'nsubj'
p2415
I19
tp2416
a(I21
S'det'
p2417
I20
tp2418
a(I22
S'iobj'
p2419
I21
tp2420
a(I2
S'dep'
p2421
I22
tp2422
a(I22
S'punct'
p2423
I23
tp2424
a(I27
S'mark'
p2425
I24
tp2426
a(I27
S'nsubj'
p2427
I25
tp2428
a(I27
S'advmod'
p2429
I26
tp2430
a(I22
S'ccomp'
p2431
I27
tp2432
a(I27
S'cop'
p2433
I28
tp2434
a(I22
S'punct'
p2435
I29
tp2436
aa(lp2437
(I3
g3
I3
tp2438
a(I3
S'nsubj'
p2439
I0
tp2440
a(I3
S'cop'
p2441
I1
tp2442
a(I3
S'det'
p2443
I2
tp2444
a(I3
S'punct'
p2445
I4
tp2446
a(I11
S'mark'
p2447
I5
tp2448
a(I11
S'nsubj'
p2449
I6
tp2450
a(I11
S'advmod'
p2451
I7
tp2452
a(I10
S'det'
p2453
I8
tp2454
a(I10
S'amod'
p2455
I9
tp2456
a(I11
S'nsubjpass'
p2457
I10
tp2458
a(I3
S'advcl'
p2459
I11
tp2460
a(I11
S'cop'
p2461
I12
tp2462
a(I11
S'punct'
p2463
I13
tp2464
a(I18
S'nsubj'
p2465
I14
tp2466
a(I17
S'det'
p2467
I15
tp2468
a(I17
S'amod'
p2469
I16
tp2470
a(I18
S'dobj'
p2471
I17
tp2472
a(I11
S'acl'
p2473
I18
tp2474
a(I18
S'aux'
p2475
I19
tp2476
a(I11
S'punct'
p2477
I20
tp2478
aa(lp2479
(I2
g3
I2
tp2480
a(I1
S'det'
p2481
I0
tp2482
a(I2
S'iobj'
p2483
I1
tp2484
a(I2
S'expl'
p2485
I3
tp2486
a(I2
S'neg'
p2487
I4
tp2488
a(I6
S'det'
p2489
I5
tp2490
a(I2
S'dobj'
p2491
I6
tp2492
a(I8
S'case'
p2493
I7
tp2494
a(I6
S'nmod'
p2495
I8
tp2496
a(I11
S'case'
p2497
I9
tp2498
a(I11
S'amod'
p2499
I10
tp2500
a(I6
S'nmod'
p2501
I11
tp2502
a(I2
S'punct'
p2503
I12
tp2504
aa(lp2505
(I2
g3
I2
tp2506
a(I1
S'det'
p2507
I0
tp2508
a(I2
S'nsubj'
p2509
I1
tp2510
a(I2
S'punct'
p2511
I3
tp2512
a(I7
S'aux'
p2513
I4
tp2514
a(I6
S'det'
p2515
I5
tp2516
a(I7
S'dobj'
p2517
I6
tp2518
a(I2
S'parataxis'
p2519
I7
tp2520
a(I2
S'punct'
p2521
I8
tp2522
aa(lp2523
(I9
g3
I9
tp2524
a(I9
S'mark'
p2525
I0
tp2526
a(I9
S'nsubj'
p2527
I1
tp2528
a(I9
S'dobj'
p2529
I2
tp2530
a(I4
S'advmod'
p2531
I3
tp2532
a(I9
S'advmod'
p2533
I4
tp2534
a(I8
S'case'
p2535
I5
tp2536
a(I8
S'det'
p2537
I6
tp2538
a(I8
S'amod'
p2539
I7
tp2540
a(I9
S'nmod'
p2541
I8
tp2542
a(I14
S'punct'
p2543
I10
tp2544
a(I14
S'nsubj'
p2545
I11
tp2546
a(I14
S'cop'
p2547
I12
tp2548
a(I14
S'det'
p2549
I13
tp2550
a(I9
S'dep'
p2551
I14
tp2552
a(I16
S'det'
p2553
I15
tp2554
a(I14
S'det'
p2555
I16
tp2556
a(I14
S'punct'
p2557
I17
tp2558
aa(lp2559
(I0
g3
I0
tp2560
a(I0
S'mwe'
p2561
I1
tp2562
a(I3
S'neg'
p2563
I2
tp2564
a(I6
S'mwe'
p2565
I3
tp2566
a(I6
S'case'
p2567
I4
tp2568
a(I6
S'det'
p2569
I5
tp2570
a(I1
S'case'
p2571
I6
tp2572
a(I6
S'mwe'
p2573
I7
tp2574
a(I7
S'nsubj'
p2575
I8
tp2576
a(I8
S'amod'
p2577
I9
tp2578
a(I9
S'det'
p2579
I10
tp2580
a(I10
S'advmod'
p2581
I11
tp2582
a(I11
S'punct'
p2583
I12
tp2584
a(I14
S'amod'
p2585
I13
tp2586
a(I12
S'det'
p2587
I14
tp2588
a(I14
S'advmod'
p2589
I15
tp2590
a(I9
S'punct'
p2591
I16
tp2592
a(I9
S'cc'
p2593
I17
tp2594
a(I25
S'advmod'
p2595
I18
tp2596
a(I25
S'case'
p2597
I19
tp2598
a(I21
S'det'
p2599
I20
tp2600
a(I19
S'dep'
p2601
I21
tp2602
a(I25
S'det'
p2603
I22
tp2604
a(I25
S'det'
p2605
I23
tp2606
a(I25
S'amod'
p2607
I24
tp2608
a(I9
S'conj:sondern'
p2609
I25
tp2610
a(I9
S'punct'
p2611
I26
tp2612
aa(lp2613
(I2
g3
I2
tp2614
a(I2
S'nsubj'
p2615
I0
tp2616
a(I2
S'aux'
p2617
I1
tp2618
a(I2
S'punct'
p2619
I3
tp2620
a(I10
S'mark'
p2621
I4
tp2622
a(I4
S'dep'
p2623
I5
tp2624
a(I7
S'det'
p2625
I6
tp2626
a(I4
S'nmod'
p2627
I7
tp2628
a(I9
S'det'
p2629
I8
tp2630
a(I9
S'amod'
p2631
I9
tp2632
a(I10
S'nsubj'
p2633
I9
tp2634
a(I2
S'advcl'
p2635
I10
tp2636
a(I10
S'cop'
p2637
I11
tp2638
a(I10
S'punct'
p2639
I12
tp2640
a(I14
S'det'
p2641
I13
tp2642
a(I29
S'nsubjpass'
p2643
I14
tp2644
a(I16
S'case'
p2645
I15
tp2646
a(I14
S'nmod'
p2647
I16
tp2648
a(I16
S'conj'
p2649
I17
tp2650
a(I16
S'cc'
p2651
I18
tp2652
a(I16
S'conj:und'
p2653
I19
tp2654
a(I22
S'det'
p2655
I20
tp2656
a(I22
S'amod'
p2657
I21
tp2658
a(I19
S'det'
p2659
I22
tp2660
a(I24
S'amod'
p2661
I23
tp2662
a(I22
S'det'
p2663
I24
tp2664
a(I26
S'det'
p2665
I25
tp2666
a(I22
S'det'
p2667
I26
tp2668
a(I28
S'case'
p2669
I27
tp2670
a(I26
S'nmod'
p2671
I28
tp2672
a(I10
S'conj'
p2673
I29
tp2674
a(I29
S'punct'
p2675
I30
tp2676
a(I40
S'advmod'
p2677
I31
tp2678
a(I34
S'neg'
p2679
I32
tp2680
a(I34
S'amod'
p2681
I33
tp2682
a(I40
S'iobj'
p2683
I34
tp2684
a(I37
S'case'
p2685
I35
tp2686
a(I37
S'det'
p2687
I36
tp2688
a(I40
S'nmod'
p2689
I37
tp2690
a(I39
S'case'
p2691
I38
tp2692
a(I40
S'nmod'
p2693
I39
tp2694
a(I29
S'acl'
p2695
I40
tp2696
a(I40
S'punct'
p2697
I41
tp2698
a(I44
S'case'
p2699
I42
tp2700
a(I44
S'det'
p2701
I43
tp2702
a(I45
S'nmod'
p2703
I44
tp2704
a(I40
S'conj'
p2705
I45
tp2706
a(I45
S'auxpass'
p2707
I46
tp2708
a(I2
S'punct'
p2709
I47
tp2710
aa(lp2711
(I2
g3
I2
tp2712
a(I2
S'nsubj'
p2713
I0
tp2714
a(I2
S'aux'
p2715
I1
tp2716
a(I2
S'punct'
p2717
I3
tp2718
a(I8
S'amod'
p2719
I4
tp2720
a(I8
S'punct'
p2721
I5
tp2722
a(I7
S'nmod'
p2723
I6
tp2724
a(I8
S'amod'
p2725
I7
tp2726
a(I24
S'dobj'
p2727
I8
tp2728
a(I11
S'case'
p2729
I9
tp2730
a(I11
S'det'
p2731
I10
tp2732
a(I8
S'nmod'
p2733
I11
tp2734
a(I13
S'case'
p2735
I12
tp2736
a(I11
S'nmod'
p2737
I13
tp2738
a(I13
S'cc'
p2739
I14
tp2740
a(I16
S'det'
p2741
I15
tp2742
a(I13
S'conj:und'
p2743
I16
tp2744
a(I18
S'det'
p2745
I17
tp2746
a(I18
S'amod'
p2747
I18
tp2748
a(I16
S'det'
p2749
I18
tp2750
a(I18
S'cop'
p2751
I19
tp2752
a(I18
S'name'
p2753
I20
tp2754
a(I23
S'nmod:poss'
p2755
I21
tp2756
a(I23
S'amod'
p2757
I22
tp2758
a(I18
S'det'
p2759
I23
tp2760
a(I2
S'conj'
p2761
I24
tp2762
a(I2
S'punct'
p2763
I25
tp2764
aa(lp2765
(I13
g3
I13
tp2766
a(I10
S'mark'
p2767
I0
tp2768
a(I10
S'nsubj'
p2769
I1
tp2770
a(I10
S'advmod'
p2771
I2
tp2772
a(I5
S'case'
p2773
I3
tp2774
a(I5
S'det'
p2775
I4
tp2776
a(I10
S'nmod'
p2777
I5
tp2778
a(I7
S'det'
p2779
I6
tp2780
a(I7
S'amod'
p2781
I7
tp2782
a(I5
S'det'
p2783
I7
tp2784
a(I9
S'det'
p2785
I8
tp2786
a(I10
S'dobj'
p2787
I9
tp2788
a(I13
S'advcl'
p2789
I10
tp2790
a(I10
S'aux'
p2791
I11
tp2792
a(I10
S'punct'
p2793
I12
tp2794
a(I13
S'nsubj'
p2795
I14
tp2796
a(I16
S'amod'
p2797
I15
tp2798
a(I14
S'compound'
p2799
I16
tp2800
a(I16
S'cc'
p2801
I17
tp2802
a(I24
S'iobj'
p2803
I18
tp2804
a(I21
S'case'
p2805
I19
tp2806
a(I21
S'det'
p2807
I20
tp2808
a(I18
S'nmod'
p2809
I21
tp2810
a(I23
S'det'
p2811
I22
tp2812
a(I24
S'dobj'
p2813
I23
tp2814
a(I16
S'conj:und'
p2815
I24
tp2816
a(I24
S'aux'
p2817
I25
tp2818
a(I24
S'punct'
p2819
I26
tp2820
a(I34
S'advmod'
p2821
I27
tp2822
a(I29
S'advmod'
p2823
I28
tp2824
a(I27
S'neg'
p2825
I29
tp2826
a(I31
S'case'
p2827
I30
tp2828
a(I27
S'nmod'
p2829
I31
tp2830
a(I34
S'nsubj'
p2831
I32
tp2832
a(I34
S'dobj'
p2833
I33
tp2834
a(I24
S'advcl'
p2835
I34
tp2836
a(I34
S'punct'
p2837
I35
tp2838
a(I42
S'mark'
p2839
I36
tp2840
a(I38
S'det'
p2841
I37
tp2842
a(I42
S'nsubj'
p2843
I38
tp2844
a(I42
S'advmod'
p2845
I39
tp2846
a(I41
S'det'
p2847
I40
tp2848
a(I42
S'dobj'
p2849
I41
tp2850
a(I34
S'ccomp'
p2851
I42
tp2852
a(I42
S'aux'
p2853
I43
tp2854
a(I34
S'punct'
p2855
I44
tp2856
a(I55
S'nsubjpass'
p2857
I45
tp2858
a(I48
S'case'
p2859
I46
tp2860
a(I48
S'det'
p2861
I47
tp2862
a(I55
S'nmod'
p2863
I48
tp2864
a(I50
S'det'
p2865
I49
tp2866
a(I48
S'det'
p2867
I50
tp2868
a(I48
S'conj'
p2869
I51
tp2870
a(I51
S'cc'
p2871
I52
tp2872
a(I51
S'conj:einem'
p2873
I53
tp2874
a(I55
S'aux'
p2875
I54
tp2876
a(I34
S'acl'
p2877
I55
tp2878
a(I55
S'auxpass'
p2879
I56
tp2880
a(I55
S'aux'
p2881
I57
tp2882
a(I34
S'punct'
p2883
I58
tp2884
aa(lp2885
(I6
g3
I6
tp2886
a(I1
S'det'
p2887
I0
tp2888
a(I6
S'amod'
p2889
I1
tp2890
a(I6
S'cop'
p2891
I2
tp2892
a(I5
S'case'
p2893
I3
tp2894
a(I5
S'det'
p2895
I4
tp2896
a(I6
S'nmod'
p2897
I5
tp2898
a(I6
S'punct'
p2899
I7
tp2900
a(I6
S'cc'
p2901
I8
tp2902
a(I11
S'advmod'
p2903
I9
tp2904
a(I11
S'advmod'
p2905
I10
tp2906
a(I12
S'amod'
p2907
I11
tp2908
a(I6
S'conj:und'
p2909
I12
tp2910
a(I15
S'case'
p2911
I13
tp2912
a(I15
S'amod'
p2913
I14
tp2914
a(I12
S'nmod'
p2915
I15
tp2916
a(I6
S'punct'
p2917
I16
tp2918
aa(lp2919
(I6
g3
I6
tp2920
a(I6
S'nsubj'
p2921
I0
tp2922
a(I6
S'aux'
p2923
I1
tp2924
a(I6
S'dobj'
p2925
I2
tp2926
a(I5
S'advmod'
p2927
I3
tp2928
a(I5
S'det'
p2929
I4
tp2930
a(I6
S'iobj'
p2931
I5
tp2932
a(I6
S'punct'
p2933
I7
tp2934
a(I6
S'advcl'
p2935
I8
tp2936
a(I8
S'case'
p2937
I9
tp2938
a(I11
S'det'
p2939
I10
tp2940
a(I9
S'dep'
p2941
I11
tp2942
a(I11
S'punct'
p2943
I12
tp2944
a(I18
S'mark'
p2945
I13
tp2946
a(I18
S'iobj'
p2947
I14
tp2948
a(I16
S'amod'
p2949
I15
tp2950
a(I18
S'iobj'
p2951
I16
tp2952
a(I18
S'neg'
p2953
I17
tp2954
a(I20
S'advcl'
p2955
I18
tp2956
a(I18
S'punct'
p2957
I19
tp2958
a(I21
S'xcomp'
p2959
I20
tp2960
a(I11
S'conj'
p2961
I21
tp2962
a(I11
S'punct'
p2963
I22
tp2964
a(I25
S'mark'
p2965
I23
tp2966
a(I25
S'dobj'
p2967
I24
tp2968
a(I11
S'conj'
p2969
I25
tp2970
a(I25
S'punct'
p2971
I26
tp2972
a(I30
S'nsubj'
p2973
I27
tp2974
a(I30
S'advmod'
p2975
I28
tp2976
a(I30
S'advmod'
p2977
I29
tp2978
a(I25
S'acl'
p2979
I30
tp2980
a(I30
S'cop'
p2981
I31
tp2982
a(I30
S'punct'
p2983
I32
tp2984
a(I34
S'neg'
p2985
I33
tp2986
a(I30
S'cc'
p2987
I34
tp2988
a(I36
S'case'
p2989
I35
tp2990
a(I37
S'nmod'
p2991
I36
tp2992
a(I30
S'conj:nachteilig'
p2993
I37
tp2994
a(I37
S'punct'
p2995
I38
tp2996
a(I37
S'cc'
p2997
I39
tp2998
a(I42
S'case'
p2999
I40
tp3000
a(I42
S'amod'
p3001
I41
tp3002
a(I37
S'dep'
p3003
I42
tp3004
a(I42
S'cop'
p3005
I43
tp3006
a(I42
S'punct'
p3007
I44
tp3008
aa(lp3009
(I25
g3
I25
tp3010
a(I1
S'amod'
p3011
I0
tp3012
a(I25
S'expl'
p3013
I1
tp3014
a(I6
S'aux'
p3015
I2
tp3016
a(I6
S'expl'
p3017
I3
tp3018
a(I6
S'iobj'
p3019
I4
tp3020
a(I6
S'neg'
p3021
I5
tp3022
a(I1
S'det'
p3023
I6
tp3024
a(I1
S'punct'
p3025
I7
tp3026
a(I10
S'mark'
p3027
I8
tp3028
a(I10
S'nsubj'
p3029
I9
tp3030
a(I25
S'advcl'
p3031
I10
tp3032
a(I10
S'punct'
p3033
I11
tp3034
a(I14
S'mark'
p3035
I12
tp3036
a(I14
S'iobj'
p3037
I13
tp3038
a(I10
S'ccomp'
p3039
I14
tp3040
a(I14
S'cop'
p3041
I15
tp3042
a(I14
S'auxpass'
p3043
I16
tp3044
a(I10
S'punct'
p3045
I17
tp3046
a(I20
S'case'
p3047
I18
tp3048
a(I20
S'nmod:poss'
p3049
I19
tp3050
a(I25
S'nmod'
p3051
I20
tp3052
a(I25
S'nsubj'
p3053
I21
tp3054
a(I24
S'case'
p3055
I22
tp3056
a(I24
S'nummod'
p3057
I23
tp3058
a(I25
S'nmod'
p3059
I24
tp3060
a(I25
S'aux'
p3061
I26
tp3062
a(I25
S'punct'
p3063
I27
tp3064
a(I34
S'mark'
p3065
I28
tp3066
a(I34
S'nsubj'
p3067
I29
tp3068
a(I34
S'dobj'
p3069
I30
tp3070
a(I32
S'iobj'
p3071
I31
tp3072
a(I33
S'nummod'
p3073
I32
tp3074
a(I34
S'advmod'
p3075
I33
tp3076
a(I25
S'advcl'
p3077
I34
tp3078
a(I34
S'aux'
p3079
I35
tp3080
a(I34
S'punct'
p3081
I36
tp3082
a(I34
S'cc'
p3083
I37
tp3084
a(I53
S'case'
p3085
I38
tp3086
a(I53
S'dobj'
p3087
I39
tp3088
a(I53
S'nsubj'
p3089
I40
tp3090
a(I53
S'nmod'
p3091
I41
tp3092
a(I43
S'advmod'
p3093
I42
tp3094
a(I53
S'advmod'
p3095
I43
tp3096
a(I53
S'dobj'
p3097
I44
tp3098
a(I49
S'case'
p3099
I45
tp3100
a(I49
S'det'
p3101
I46
tp3102
a(I48
S'iobj'
p3103
I47
tp3104
a(I49
S'amod'
p3105
I48
tp3106
a(I53
S'nmod'
p3107
I49
tp3108
a(I52
S'case'
p3109
I50
tp3110
a(I52
S'det'
p3111
I51
tp3112
a(I49
S'nmod'
p3113
I52
tp3114
a(I34
S'amod'
p3115
I53
tp3116
a(I53
S'aux'
p3117
I54
tp3118
a(I53
S'punct'
p3119
I55
tp3120
aa(lp3121
(I2
g3
I2
tp3122
a(I1
S'det'
p3123
I0
tp3124
a(I2
S'nsubj'
p3125
I1
tp3126
a(I4
S'amod'
p3127
I3
tp3128
a(I2
S'iobj'
p3129
I4
tp3130
a(I2
S'punct'
p3131
I5
tp3132
a(I10
S'nsubj'
p3133
I6
tp3134
a(I8
S'det'
p3135
I7
tp3136
a(I10
S'dobj'
p3137
I8
tp3138
a(I10
S'neg'
p3139
I9
tp3140
a(I2
S'conj'
p3141
I10
tp3142
a(I10
S'aux'
p3143
I11
tp3144
a(I10
S'punct'
p3145
I12
tp3146
a(I10
S'cc'
p3147
I13
tp3148
a(I15
S'advmod'
p3149
I14
tp3150
a(I10
S'conj:und'
p3151
I15
tp3152
a(I15
S'advmod'
p3153
I16
tp3154
a(I18
S'det'
p3155
I17
tp3156
a(I15
S'dobj'
p3157
I18
tp3158
a(I2
S'punct'
p3159
I19
tp3160
aa(lp3161
(I0
g3
I0
tp3162
a(I2
S'det'
p3163
I1
tp3164
a(I0
S'nsubj'
p3165
I2
tp3166
a(I4
S'case'
p3167
I3
tp3168
a(I2
S'nmod'
p3169
I4
tp3170
a(I7
S'case'
p3171
I5
tp3172
a(I7
S'det'
p3173
I6
tp3174
a(I4
S'nmod'
p3175
I7
tp3176
a(I10
S'case'
p3177
I8
tp3178
a(I10
S'amod'
p3179
I9
tp3180
a(I7
S'nmod'
p3181
I10
tp3182
a(I10
S'punct'
p3183
I11
tp3184
a(I10
S'acl'
p3185
I12
tp3186
a(I14
S'cop'
p3187
I13
tp3188
a(I12
S'case'
p3189
I14
tp3190
a(I16
S'det'
p3191
I15
tp3192
a(I14
S'dep'
p3193
I16
tp3194
a(I18
S'det'
p3195
I17
tp3196
a(I16
S'det'
p3197
I18
tp3198
a(I0
S'punct'
p3199
I19
tp3200
aa(lp3201
(I13
g3
I13
tp3202
a(I2
S'case'
p3203
I0
tp3204
a(I2
S'det'
p3205
I1
tp3206
a(I13
S'advmod'
p3207
I2
tp3208
a(I13
S'auxpass'
p3209
I3
tp3210
a(I13
S'advmod'
p3211
I4
tp3212
a(I7
S'det'
p3213
I5
tp3214
a(I7
S'amod'
p3215
I6
tp3216
a(I13
S'nsubjpass'
p3217
I7
tp3218
a(I7
S'cc'
p3219
I8
tp3220
a(I10
S'det'
p3221
I9
tp3222
a(I7
S'conj:und'
p3223
I10
tp3224
a(I13
S'aux'
p3225
I11
tp3226
a(I13
S'advmod'
p3227
I12
tp3228
a(I13
S'punct'
p3229
I14
tp3230
a(I30
S'mark'
p3231
I15
tp3232
a(I17
S'det'
p3233
I16
tp3234
a(I30
S'nsubj'
p3235
I17
tp3236
a(I20
S'det'
p3237
I18
tp3238
a(I20
S'amod'
p3239
I19
tp3240
a(I17
S'det'
p3241
I20
tp3242
a(I22
S'det'
p3243
I21
tp3244
a(I30
S'dobj'
p3245
I22
tp3246
a(I24
S'det'
p3247
I23
tp3248
a(I22
S'det'
p3249
I24
tp3250
a(I22
S'punct'
p3251
I25
tp3252
a(I27
S'advmod'
p3253
I26
tp3254
a(I25
S'dep'
p3255
I27
tp3256
a(I27
S'nsubj'
p3257
I28
tp3258
a(I27
S'punct'
p3259
I29
tp3260
a(I13
S'advcl'
p3261
I30
tp3262
a(I30
S'aux'
p3263
I31
tp3264
a(I13
S'punct'
p3265
I32
tp3266
aa(lp3267
(I14
g3
I14
tp3268
a(I1
S'det'
p3269
I0
tp3270
a(I14
S'nsubj'
p3271
I1
tp3272
a(I4
S'det'
p3273
I2
tp3274
a(I4
S'amod'
p3275
I3
tp3276
a(I1
S'det'
p3277
I4
tp3278
a(I1
S'punct'
p3279
I5
tp3280
a(I8
S'det'
p3281
I6
tp3282
a(I8
S'amod'
p3283
I7
tp3284
a(I1
S'conj'
p3285
I8
tp3286
a(I1
S'cc'
p3287
I9
tp3288
a(I11
S'det'
p3289
I10
tp3290
a(I1
S'conj:und'
p3291
I11
tp3292
a(I13
S'amod'
p3293
I12
tp3294
a(I11
S'det'
p3295
I13
tp3296
a(I14
S'advmod'
p3297
I15
tp3298
a(I18
S'case'
p3299
I16
tp3300
a(I18
S'det'
p3301
I17
tp3302
a(I14
S'nmod'
p3303
I18
tp3304
a(I14
S'punct'
p3305
I19
tp3306
a(I21
S'case'
p3307
I20
tp3308
a(I30
S'nmod'
p3309
I21
tp3310
a(I27
S'det'
p3311
I22
tp3312
a(I27
S'name'
p3313
I23
tp3314
a(I23
S'punct'
p3315
I24
tp3316
a(I23
S'cc'
p3317
I25
tp3318
a(I23
S'conj:und'
p3319
I26
tp3320
a(I30
S'iobj'
p3321
I27
tp3322
a(I29
S'det'
p3323
I28
tp3324
a(I30
S'dobj'
p3325
I29
tp3326
a(I14
S'conj'
p3327
I30
tp3328
a(I14
S'punct'
p3329
I31
tp3330
aa(lp3331
(I2
g3
I2
tp3332
a(I2
S'det'
p3333
I0
tp3334
a(I2
S'amod'
p3335
I1
tp3336
a(I2
S'cop'
p3337
I3
tp3338
a(I5
S'det'
p3339
I4
tp3340
a(I3
S'dep'
p3341
I5
tp3342
a(I7
S'case'
p3343
I6
tp3344
a(I5
S'nmod'
p3345
I7
tp3346
a(I9
S'case'
p3347
I8
tp3348
a(I7
S'nmod'
p3349
I9
tp3350
a(I7
S'case'
p3351
I10
tp3352
a(I10
S'appos'
p3353
I11
tp3354
a(I2
S'punct'
p3355
I12
tp3356
a(I15
S'nsubj'
p3357
I13
tp3358
a(I15
S'dobj'
p3359
I14
tp3360
a(I2
S'acl'
p3361
I15
tp3362
a(I15
S'cc'
p3363
I16
tp3364
a(I18
S'det'
p3365
I17
tp3366
a(I15
S'conj:und'
p3367
I18
tp3368
a(I20
S'det'
p3369
I19
tp3370
a(I18
S'det'
p3371
I20
tp3372
a(I22
S'det'
p3373
I21
tp3374
a(I20
S'det'
p3375
I22
tp3376
a(I20
S'nmod'
p3377
I23
tp3378
a(I15
S'cop'
p3379
I24
tp3380
a(I15
S'punct'
p3381
I25
tp3382
a(I28
S'advmod'
p3383
I26
tp3384
a(I26
S'punct'
p3385
I27
tp3386
a(I2
S'conj'
p3387
I28
tp3388
a(I28
S'punct'
p3389
I29
tp3390
a(I2
S'cc'
p3391
I30
tp3392
a(I32
S'advmod'
p3393
I31
tp3394
a(I33
S'amod'
p3395
I32
tp3396
a(I2
S'conj:und'
p3397
I33
tp3398
a(I36
S'case'
p3399
I34
tp3400
a(I36
S'det'
p3401
I35
tp3402
a(I33
S'nmod'
p3403
I36
tp3404
a(I38
S'det'
p3405
I37
tp3406
a(I36
S'det'
p3407
I38
tp3408
a(I41
S'case'
p3409
I39
tp3410
a(I41
S'det'
p3411
I40
tp3412
a(I36
S'nmod'
p3413
I41
tp3414
a(I43
S'det'
p3415
I42
tp3416
a(I41
S'det'
p3417
I43
tp3418
a(I43
S'cc'
p3419
I44
tp3420
a(I46
S'amod'
p3421
I45
tp3422
a(I43
S'conj:und'
p3423
I46
tp3424
a(I49
S'case'
p3425
I47
tp3426
a(I49
S'det'
p3427
I48
tp3428
a(I36
S'amod'
p3429
I49
tp3430
a(I49
S'cc'
p3431
I50
tp3432
a(I49
S'conj:und'
p3433
I51
tp3434
a(I53
S'det'
p3435
I52
tp3436
a(I49
S'det'
p3437
I53
tp3438
a(I49
S'punct'
p3439
I54
tp3440
aa(lp3441
(I10
g3
I10
tp3442
a(I1
S'advmod'
p3443
I0
tp3444
a(I8
S'mark'
p3445
I1
tp3446
a(I8
S'iobj'
p3447
I2
tp3448
a(I4
S'det'
p3449
I3
tp3450
a(I4
S'amod'
p3451
I4
tp3452
a(I8
S'nsubj'
p3453
I4
tp3454
a(I6
S'advmod'
p3455
I5
tp3456
a(I8
S'advmod'
p3457
I6
tp3458
a(I8
S'advmod'
p3459
I7
tp3460
a(I10
S'csubj'
p3461
I8
tp3462
a(I10
S'punct'
p3463
I9
tp3464
a(I10
S'expl'
p3465
I11
tp3466
a(I13
S'neg'
p3467
I12
tp3468
a(I10
S'dobj'
p3469
I13
tp3470
a(I13
S'punct'
p3471
I14
tp3472
a(I25
S'mark'
p3473
I15
tp3474
a(I19
S'det'
p3475
I16
tp3476
a(I19
S'amod'
p3477
I17
tp3478
a(I19
S'amod'
p3479
I18
tp3480
a(I25
S'nsubj'
p3481
I19
tp3482
a(I24
S'det'
p3483
I20
tp3484
a(I22
S'advmod'
p3485
I21
tp3486
a(I24
S'amod'
p3487
I22
tp3488
a(I24
S'amod'
p3489
I23
tp3490
a(I25
S'dobj'
p3491
I24
tp3492
a(I13
S'ccomp'
p3493
I25
tp3494
a(I10
S'punct'
p3495
I26
tp3496
aa(lp3497
(I30
g3
I30
tp3498
a(I1
S'compound'
p3499
I0
tp3500
a(I12
S'appos'
p3501
I1
tp3502
a(I1
S'punct'
p3503
I2
tp3504
a(I1
S'conj'
p3505
I3
tp3506
a(I3
S'advcl'
p3507
I4
tp3508
a(I4
S'cc'
p3509
I5
tp3510
a(I4
S'conj:und'
p3511
I6
tp3512
a(I1
S'punct'
p3513
I7
tp3514
a(I9
S'det'
p3515
I8
tp3516
a(I12
S'iobj'
p3517
I9
tp3518
a(I12
S'cop'
p3519
I10
tp3520
a(I12
S'det'
p3521
I11
tp3522
a(I14
S'mwe'
p3523
I12
tp3524
a(I12
S'punct'
p3525
I13
tp3526
a(I21
S'nsubjpass'
p3527
I14
tp3528
a(I14
S'dep'
p3529
I15
tp3530
a(I14
S'dep'
p3531
I16
tp3532
a(I21
S'advmod'
p3533
I17
tp3534
a(I20
S'case'
p3535
I18
tp3536
a(I20
S'amod'
p3537
I19
tp3538
a(I21
S'nmod'
p3539
I20
tp3540
a(I23
S'mwe'
p3541
I21
tp3542
a(I21
S'dep'
p3543
I22
tp3544
a(I24
S'advmod'
p3545
I23
tp3546
a(I30
S'appos'
p3547
I24
tp3548
a(I30
S'nsubj'
p3549
I25
tp3550
a(I27
S'amod'
p3551
I26
tp3552
a(I30
S'cop'
p3553
I27
tp3554
a(I30
S'det'
p3555
I28
tp3556
a(I30
S'amod'
p3557
I29
tp3558
a(I30
S'punct'
p3559
I31
tp3560
aa(lp3561
(I6
g3
I6
tp3562
a(I6
S'advmod'
p3563
I0
tp3564
a(I6
S'appos'
p3565
I1
tp3566
a(I1
S'dep'
p3567
I2
tp3568
a(I6
S'iobj'
p3569
I3
tp3570
a(I6
S'advmod'
p3571
I4
tp3572
a(I6
S'iobj'
p3573
I5
tp3574
a(I6
S'punct'
p3575
I7
tp3576
a(I9
S'det'
p3577
I8
tp3578
a(I13
S'nsubj'
p3579
I9
tp3580
a(I13
S'cop'
p3581
I10
tp3582
a(I13
S'det'
p3583
I11
tp3584
a(I13
S'amod'
p3585
I12
tp3586
a(I6
S'parataxis'
p3587
I13
tp3588
a(I13
S'punct'
p3589
I14
tp3590
a(I13
S'cc'
p3591
I15
tp3592
a(I17
S'nsubj'
p3593
I16
tp3594
a(I13
S'conj:und'
p3595
I17
tp3596
a(I17
S'case'
p3597
I18
tp3598
a(I18
S'nmod'
p3599
I19
tp3600
a(I22
S'det'
p3601
I20
tp3602
a(I22
S'amod'
p3603
I21
tp3604
a(I18
S'nsubj'
p3605
I22
tp3606
a(I22
S'conj'
p3607
I23
tp3608
a(I23
S'name'
p3609
I24
tp3610
a(I23
S'punct'
p3611
I25
tp3612
a(I23
S'punct'
p3613
I26
tp3614
a(I23
S'conj'
p3615
I27
tp3616
a(I23
S'punct'
p3617
I28
tp3618
a(I23
S'cc'
p3619
I29
tp3620
a(I23
S'conj:und'
p3621
I30
tp3622
a(I6
S'punct'
p3623
I31
tp3624
aa(lp3625
(I7
g3
I7
tp3626
a(I1
S'advmod'
p3627
I0
tp3628
a(I2
S'det'
p3629
I1
tp3630
a(I7
S'appos'
p3631
I2
tp3632
a(I7
S'aux'
p3633
I3
tp3634
a(I7
S'nsubj'
p3635
I4
tp3636
a(I7
S'advmod'
p3637
I5
tp3638
a(I7
S'dobj'
p3639
I6
tp3640
a(I7
S'cc'
p3641
I8
tp3642
a(I10
S'dobj'
p3643
I9
tp3644
a(I7
S'conj:und'
p3645
I10
tp3646
a(I7
S'punct'
p3647
I11
tp3648
aa(lp3649
(I1
g3
I1
tp3650
a(I1
S'nsubj'
p3651
I0
tp3652
a(I1
S'expl'
p3653
I2
tp3654
a(I1
S'advmod'
p3655
I3
tp3656
a(I1
S'dep'
p3657
I4
tp3658
a(I4
S'punct'
p3659
I5
tp3660
a(I9
S'mark'
p3661
I6
tp3662
a(I8
S'det'
p3663
I7
tp3664
a(I9
S'nsubj'
p3665
I8
tp3666
a(I11
S'advcl'
p3667
I9
tp3668
a(I11
S'advmod'
p3669
I10
tp3670
a(I4
S'xcomp'
p3671
I11
tp3672
a(I4
S'punct'
p3673
I12
tp3674
a(I16
S'advmod'
p3675
I13
tp3676
a(I15
S'det'
p3677
I14
tp3678
a(I16
S'nsubjpass'
p3679
I15
tp3680
a(I4
S'ccomp'
p3681
I16
tp3682
a(I16
S'auxpass'
p3683
I17
tp3684
a(I1
S'punct'
p3685
I18
tp3686
aa(lp3687
(I1
g3
I1
tp3688
a(I1
S'det'
p3689
I0
tp3690
a(I1
S'advmod'
p3691
I2
tp3692
a(I6
S'case'
p3693
I3
tp3694
a(I3
S'nmod'
p3695
I4
tp3696
a(I6
S'det'
p3697
I5
tp3698
a(I16
S'nmod'
p3699
I6
tp3700
a(I6
S'punct'
p3701
I7
tp3702
a(I10
S'advmod'
p3703
I8
tp3704
a(I10
S'det'
p3705
I9
tp3706
a(I6
S'conj'
p3707
I10
tp3708
a(I12
S'det'
p3709
I11
tp3710
a(I10
S'iobj'
p3711
I12
tp3712
a(I14
S'det'
p3713
I13
tp3714
a(I12
S'det'
p3715
I14
tp3716
a(I16
S'neg'
p3717
I15
tp3718
a(I1
S'cop'
p3719
I16
tp3720
a(I16
S'auxpass'
p3721
I17
tp3722
a(I1
S'punct'
p3723
I18
tp3724
aa(lp3725
(I1
g3
I1
tp3726
a(I1
S'nsubj'
p3727
I0
tp3728
a(I3
S'det'
p3729
I2
tp3730
a(I1
S'dobj'
p3731
I3
tp3732
a(I7
S'case'
p3733
I4
tp3734
a(I7
S'det'
p3735
I5
tp3736
a(I7
S'amod'
p3737
I6
tp3738
a(I3
S'nmod'
p3739
I7
tp3740
a(I7
S'punct'
p3741
I8
tp3742
a(I11
S'case'
p3743
I9
tp3744
a(I11
S'det'
p3745
I10
tp3746
a(I16
S'case'
p3747
I12
tp3748
a(I16
S'det'
p3749
I13
tp3750
a(I15
S'advmod'
p3751
I14
tp3752
a(I16
S'amod'
p3753
I15
tp3754
a(I7
S'nmod'
p3755
I16
tp3756
a(I19
S'case'
p3757
I17
tp3758
a(I19
S'det'
p3759
I18
tp3760
a(I7
S'nmod'
p3761
I19
tp3762
a(I7
S'punct'
p3763
I20
tp3764
a(I22
S'advmod'
p3765
I21
tp3766
a(I3
S'cc'
p3767
I22
tp3768
a(I22
S'advmod'
p3769
I23
tp3770
a(I25
S'advmod'
p3771
I24
tp3772
a(I27
S'amod'
p3773
I25
tp3774
a(I27
S'amod'
p3775
I26
tp3776
a(I7
S'conj'
p3777
I27
tp3778
a(I27
S'cc'
p3779
I28
tp3780
a(I27
S'conj:und'
p3781
I29
tp3782
a(I1
S'punct'
p3783
I30
tp3784
aa(lp3785
(I12
g3
I12
tp3786
a(I1
S'det'
p3787
I0
tp3788
a(I12
S'nsubjpass'
p3789
I1
tp3790
a(I3
S'det'
p3791
I2
tp3792
a(I1
S'det'
p3793
I3
tp3794
a(I5
S'case'
p3795
I4
tp3796
a(I1
S'nmod'
p3797
I5
tp3798
a(I7
S'det'
p3799
I6
tp3800
a(I5
S'det'
p3801
I7
tp3802
a(I11
S'case'
p3803
I8
tp3804
a(I11
S'det'
p3805
I9
tp3806
a(I11
S'amod'
p3807
I10
tp3808
a(I12
S'nmod'
p3809
I11
tp3810
a(I12
S'punct'
p3811
I13
tp3812
a(I15
S'advmod'
p3813
I14
tp3814
a(I12
S'acl'
p3815
I15
tp3816
a(I15
S'expl'
p3817
I16
tp3818
a(I15
S'punct'
p3819
I17
tp3820
a(I19
S'neg'
p3821
I18
tp3822
a(I15
S'ccomp'
p3823
I19
tp3824
a(I19
S'auxpass'
p3825
I20
tp3826
a(I12
S'punct'
p3827
I21
tp3828
aa(lp3829
(I7
g3
I7
tp3830
a(I3
S'case'
p3831
I0
tp3832
a(I3
S'det'
p3833
I1
tp3834
a(I3
S'amod'
p3835
I2
tp3836
a(I7
S'nmod'
p3837
I3
tp3838
a(I6
S'case'
p3839
I4
tp3840
a(I6
S'det'
p3841
I5
tp3842
a(I7
S'nmod'
p3843
I6
tp3844
a(I7
S'nsubj'
p3845
I8
tp3846
a(I7
S'advmod'
p3847
I9
tp3848
a(I12
S'det'
p3849
I10
tp3850
a(I12
S'amod'
p3851
I11
tp3852
a(I7
S'dobj'
p3853
I12
tp3854
a(I15
S'case'
p3855
I13
tp3856
a(I15
S'det'
p3857
I14
tp3858
a(I12
S'nmod'
p3859
I15
tp3860
a(I17
S'det'
p3861
I16
tp3862
a(I12
S'det'
p3863
I17
tp3864
a(I17
S'punct'
p3865
I18
tp3866
a(I17
S'cc'
p3867
I19
tp3868
a(I17
S'conj:und'
p3869
I20
tp3870
a(I7
S'punct'
p3871
I21
tp3872
aa(lp3873
(I1
g3
I1
tp3874
a(I1
S'advmod'
p3875
I0
tp3876
a(I3
S'det'
p3877
I2
tp3878
a(I1
S'nsubj'
p3879
I3
tp3880
a(I1
S'advmod'
p3881
I4
tp3882
a(I6
S'case'
p3883
I5
tp3884
a(I1
S'nmod'
p3885
I6
tp3886
a(I8
S'case'
p3887
I7
tp3888
a(I1
S'nmod'
p3889
I8
tp3890
a(I1
S'punct'
p3891
I9
tp3892
aa(lp3893
(I9
g3
I9
tp3894
a(I1
S'nummod'
p3895
I0
tp3896
a(I2
S'mwe'
p3897
I1
tp3898
a(I3
S'advmod'
p3899
I2
tp3900
a(I7
S'advmod'
p3901
I3
tp3902
a(I7
S'case'
p3903
I4
tp3904
a(I7
S'det'
p3905
I5
tp3906
a(I7
S'amod'
p3907
I6
tp3908
a(I8
S'nmod'
p3909
I7
tp3910
a(I9
S'neg'
p3911
I8
tp3912
a(I9
S'punct'
p3913
I10
tp3914
aa(lp3915
(I7
g3
I7
tp3916
a(I1
S'det'
p3917
I0
tp3918
a(I7
S'nmod'
p3919
I1
tp3920
a(I1
S'case'
p3921
I2
tp3922
a(I7
S'cop'
p3923
I3
tp3924
a(I5
S'det'
p3925
I4
tp3926
a(I7
S'iobj'
p3927
I5
tp3928
a(I7
S'advmod'
p3929
I6
tp3930
a(I7
S'punct'
p3931
I8
tp3932
aa(lp3933
(I2
g3
I2
tp3934
a(I1
S'det'
p3935
I0
tp3936
a(I2
S'nsubj'
p3937
I1
tp3938
a(I7
S'case'
p3939
I3
tp3940
a(I7
S'det'
p3941
I4
tp3942
a(I6
S'advmod'
p3943
I5
tp3944
a(I7
S'amod'
p3945
I6
tp3946
a(I2
S'nmod'
p3947
I7
tp3948
a(I2
S'punct'
p3949
I8
tp3950
a(I11
S'mark'
p3951
I9
tp3952
a(I11
S'dobj'
p3953
I10
tp3954
a(I2
S'advcl'
p3955
I11
tp3956
a(I2
S'punct'
p3957
I12
tp3958
a(I15
S'advmod'
p3959
I13
tp3960
a(I15
S'det'
p3961
I14
tp3962
a(I15
S'amod'
p3963
I15
tp3964
a(I2
S'conj'
p3965
I15
tp3966
a(I2
S'punct'
p3967
I16
tp3968
aa(lp3969
(I1
g3
I1
tp3970
a(I1
S'nsubj'
p3971
I0
tp3972
a(I4
S'case'
p3973
I2
tp3974
a(I4
S'appos'
p3975
I3
tp3976
a(I1
S'nmod'
p3977
I4
tp3978
a(I4
S'punct'
p3979
I5
tp3980
a(I4
S'cc'
p3981
I6
tp3982
a(I8
S'det'
p3983
I7
tp3984
a(I4
S'conj:und'
p3985
I8
tp3986
a(I10
S'case'
p3987
I9
tp3988
a(I8
S'nmod'
p3989
I10
tp3990
a(I13
S'case'
p3991
I11
tp3992
a(I13
S'det'
p3993
I12
tp3994
a(I8
S'amod'
p3995
I13
tp3996
a(I13
S'punct'
p3997
I14
tp3998
a(I22
S'xcomp'
p3999
I15
tp4000
a(I15
S'nmod'
p4001
I16
tp4002
a(I18
S'det'
p4003
I17
tp4004
a(I15
S'nmod'
p4005
I18
tp4006
a(I20
S'advmod'
p4007
I19
tp4008
a(I21
S'neg'
p4009
I20
tp4010
a(I15
S'dobj'
p4011
I21
tp4012
a(I13
S'acl'
p4013
I22
tp4014
a(I13
S'punct'
p4015
I23
tp4016
aa(lp4017
(I1
g3
I1
tp4018
a(I1
S'det'
p4019
I0
tp4020
a(I1
S'advmod'
p4021
I2
tp4022
a(I4
S'det'
p4023
I3
tp4024
a(I1
S'dobj'
p4025
I4
tp4026
a(I7
S'advmod'
p4027
I5
tp4028
a(I7
S'case'
p4029
I6
tp4030
a(I4
S'nmod'
p4031
I7
tp4032
a(I9
S'det'
p4033
I8
tp4034
a(I7
S'det'
p4035
I9
tp4036
a(I1
S'punct'
p4037
I10
tp4038
aa(lp4039
(I8
g3
I8
tp4040
a(I5
S'mark'
p4041
I0
tp4042
a(I2
S'det'
p4043
I1
tp4044
a(I5
S'nsubj'
p4045
I2
tp4046
a(I5
S'advmod'
p4047
I3
tp4048
a(I5
S'advmod'
p4049
I4
tp4050
a(I8
S'advcl'
p4051
I5
tp4052
a(I5
S'cop'
p4053
I6
tp4054
a(I8
S'punct'
p4055
I7
tp4056
a(I10
S'det'
p4057
I9
tp4058
a(I8
S'nsubj'
p4059
I10
tp4060
a(I8
S'punct'
p4061
I11
tp4062
a(I21
S'mark'
p4063
I12
tp4064
a(I21
S'nsubj'
p4065
I13
tp4066
a(I21
S'advmod'
p4067
I14
tp4068
a(I17
S'det'
p4069
I15
tp4070
a(I17
S'amod'
p4071
I16
tp4072
a(I21
S'dobj'
p4073
I17
tp4074
a(I20
S'case'
p4075
I18
tp4076
a(I20
S'det'
p4077
I19
tp4078
a(I21
S'nmod'
p4079
I20
tp4080
a(I8
S'advcl'
p4081
I21
tp4082
a(I21
S'aux'
p4083
I22
tp4084
a(I21
S'punct'
p4085
I23
tp4086
a(I25
S'advmod'
p4087
I24
tp4088
a(I21
S'cc'
p4089
I25
tp4090
a(I28
S'advmod'
p4091
I26
tp4092
a(I28
S'advmod'
p4093
I27
tp4094
a(I29
S'det'
p4095
I28
tp4096
a(I21
S'conj:aber'
p4097
I29
tp4098
a(I29
S'punct'
p4099
I30
tp4100
a(I32
S'case'
p4101
I31
tp4102
a(I29
S'appos'
p4103
I32
tp4104
a(I29
S'punct'
p4105
I33
tp4106
a(I35
S'name'
p4107
I34
tp4108
a(I29
S'appos'
p4109
I35
tp4110
a(I35
S'punct'
p4111
I36
tp4112
a(I40
S'case'
p4113
I37
tp4114
a(I39
S'amod'
p4115
I38
tp4116
a(I40
S'appos'
p4117
I39
tp4118
a(I35
S'nmod'
p4119
I40
tp4120
a(I21
S'punct'
p4121
I41
tp4122
aa(lp4123
(I1
g3
I1
tp4124
a(I1
S'nsubj'
p4125
I0
tp4126
a(I1
S'punct'
p4127
I2
tp4128
a(I12
S'mark'
p4129
I3
tp4130
a(I12
S'nsubj'
p4131
I4
tp4132
a(I12
S'iobj'
p4133
I5
tp4134
a(I12
S'advmod'
p4135
I6
tp4136
a(I11
S'amod'
p4137
I7
tp4138
a(I7
S'cc'
p4139
I8
tp4140
a(I10
S'advmod'
p4141
I9
tp4142
a(I7
S'conj:und'
p4143
I10
tp4144
a(I12
S'dobj'
p4145
I11
tp4146
a(I1
S'advcl'
p4147
I12
tp4148
a(I1
S'punct'
p4149
I13
tp4150
aa(lp4151
(I1
g3
I1
tp4152
a(I1
S'compound'
p4153
I0
tp4154
a(I1
S'punct'
p4155
I2
tp4156
a(I1
S'dep'
p4157
I3
tp4158
a(I1
S'dep'
p4159
I4
tp4160
a(I9
S'iobj'
p4161
I5
tp4162
a(I9
S'advmod'
p4163
I6
tp4164
a(I8
S'det'
p4165
I7
tp4166
a(I9
S'dobj'
p4167
I8
tp4168
a(I25
S'advcl'
p4169
I9
tp4170
a(I9
S'punct'
p4171
I10
tp4172
a(I12
S'det'
p4173
I11
tp4174
a(I9
S'cc'
p4175
I12
tp4176
a(I14
S'det'
p4177
I13
tp4178
a(I9
S'conj:kreis'
p4179
I14
tp4180
a(I14
S'cc'
p4181
I15
tp4182
a(I14
S'conj:und'
p4183
I16
tp4184
a(I14
S'cc'
p4185
I17
tp4186
a(I19
S'det'
p4187
I18
tp4188
a(I14
S'conj:und'
p4189
I19
tp4190
a(I9
S'punct'
p4191
I20
tp4192
a(I25
S'aux'
p4193
I21
tp4194
a(I25
S'nsubj'
p4195
I22
tp4196
a(I25
S'iobj'
p4197
I23
tp4198
a(I25
S'neg'
p4199
I24
tp4200
a(I1
S'xcomp'
p4201
I25
tp4202
a(I1
S'punct'
p4203
I26
tp4204
a(I29
S'dobj'
p4205
I27
tp4206
a(I29
S'nsubj'
p4207
I28
tp4208
a(I1
S'acl'
p4209
I29
tp4210
a(I32
S'neg'
p4211
I30
tp4212
a(I32
S'advmod'
p4213
I31
tp4214
a(I29
S'name'
p4215
I32
tp4216
a(I32
S'punct'
p4217
I33
tp4218
a(I32
S'parataxis'
p4219
I34
tp4220
a(I36
S'case'
p4221
I35
tp4222
a(I34
S'nmod'
p4223
I36
tp4224
a(I36
S'punct'
p4225
I37
tp4226
a(I36
S'conj'
p4227
I38
tp4228
a(I36
S'cc'
p4229
I39
tp4230
a(I36
S'conj:und'
p4231
I40
tp4232
a(I36
S'cc'
p4233
I41
tp4234
a(I36
S'conj:oder'
p4235
I42
tp4236
a(I46
S'case'
p4237
I43
tp4238
a(I45
S'advmod'
p4239
I44
tp4240
a(I46
S'amod'
p4241
I45
tp4242
a(I34
S'nmod'
p4243
I46
tp4244
a(I1
S'punct'
p4245
I47
tp4246
aa(lp4247
(I2
g3
I2
tp4248
a(I1
S'nmod:poss'
p4249
I0
tp4250
a(I2
S'nmod'
p4251
I1
tp4252
a(I4
S'det'
p4253
I3
tp4254
a(I2
S'nsubj'
p4255
I4
tp4256
a(I4
S'advmod'
p4257
I5
tp4258
a(I7
S'case'
p4259
I6
tp4260
a(I2
S'advmod'
p4261
I7
tp4262
a(I9
S'case'
p4263
I8
tp4264
a(I2
S'amod'
p4265
I9
tp4266
a(I9
S'punct'
p4267
I10
tp4268
a(I2
S'cc'
p4269
I11
tp4270
a(I2
S'conj:aber'
p4271
I12
tp4272
a(I12
S'nmod'
p4273
I13
tp4274
a(I12
S'nmod'
p4275
I14
tp4276
a(I12
S'neg'
p4277
I15
tp4278
a(I2
S'punct'
p4279
I16
tp4280
aa(lp4281
(I1
g3
I1
tp4282
a(I1
S'det'
p4283
I0
tp4284
a(I1
S'punct'
p4285
I2
tp4286
a(I1
S'conj'
p4287
I3
tp4288
a(I3
S'case'
p4289
I4
tp4290
a(I7
S'case'
p4291
I5
tp4292
a(I7
S'nsubj'
p4293
I6
tp4294
a(I4
S'amod'
p4295
I7
tp4296
a(I7
S'punct'
p4297
I8
tp4298
a(I10
S'name'
p4299
I9
tp4300
a(I7
S'conj'
p4301
I10
tp4302
a(I7
S'punct'
p4303
I11
tp4304
a(I7
S'conj'
p4305
I12
tp4306
a(I15
S'det'
p4307
I13
tp4308
a(I15
S'amod'
p4309
I14
tp4310
a(I12
S'dobj'
p4311
I15
tp4312
a(I7
S'punct'
p4313
I16
tp4314
aa(lp4315
(I1
g3
I1
tp4316
a(I1
S'nsubj'
p4317
I0
tp4318
a(I1
S'advmod'
p4319
I2
tp4320
a(I1
S'advmod'
p4321
I3
tp4322
a(I3
S'case'
p4323
I4
tp4324
a(I9
S'punct'
p4325
I5
tp4326
a(I7
S'case'
p4327
I6
tp4328
a(I9
S'nmod'
p4329
I7
tp4330
a(I7
S'conj'
p4331
I8
tp4332
a(I4
S'root'
p4333
I9
tp4334
a(I11
S'det'
p4335
I10
tp4336
a(I9
S'nsubj'
p4337
I11
tp4338
a(I9
S'advmod'
p4339
I12
tp4340
a(I9
S'mark'
p4341
I13
tp4342
a(I9
S'punct'
p4343
I14
tp4344
aa(lp4345
(I7
g3
I7
tp4346
a(I1
S'det'
p4347
I0
tp4348
a(I7
S'nsubjpass'
p4349
I1
tp4350
a(I1
S'advmod'
p4351
I2
tp4352
a(I4
S'case'
p4353
I3
tp4354
a(I2
S'nmod'
p4355
I4
tp4356
a(I1
S'advmod'
p4357
I5
tp4358
a(I7
S'auxpass'
p4359
I6
tp4360
a(I9
S'punct'
p4361
I8
tp4362
a(I7
S'root'
p4363
I9
tp4364
a(I9
S'dep'
p4365
I10
tp4366
a(I10
S'case'
p4367
I11
tp4368
a(I13
S'det'
p4369
I12
tp4370
a(I11
S'dep'
p4371
I13
tp4372
a(I13
S'nmod'
p4373
I14
tp4374
a(I13
S'punct'
p4375
I15
tp4376
aa.