(lp1
(lp2
(I0
S'ROOT'
p3
I0
tp4
a(I0
S'dep'
p5
I1
tp6
a(I0
S'punct'
p7
I2
tp8
aa(lp9
(I8
g3
I8
tp10
a(I6
S'advmod'
p11
I0
tp12
a(I6
S'advmod'
p13
I1
tp14
a(I6
S'nsubj'
p15
I2
tp16
a(I6
S'cop'
p17
I3
tp18
a(I5
S'nummod'
p19
I4
tp20
a(I6
S'nmod:npmod'
p21
I5
tp22
a(I8
S'advcl'
p23
I6
tp24
a(I8
S'nsubj'
p25
I7
tp26
a(I11
S'det'
p27
I9
tp28
a(I11
S'amod'
p29
I10
tp30
a(I8
S'dobj'
p31
I11
tp32
a(I14
S'case'
p33
I12
tp34
a(I14
S'det'
p35
I13
tp36
a(I8
S'nmod:in'
p37
I14
tp38
a(I14
S'punct'
p39
I15
tp40
a(I14
S'acl'
p41
I16
tp42
a(I16
S'advmod'
p43
I17
tp44
a(I17
S'dep'
p45
I18
tp46
a(I20
S'case'
p47
I19
tp48
a(I18
S'nmod:from'
p49
I20
tp50
a(I16
S'punct'
p51
I21
tp52
a(I25
S'case'
p53
I22
tp54
a(I25
S'det'
p55
I23
tp56
a(I25
S'amod'
p57
I24
tp58
a(I16
S'nmod:about'
p59
I25
tp60
a(I8
S'punct'
p61
I26
tp62
aa(lp63
(I3
g3
I3
tp64
a(I3
S'nsubj'
p65
I0
tp66
a(I3
S'cop'
p67
I1
tp68
a(I3
S'det'
p69
I2
tp70
a(I7
S'case'
p71
I4
tp72
a(I7
S'det'
p73
I5
tp74
a(I7
S'compound'
p75
I6
tp76
a(I3
S'nmod:of'
p77
I7
tp78
a(I10
S'case'
p79
I8
tp80
a(I10
S'det'
p81
I9
tp82
a(I7
S'nmod:in'
p83
I10
tp84
a(I12
S'mark'
p85
I11
tp86
a(I10
S'acl'
p87
I12
tp88
a(I14
S'det'
p89
I13
tp90
a(I12
S'dobj'
p91
I14
tp92
a(I3
S'punct'
p93
I15
tp94
aa(lp95
(I3
g3
I3
tp96
a(I3
S'nsubj'
p97
I0
tp98
a(I3
S'cop'
p99
I1
tp100
a(I3
S'det'
p101
I2
tp102
a(I6
S'case'
p103
I4
tp104
a(I6
S'det'
p105
I5
tp106
a(I3
S'nmod:of'
p107
I6
tp108
a(I3
S'punct'
p109
I7
tp110
aa(lp111
(I4
g3
I4
tp112
a(I2
S'case'
p113
I0
tp114
a(I2
S'det'
p115
I1
tp116
a(I4
S'nmod:in'
p117
I2
tp118
a(I4
S'nsubj'
p119
I3
tp120
a(I4
S'punct'
p121
I5
tp122
a(I4
S'punct'
p123
I6
tp124
a(I8
S'compound'
p125
I7
tp126
a(I9
S'nsubj'
p127
I8
tp128
a(I4
S'ccomp'
p129
I9
tp130
a(I12
S'nmod:poss'
p131
I10
tp132
a(I12
S'compound'
p133
I11
tp134
a(I9
S'dobj'
p135
I12
tp136
a(I9
S'punct'
p137
I13
tp138
a(I15
S'mark'
p139
I14
tp140
a(I9
S'advcl'
p141
I15
tp142
a(I15
S'dobj'
p143
I16
tp144
a(I4
S'punct'
p145
I17
tp146
aa(lp147
(I5
g3
I5
tp148
a(I5
S'mark'
p149
I0
tp150
a(I5
S'mark'
p151
I1
tp152
a(I5
S'nsubj'
p153
I2
tp154
a(I5
S'cop'
p155
I3
tp156
a(I5
S'neg'
p157
I4
tp158
a(I7
S'mark'
p159
I6
tp160
a(I5
S'xcomp'
p161
I7
tp162
a(I5
S'punct'
p163
I8
tp164
a(I5
S'cc'
p165
I9
tp166
a(I11
S'nsubj'
p167
I10
tp168
a(I5
S'conj:and'
p169
I11
tp170
a(I15
S'case'
p171
I12
tp172
a(I15
S'det'
p173
I13
tp174
a(I15
S'nummod'
p175
I14
tp176
a(I11
S'nmod:through'
p177
I15
tp178
a(I18
S'mark'
p179
I16
tp180
a(I18
S'nsubj'
p181
I17
tp182
a(I11
S'ccomp'
p183
I18
tp184
a(I20
S'case'
p185
I19
tp186
a(I18
S'nmod:for'
p187
I20
tp188
a(I5
S'punct'
p189
I21
tp190
a(I5
S'punct'
p191
I22
tp192
aa(lp193
(I1
g3
I1
tp194
a(I1
S'nsubj'
p195
I0
tp196
a(I1
S'advmod'
p197
I2
tp198
a(I1
S'punct'
p199
I3
tp200
a(I1
S'advmod'
p201
I4
tp202
a(I1
S'punct'
p203
I5
tp204
a(I8
S'case'
p205
I6
tp206
a(I8
S'det'
p207
I7
tp208
a(I1
S'nmod:over'
p209
I8
tp210
a(I11
S'case'
p211
I9
tp212
a(I11
S'det'
p213
I10
tp214
a(I8
S'nmod:of'
p215
I11
tp216
a(I1
S'punct'
p217
I12
tp218
aa(lp219
(I9
g3
I9
tp220
a(I9
S'cc'
p221
I0
tp222
a(I3
S'case'
p223
I1
tp224
a(I3
S'det'
p225
I2
tp226
a(I9
S'nmod:after'
p227
I3
tp228
a(I7
S'case'
p229
I4
tp230
a(I7
S'det'
p231
I5
tp232
a(I7
S'amod'
p233
I6
tp234
a(I3
S'nmod:with'
p235
I7
tp236
a(I9
S'nsubj'
p237
I8
tp238
a(I11
S'mark'
p239
I10
tp240
a(I9
S'advcl'
p241
I11
tp242
a(I14
S'nmod:poss'
p243
I12
tp244
a(I14
S'amod'
p245
I13
tp246
a(I11
S'dobj'
p247
I14
tp248
a(I9
S'punct'
p249
I15
tp250
aa(lp251
(I2
g3
I2
tp252
a(I2
S'nmod:poss'
p253
I0
tp254
a(I2
S'compound'
p255
I1
tp256
a(I2
S'dep'
p257
I3
tp258
a(I2
S'punct'
p259
I4
tp260
aa(lp261
(I1
g3
I1
tp262
a(I1
S'nsubj'
p263
I0
tp264
a(I3
S'case'
p265
I2
tp266
a(I1
S'nmod:like'
p267
I3
tp268
a(I1
S'punct'
p269
I4
tp270
a(I6
S'nsubj'
p271
I5
tp272
a(I1
S'parataxis'
p273
I6
tp274
a(I8
S'nmod:poss'
p275
I7
tp276
a(I6
S'dobj'
p277
I8
tp278
a(I11
S'case'
p279
I9
tp280
a(I11
S'det'
p281
I10
tp282
a(I6
S'nmod:to'
p283
I11
tp284
a(I11
S'punct'
p285
I12
tp286
a(I11
S'dep'
p287
I13
tp288
a(I6
S'punct'
p289
I14
tp290
a(I6
S'cc'
p291
I15
tp292
a(I6
S'conj:and'
p293
I16
tp294
a(I16
S'dobj'
p295
I17
tp296
a(I21
S'mark'
p297
I18
tp298
a(I20
S'det'
p299
I19
tp300
a(I21
S'nsubj'
p301
I20
tp302
a(I16
S'ccomp'
p303
I21
tp304
a(I21
S'dobj'
p305
I22
tp306
a(I1
S'punct'
p307
I23
tp308
aa(lp309
(I2
g3
I2
tp310
a(I2
S'cc'
p311
I0
tp312
a(I2
S'nsubj'
p313
I1
tp314
a(I2
S'punct'
p315
I3
tp316
a(I2
S'punct'
p317
I4
tp318
a(I2
S'ccomp'
p319
I5
tp320
a(I2
S'punct'
p321
I6
tp322
aa(lp323
(I1
g3
I1
tp324
a(I1
S'advmod'
p325
I0
tp326
a(I3
S'det'
p327
I2
tp328
a(I5
S'nsubjpass'
p329
I3
tp330
a(I5
S'auxpass'
p331
I4
tp332
a(I1
S'parataxis'
p333
I5
tp334
a(I8
S'case'
p335
I6
tp336
a(I8
S'det'
p337
I7
tp338
a(I5
S'nmod:agent'
p339
I8
tp340
a(I1
S'punct'
p341
I9
tp342
a(I1
S'punct'
p343
I10
tp344
aa(lp345
(I5
g3
I5
tp346
a(I1
S'nmod:poss'
p347
I0
tp348
a(I5
S'nsubj'
p349
I1
tp350
a(I5
S'cop'
p351
I2
tp352
a(I5
S'neg'
p353
I3
tp354
a(I5
S'det'
p355
I4
tp356
a(I8
S'case'
p357
I6
tp358
a(I8
S'det'
p359
I7
tp360
a(I5
S'nmod:of'
p361
I8
tp362
a(I5
S'punct'
p363
I9
tp364
aa(lp365
(I3
g3
I3
tp366
a(I3
S'nsubj'
p367
I0
tp368
a(I3
S'cop'
p369
I1
tp370
a(I3
S'det'
p371
I2
tp372
a(I7
S'case'
p373
I4
tp374
a(I7
S'det'
p375
I5
tp376
a(I7
S'compound'
p377
I6
tp378
a(I3
S'nmod:of'
p379
I7
tp380
a(I7
S'acl'
p381
I8
tp382
a(I10
S'det'
p383
I9
tp384
a(I8
S'dobj'
p385
I10
tp386
a(I3
S'punct'
p387
I11
tp388
aa(lp389
(I14
g3
I14
tp390
a(I14
S'cc'
p391
I0
tp392
a(I8
S'mark'
p393
I1
tp394
a(I3
S'det'
p395
I2
tp396
a(I8
S'nsubj'
p397
I3
tp398
a(I3
S'punct'
p399
I4
tp400
a(I3
S'dep'
p401
I5
tp402
a(I8
S'cop'
p403
I6
tp404
a(I8
S'neg'
p405
I7
tp406
a(I14
S'advcl'
p407
I8
tp408
a(I10
S'mark'
p409
I9
tp410
a(I8
S'xcomp'
p411
I10
tp412
a(I10
S'dobj'
p413
I11
tp414
a(I14
S'punct'
p415
I12
tp416
a(I14
S'nsubj'
p417
I13
tp418
a(I16
S'det'
p419
I15
tp420
a(I14
S'dobj'
p421
I16
tp422
a(I14
S'punct'
p423
I17
tp424
a(I19
S'nsubj'
p425
I18
tp426
a(I14
S'parataxis'
p427
I19
tp428
a(I21
S'det'
p429
I20
tp430
a(I19
S'dobj'
p431
I21
tp432
a(I25
S'case'
p433
I22
tp434
a(I25
S'det'
p435
I23
tp436
a(I25
S'compound'
p437
I24
tp438
a(I21
S'nmod:of'
p439
I25
tp440
a(I19
S'punct'
p441
I26
tp442
a(I34
S'mark'
p443
I27
tp444
a(I27
S'mwe'
p445
I28
tp446
a(I30
S'det'
p447
I29
tp448
a(I34
S'nsubj'
p449
I30
tp450
a(I30
S'punct'
p451
I31
tp452
a(I30
S'dep'
p453
I32
tp454
a(I34
S'aux'
p455
I33
tp456
a(I19
S'advcl'
p457
I34
tp458
a(I34
S'dobj'
p459
I35
tp460
a(I34
S'advmod'
p461
I36
tp462
a(I14
S'punct'
p463
I37
tp464
aa(lp465
(I2
g3
I2
tp466
a(I2
S'nsubj'
p467
I0
tp468
a(I2
S'advmod'
p469
I1
tp470
a(I4
S'mark'
p471
I3
tp472
a(I2
S'xcomp'
p473
I4
tp474
a(I4
S'dobj'
p475
I5
tp476
a(I5
S'acl'
p477
I6
tp478
a(I2
S'punct'
p479
I7
tp480
aa(lp481
(I4
g3
I4
tp482
a(I2
S'nmod:poss'
p483
I0
tp484
a(I2
S'compound'
p485
I1
tp486
a(I4
S'nsubj'
p487
I2
tp488
a(I2
S'dep'
p489
I3
tp490
a(I6
S'case'
p491
I5
tp492
a(I4
S'nmod:like'
p493
I6
tp494
a(I6
S'punct'
p495
I7
tp496
a(I9
S'det'
p497
I8
tp498
a(I6
S'dep'
p499
I9
tp500
a(I9
S'punct'
p501
I10
tp502
a(I13
S'nmod:poss'
p503
I11
tp504
a(I11
S'case'
p505
I12
tp506
a(I18
S'nsubj'
p507
I13
tp508
a(I13
S'punct'
p509
I14
tp510
a(I16
S'det'
p511
I15
tp512
a(I13
S'appos'
p513
I16
tp514
a(I13
S'punct'
p515
I17
tp516
a(I9
S'dep'
p517
I18
tp518
a(I20
S'mark'
p519
I19
tp520
a(I18
S'xcomp'
p521
I20
tp522
a(I20
S'dobj'
p523
I21
tp524
a(I23
S'mark'
p525
I22
tp526
a(I20
S'xcomp'
p527
I23
tp528
a(I23
S'advmod'
p529
I24
tp530
a(I26
S'nmod:poss'
p531
I25
tp532
a(I23
S'dobj'
p533
I26
tp534
a(I29
S'case'
p535
I27
tp536
a(I29
S'compound'
p537
I28
tp538
a(I26
S'nmod:of'
p539
I29
tp540
a(I34
S'punct'
p541
I30
tp542
a(I34
S'mark'
p543
I31
tp544
a(I34
S'case'
p545
I32
tp546
a(I34
S'det'
p547
I33
tp548
a(I29
S'dep'
p549
I34
tp550
a(I34
S'cc'
p551
I35
tp552
a(I37
S'det'
p553
I36
tp554
a(I34
S'conj:or'
p555
I37
tp556
a(I34
S'punct'
p557
I38
tp558
a(I4
S'cc'
p559
I39
tp560
a(I4
S'conj:and'
p561
I40
tp562
a(I40
S'dobj'
p563
I41
tp564
a(I44
S'advmod'
p565
I42
tp566
a(I44
S'case'
p567
I43
tp568
a(I40
S'advcl:to'
p569
I44
tp570
a(I44
S'punct'
p571
I45
tp572
a(I44
S'conj:and'
p573
I46
tp574
a(I44
S'punct'
p575
I47
tp576
a(I44
S'conj:and'
p577
I48
tp578
a(I44
S'cc'
p579
I49
tp580
a(I44
S'conj:and'
p581
I50
tp582
a(I4
S'punct'
p583
I51
tp584
aa(lp585
(I1
g3
I1
tp586
a(I1
S'nsubj'
p587
I0
tp588
a(I11
S'advmod'
p589
I2
tp590
a(I11
S'punct'
p591
I3
tp592
a(I6
S'case'
p593
I4
tp594
a(I6
S'det'
p595
I5
tp596
a(I11
S'nmod:at'
p597
I6
tp598
a(I8
S'case'
p599
I7
tp600
a(I6
S'nmod:of'
p601
I8
tp602
a(I11
S'punct'
p603
I9
tp604
a(I11
S'nsubj'
p605
I10
tp606
a(I1
S'advcl'
p607
I11
tp608
a(I11
S'compound:prt'
p609
I12
tp610
a(I19
S'nsubj'
p611
I13
tp612
a(I19
S'aux'
p613
I14
tp614
a(I19
S'aux'
p615
I15
tp616
a(I19
S'cop'
p617
I16
tp618
a(I19
S'det'
p619
I17
tp620
a(I19
S'amod'
p621
I18
tp622
a(I11
S'ccomp'
p623
I19
tp624
a(I22
S'case'
p625
I20
tp626
a(I22
S'det'
p627
I21
tp628
a(I19
S'nmod:as'
p629
I22
tp630
a(I1
S'punct'
p631
I23
tp632
aa(lp633
(I3
g3
I3
tp634
a(I3
S'nsubjpass'
p635
I0
tp636
a(I3
S'aux'
p637
I1
tp638
a(I3
S'auxpass'
p639
I2
tp640
a(I6
S'case'
p641
I4
tp642
a(I6
S'det'
p643
I5
tp644
a(I3
S'nmod:agent'
p645
I6
tp646
a(I10
S'case'
p647
I7
tp648
a(I10
S'nmod:poss'
p649
I8
tp650
a(I10
S'compound'
p651
I9
tp652
a(I6
S'nmod:of'
p653
I10
tp654
a(I10
S'dep'
p655
I11
tp656
a(I10
S'cc'
p657
I12
tp658
a(I15
S'nmod:poss'
p659
I13
tp660
a(I15
S'compound'
p661
I14
tp662
a(I10
S'conj:and'
p663
I15
tp664
a(I15
S'dep'
p665
I16
tp666
a(I3
S'punct'
p667
I17
tp668
aa(lp669
(I0
g3
I0
tp670
a(I0
S'punct'
p671
I1
tp672
a(I4
S'nsubj'
p673
I2
tp674
a(I4
S'neg'
p675
I3
tp676
a(I0
S'conj:and'
p677
I4
tp678
a(I4
S'dobj'
p679
I5
tp680
a(I7
S'case'
p681
I6
tp682
a(I4
S'nmod:by'
p683
I7
tp684
a(I0
S'punct'
p685
I8
tp686
a(I0
S'cc'
p687
I9
tp688
a(I12
S'nsubj'
p689
I10
tp690
a(I12
S'cop'
p691
I11
tp692
a(I0
S'conj:and'
p693
I12
tp694
a(I14
S'case'
p695
I13
tp696
a(I12
S'nmod:for'
p697
I14
tp698
a(I16
S'mark'
p699
I15
tp700
a(I12
S'xcomp'
p701
I16
tp702
a(I18
S'advmod'
p703
I17
tp704
a(I16
S'advmod'
p705
I18
tp706
a(I20
S'advmod'
p707
I19
tp708
a(I18
S'conj'
p709
I20
tp710
a(I20
S'dobj'
p711
I21
tp712
a(I23
S'case'
p713
I22
tp714
a(I20
S'nmod:to'
p715
I23
tp716
a(I0
S'punct'
p717
I24
tp718
aa(lp719
(I3
g3
I3
tp720
a(I3
S'advmod'
p721
I0
tp722
a(I3
S'advmod'
p723
I1
tp724
a(I3
S'nsubj'
p725
I2
tp726
a(I5
S'det'
p727
I4
tp728
a(I3
S'dobj'
p729
I5
tp730
a(I3
S'punct'
p731
I6
tp732
a(I3
S'cc'
p733
I7
tp734
a(I3
S'conj:and'
p735
I8
tp736
a(I11
S'case'
p737
I9
tp738
a(I11
S'compound'
p739
I10
tp740
a(I8
S'nmod:to'
p741
I11
tp742
a(I3
S'punct'
p743
I12
tp744
aa(lp745
(I2
g3
I2
tp746
a(I2
S'nsubj'
p747
I0
tp748
a(I2
S'aux'
p749
I1
tp750
a(I4
S'det'
p751
I3
tp752
a(I2
S'dobj'
p753
I4
tp754
a(I7
S'case'
p755
I5
tp756
a(I7
S'det'
p757
I6
tp758
a(I2
S'nmod:over'
p759
I7
tp760
a(I10
S'case'
p761
I8
tp762
a(I10
S'det'
p763
I9
tp764
a(I7
S'nmod:of'
p765
I10
tp766
a(I2
S'punct'
p767
I11
tp768
a(I2
S'cc'
p769
I12
tp770
a(I15
S'nsubj'
p771
I13
tp772
a(I15
S'cop'
p773
I14
tp774
a(I2
S'conj:and'
p775
I15
tp776
a(I21
S'mark'
p777
I16
tp778
a(I21
S'nsubj'
p779
I17
tp780
a(I21
S'aux'
p781
I18
tp782
a(I21
S'cop'
p783
I19
tp784
a(I21
S'advmod'
p785
I20
tp786
a(I15
S'ccomp'
p787
I21
tp788
a(I23
S'case'
p789
I22
tp790
a(I21
S'nmod:to'
p791
I23
tp792
a(I2
S'punct'
p793
I24
tp794
aa(lp795
(I5
g3
I5
tp796
a(I2
S'case'
p797
I0
tp798
a(I2
S'det'
p799
I1
tp800
a(I5
S'nmod:at'
p801
I2
tp802
a(I5
S'nsubj'
p803
I3
tp804
a(I5
S'aux'
p805
I4
tp806
a(I5
S'dobj'
p807
I6
tp808
a(I8
S'case'
p809
I7
tp810
a(I5
S'nmod:from'
p811
I8
tp812
a(I5
S'punct'
p813
I9
tp814
aa(lp815
(I11
g3
I11
tp816
a(I3
S'mark'
p817
I0
tp818
a(I3
S'nsubjpass'
p819
I1
tp820
a(I3
S'auxpass'
p821
I2
tp822
a(I11
S'advcl'
p823
I3
tp824
a(I6
S'case'
p825
I4
tp826
a(I6
S'det'
p827
I5
tp828
a(I3
S'nmod:in'
p829
I6
tp830
a(I11
S'punct'
p831
I7
tp832
a(I9
S'amod'
p833
I8
tp834
a(I11
S'nsubj'
p835
I9
tp836
a(I11
S'cop'
p837
I10
tp838
a(I11
S'punct'
p839
I12
tp840
aa(lp841
(I8
g3
I8
tp842
a(I2
S'case'
p843
I0
tp844
a(I2
S'det'
p845
I1
tp846
a(I8
S'nmod:in'
p847
I2
tp848
a(I5
S'case'
p849
I3
tp850
a(I5
S'det'
p851
I4
tp852
a(I2
S'nmod:of'
p853
I5
tp854
a(I8
S'nsubj'
p855
I6
tp856
a(I8
S'aux'
p857
I7
tp858
a(I12
S'det'
p859
I9
tp860
a(I12
S'amod'
p861
I10
tp862
a(I12
S'amod'
p863
I11
tp864
a(I8
S'dobj'
p865
I12
tp866
a(I17
S'case'
p867
I13
tp868
a(I17
S'det'
p869
I14
tp870
a(I17
S'amod'
p871
I15
tp872
a(I17
S'amod'
p873
I16
tp874
a(I12
S'nmod:with'
p875
I17
tp876
a(I21
S'nsubjpass'
p877
I18
tp878
a(I21
S'aux'
p879
I19
tp880
a(I21
S'auxpass'
p881
I20
tp882
a(I12
S'acl:relcl'
p883
I21
tp884
a(I23
S'case'
p885
I22
tp886
a(I21
S'nmod:with'
p887
I23
tp888
a(I25
S'case'
p889
I24
tp890
a(I23
S'nmod:of'
p891
I25
tp892
a(I8
S'punct'
p893
I26
tp894
aa(lp895
(I2
g3
I2
tp896
a(I2
S'nsubj'
p897
I0
tp898
a(I2
S'aux'
p899
I1
tp900
a(I5
S'det'
p901
I3
tp902
a(I5
S'amod'
p903
I4
tp904
a(I2
S'dobj'
p905
I5
tp906
a(I7
S'case'
p907
I6
tp908
a(I2
S'nmod:among'
p909
I7
tp910
a(I7
S'punct'
p911
I8
tp912
a(I7
S'dep'
p913
I9
tp914
a(I2
S'punct'
p915
I10
tp916
aa(lp917
(I2
g3
I2
tp918
a(I2
S'nsubj'
p919
I0
tp920
a(I2
S'aux'
p921
I1
tp922
a(I2
S'dobj'
p923
I3
tp924
a(I2
S'advmod'
p925
I4
tp926
a(I2
S'punct'
p927
I5
tp928
a(I2
S'advmod'
p929
I6
tp930
a(I6
S'case'
p931
I7
tp932
a(I6
S'dep'
p933
I8
tp934
a(I2
S'punct'
p935
I9
tp936
aa(lp937
(I5
g3
I5
tp938
a(I5
S'cc'
p939
I0
tp940
a(I5
S'nsubj'
p941
I1
tp942
a(I5
S'aux'
p943
I2
tp944
a(I5
S'neg'
p945
I3
tp946
a(I5
S'advmod'
p947
I4
tp948
a(I7
S'nmod:poss'
p949
I6
tp950
a(I5
S'dobj'
p951
I7
tp952
a(I9
S'case'
p953
I8
tp954
a(I7
S'nmod:of'
p955
I9
tp956
a(I5
S'punct'
p957
I10
tp958
aa(lp959
(I0
g3
I0
tp960
a(I2
S'nsubj'
p961
I1
tp962
a(I0
S'acl:relcl'
p963
I2
tp964
a(I2
S'dobj'
p965
I3
tp966
a(I5
S'case'
p967
I4
tp968
a(I3
S'nmod:of'
p969
I5
tp970
a(I7
S'nsubj'
p971
I6
tp972
a(I3
S'acl:relcl'
p973
I7
tp974
a(I9
S'case'
p975
I8
tp976
a(I7
S'nmod:to'
p977
I9
tp978
a(I11
S'case'
p979
I10
tp980
a(I7
S'nmod:at'
p981
I11
tp982
a(I14
S'dep'
p983
I12
tp984
a(I14
S'punct'
p985
I13
tp986
a(I0
S'dep'
p987
I14
tp988
a(I17
S'punct'
p989
I15
tp990
a(I17
S'nsubj'
p991
I16
tp992
a(I14
S'parataxis'
p993
I17
tp994
a(I19
S'det'
p995
I18
tp996
a(I17
S'dobj'
p997
I19
tp998
a(I21
S'mark'
p999
I20
tp1000
a(I19
S'acl'
p1001
I21
tp1002
a(I21
S'iobj'
p1003
I22
tp1004
a(I24
S'nmod:poss'
p1005
I23
tp1006
a(I24
S'compound'
p1007
I24
tp1008
a(I21
S'dep'
p1009
I24
tp1010
a(I21
S'dobj'
p1011
I25
tp1012
a(I17
S'punct'
p1013
I26
tp1014
a(I31
S'dobj'
p1015
I27
tp1016
a(I31
S'nsubj'
p1017
I28
tp1018
a(I31
S'aux'
p1019
I29
tp1020
a(I31
S'advmod'
p1021
I30
tp1022
a(I14
S'ccomp'
p1023
I31
tp1024
a(I14
S'punct'
p1025
I32
tp1026
aa(lp1027
(I2
g3
I2
tp1028
a(I2
S'nsubj'
p1029
I0
tp1030
a(I2
S'aux'
p1031
I1
tp1032
a(I4
S'mark'
p1033
I3
tp1034
a(I2
S'xcomp'
p1035
I4
tp1036
a(I4
S'compound:prt'
p1037
I5
tp1038
a(I4
S'punct'
p1039
I6
tp1040
a(I4
S'advmod'
p1041
I7
tp1042
a(I4
S'punct'
p1043
I8
tp1044
a(I13
S'mark'
p1045
I9
tp1046
a(I13
S'nsubj'
p1047
I10
tp1048
a(I13
S'cop'
p1049
I11
tp1050
a(I13
S'det'
p1051
I12
tp1052
a(I4
S'advcl'
p1053
I13
tp1054
a(I16
S'case'
p1055
I14
tp1056
a(I16
S'amod'
p1057
I15
tp1058
a(I13
S'nmod:of'
p1059
I16
tp1060
a(I2
S'punct'
p1061
I17
tp1062
aa(lp1063
(I13
g3
I13
tp1064
a(I13
S'cc'
p1065
I0
tp1066
a(I13
S'punct'
p1067
I1
tp1068
a(I4
S'dobj'
p1069
I2
tp1070
a(I4
S'nsubj'
p1071
I3
tp1072
a(I13
S'dep'
p1073
I4
tp1074
a(I13
S'punct'
p1075
I5
tp1076
a(I13
S'nsubj'
p1077
I6
tp1078
a(I9
S'punct'
p1079
I7
tp1080
a(I9
S'cc'
p1081
I8
tp1082
a(I6
S'dep'
p1083
I9
tp1084
a(I9
S'punct'
p1085
I10
tp1086
a(I13
S'aux'
p1087
I11
tp1088
a(I13
S'advmod'
p1089
I12
tp1090
a(I13
S'punct'
p1091
I14
tp1092
a(I13
S'punct'
p1093
I15
tp1094
a(I19
S'nsubj'
p1095
I16
tp1096
a(I19
S'cop'
p1097
I17
tp1098
a(I19
S'det'
p1099
I18
tp1100
a(I13
S'parataxis'
p1101
I19
tp1102
a(I13
S'punct'
p1103
I20
tp1104
a(I13
S'punct'
p1105
I21
tp1106
aa(lp1107
(I4
g3
I4
tp1108
a(I4
S'advmod'
p1109
I0
tp1110
a(I4
S'nsubj'
p1111
I1
tp1112
a(I4
S'aux'
p1113
I2
tp1114
a(I4
S'neg'
p1115
I3
tp1116
a(I7
S'case'
p1117
I5
tp1118
a(I7
S'det'
p1119
I6
tp1120
a(I4
S'nmod:to'
p1121
I7
tp1122
a(I10
S'case'
p1123
I8
tp1124
a(I10
S'compound'
p1125
I9
tp1126
a(I7
S'nmod:about'
p1127
I10
tp1128
a(I7
S'punct'
p1129
I11
tp1130
a(I7
S'cc'
p1131
I12
tp1132
a(I14
S'amod'
p1133
I13
tp1134
a(I7
S'conj:or'
p1135
I14
tp1136
a(I14
S'punct'
p1137
I15
tp1138
a(I14
S'cc'
p1139
I16
tp1140
a(I14
S'conj:or'
p1141
I17
tp1142
a(I4
S'punct'
p1143
I18
tp1144
aa(lp1145
(I2
g3
I2
tp1146
a(I2
S'nsubj'
p1147
I0
tp1148
a(I2
S'aux'
p1149
I1
tp1150
a(I2
S'dobj'
p1151
I3
tp1152
a(I2
S'advmod'
p1153
I4
tp1154
a(I7
S'case'
p1155
I5
tp1156
a(I7
S'nmod:poss'
p1157
I6
tp1158
a(I4
S'nmod:to'
p1159
I7
tp1160
a(I2
S'punct'
p1161
I8
tp1162
aa(lp1163
(I2
g3
I2
tp1164
a(I2
S'nsubj'
p1165
I0
tp1166
a(I2
S'aux'
p1167
I1
tp1168
a(I4
S'case'
p1169
I3
tp1170
a(I2
S'nmod:to'
p1171
I4
tp1172
a(I6
S'case'
p1173
I5
tp1174
a(I4
S'nmod:about'
p1175
I6
tp1176
a(I6
S'punct'
p1177
I7
tp1178
a(I6
S'cc'
p1179
I8
tp1180
a(I6
S'conj:and'
p1181
I9
tp1182
a(I6
S'punct'
p1183
I10
tp1184
a(I6
S'cc'
p1185
I11
tp1186
a(I6
S'conj:and'
p1187
I12
tp1188
a(I6
S'punct'
p1189
I13
tp1190
a(I4
S'cc'
p1191
I14
tp1192
a(I4
S'conj:and'
p1193
I15
tp1194
a(I2
S'punct'
p1195
I16
tp1196
aa(lp1197
(I8
g3
I8
tp1198
a(I8
S'cc'
p1199
I0
tp1200
a(I8
S'nsubj'
p1201
I1
tp1202
a(I1
S'acl'
p1203
I2
tp1204
a(I2
S'punct'
p1205
I3
tp1206
a(I2
S'advmod'
p1207
I4
tp1208
a(I8
S'aux'
p1209
I5
tp1210
a(I8
S'cop'
p1211
I6
tp1212
a(I8
S'advmod'
p1213
I7
tp1214
a(I11
S'mark'
p1215
I9
tp1216
a(I11
S'aux'
p1217
I10
tp1218
a(I8
S'xcomp'
p1219
I11
tp1220
a(I15
S'det:predet'
p1221
I12
tp1222
a(I15
S'det'
p1223
I13
tp1224
a(I15
S'amod'
p1225
I14
tp1226
a(I11
S'dobj'
p1227
I15
tp1228
a(I8
S'punct'
p1229
I16
tp1230
aa(lp1231
(I0
g3
I0
tp1232
a(I0
S'dep'
p1233
I1
tp1234
a(I0
S'punct'
p1235
I2
tp1236
aa(lp1237
(I2
g3
I2
tp1238
a(I2
S'dep'
p1239
I0
tp1240
a(I2
S'nsubj'
p1241
I1
tp1242
a(I4
S'nmod:poss'
p1243
I3
tp1244
a(I2
S'dobj'
p1245
I4
tp1246
a(I2
S'advmod'
p1247
I5
tp1248
a(I2
S'punct'
p1249
I6
tp1250
a(I8
S'case'
p1251
I7
tp1252
a(I2
S'nmod:without'
p1253
I8
tp1254
a(I13
S'mark'
p1255
I9
tp1256
a(I13
S'nsubj'
p1257
I10
tp1258
a(I13
S'aux'
p1259
I11
tp1260
a(I13
S'advmod'
p1261
I12
tp1262
a(I8
S'dep'
p1263
I13
tp1264
a(I13
S'nmod'
p1265
I14
tp1266
a(I2
S'punct'
p1267
I15
tp1268
a(I18
S'mark'
p1269
I16
tp1270
a(I18
S'nsubj'
p1271
I17
tp1272
a(I2
S'advcl'
p1273
I18
tp1274
a(I20
S'det'
p1275
I19
tp1276
a(I18
S'dobj'
p1277
I20
tp1278
a(I23
S'case'
p1279
I21
tp1280
a(I23
S'nmod:poss'
p1281
I22
tp1282
a(I20
S'nmod:with'
p1283
I23
tp1284
a(I26
S'case'
p1285
I24
tp1286
a(I26
S'det'
p1287
I25
tp1288
a(I18
S'nmod:in'
p1289
I26
tp1290
a(I26
S'case'
p1291
I26
tp1292
a(I26
S'nmod:of'
p1293
I26
tp1294
a(I18
S'punct'
p1295
I27
tp1296
a(I29
S'nummod'
p1297
I28
tp1298
a(I30
S'nmod:npmod'
p1299
I29
tp1300
a(I18
S'advmod'
p1301
I30
tp1302
a(I2
S'punct'
p1303
I31
tp1304
aa(lp1305
(I2
g3
I2
tp1306
a(I2
S'nsubjpass'
p1307
I0
tp1308
a(I2
S'auxpass'
p1309
I1
tp1310
a(I5
S'case'
p1311
I3
tp1312
a(I5
S'nmod:poss'
p1313
I4
tp1314
a(I2
S'nmod:in'
p1315
I5
tp1316
a(I2
S'punct'
p1317
I6
tp1318
aa(lp1319
(I14
g3
I14
tp1320
a(I14
S'cc'
p1321
I0
tp1322
a(I3
S'mark'
p1323
I1
tp1324
a(I3
S'nsubj'
p1325
I2
tp1326
a(I14
S'advcl'
p1327
I3
tp1328
a(I5
S'case'
p1329
I4
tp1330
a(I3
S'nmod:with'
p1331
I5
tp1332
a(I5
S'cc:preconj'
p1333
I6
tp1334
a(I8
S'det'
p1335
I7
tp1336
a(I5
S'conj'
p1337
I8
tp1338
a(I8
S'cc'
p1339
I9
tp1340
a(I11
S'det'
p1341
I10
tp1342
a(I8
S'conj:nor'
p1343
I11
tp1344
a(I14
S'punct'
p1345
I12
tp1346
a(I14
S'nsubj'
p1347
I13
tp1348
a(I14
S'dobj'
p1349
I15
tp1350
a(I17
S'mark'
p1351
I16
tp1352
a(I14
S'advcl'
p1353
I17
tp1354
a(I20
S'det'
p1355
I18
tp1356
a(I20
S'amod'
p1357
I19
tp1358
a(I17
S'dobj'
p1359
I20
tp1360
a(I22
S'dep'
p1361
I21
tp1362
a(I17
S'advmod'
p1363
I22
tp1364
a(I14
S'punct'
p1365
I23
tp1366
aa(lp1367
(I3
g3
I3
tp1368
a(I3
S'nsubj'
p1369
I0
tp1370
a(I3
S'cop'
p1371
I1
tp1372
a(I3
S'det'
p1373
I2
tp1374
a(I5
S'case'
p1375
I4
tp1376
a(I3
S'nmod:of'
p1377
I5
tp1378
a(I5
S'cc'
p1379
I6
tp1380
a(I5
S'conj:or'
p1381
I7
tp1382
a(I9
S'case'
p1383
I8
tp1384
a(I3
S'nmod:for'
p1385
I9
tp1386
a(I3
S'punct'
p1387
I10
tp1388
a(I12
S'nsubj'
p1389
I11
tp1390
a(I3
S'parataxis'
p1391
I12
tp1392
a(I14
S'advmod'
p1393
I13
tp1394
a(I16
S'amod'
p1395
I14
tp1396
a(I16
S'compound'
p1397
I15
tp1398
a(I12
S'dobj'
p1399
I16
tp1400
a(I18
S'mark'
p1401
I17
tp1402
a(I12
S'advcl'
p1403
I18
tp1404
a(I20
S'det'
p1405
I19
tp1406
a(I18
S'nmod:tmod'
p1407
I20
tp1408
a(I3
S'punct'
p1409
I21
tp1410
aa(lp1411
(I7
g3
I7
tp1412
a(I2
S'det'
p1413
I0
tp1414
a(I2
S'amod'
p1415
I1
tp1416
a(I7
S'nmod:tmod'
p1417
I2
tp1418
a(I7
S'punct'
p1419
I3
tp1420
a(I7
S'advmod'
p1421
I4
tp1422
a(I7
S'punct'
p1423
I5
tp1424
a(I7
S'nsubj'
p1425
I6
tp1426
a(I9
S'mark'
p1427
I8
tp1428
a(I7
S'xcomp'
p1429
I9
tp1430
a(I12
S'case'
p1431
I10
tp1432
a(I12
S'det'
p1433
I11
tp1434
a(I9
S'nmod:on'
p1435
I12
tp1436
a(I12
S'punct'
p1437
I13
tp1438
a(I16
S'det'
p1439
I14
tp1440
a(I16
S'nummod'
p1441
I15
tp1442
a(I12
S'appos'
p1443
I16
tp1444
a(I20
S'case'
p1445
I17
tp1446
a(I20
S'det'
p1447
I18
tp1448
a(I20
S'amod'
p1449
I19
tp1450
a(I9
S'nmod:from'
p1451
I20
tp1452
a(I7
S'punct'
p1453
I21
tp1454
aa(lp1455
(I3
g3
I3
tp1456
a(I3
S'nsubj'
p1457
I0
tp1458
a(I3
S'cop'
p1459
I1
tp1460
a(I3
S'advmod'
p1461
I2
tp1462
a(I7
S'case'
p1463
I4
tp1464
a(I7
S'det'
p1465
I5
tp1466
a(I7
S'amod'
p1467
I6
tp1468
a(I3
S'nmod:than'
p1469
I7
tp1470
a(I10
S'case'
p1471
I8
tp1472
a(I10
S'det'
p1473
I9
tp1474
a(I3
S'nmod:on'
p1475
I10
tp1476
a(I13
S'case'
p1477
I11
tp1478
a(I13
S'det'
p1479
I12
tp1480
a(I10
S'nmod:in'
p1481
I13
tp1482
a(I16
S'case'
p1483
I14
tp1484
a(I16
S'det'
p1485
I15
tp1486
a(I13
S'nmod:of'
p1487
I16
tp1488
a(I3
S'punct'
p1489
I17
tp1490
aa(lp1491
(I3
g3
I3
tp1492
a(I3
S'advmod'
p1493
I0
tp1494
a(I3
S'nsubj'
p1495
I1
tp1496
a(I3
S'aux'
p1497
I2
tp1498
a(I5
S'nmod:poss'
p1499
I4
tp1500
a(I3
S'dobj'
p1501
I5
tp1502
a(I3
S'punct'
p1503
I6
tp1504
a(I8
S'case'
p1505
I7
tp1506
a(I3
S'nmod:at'
p1507
I8
tp1508
a(I3
S'punct'
p1509
I9
tp1510
a(I13
S'advmod'
p1511
I10
tp1512
a(I13
S'nsubjpass'
p1513
I11
tp1514
a(I13
S'auxpass'
p1515
I12
tp1516
a(I3
S'advcl'
p1517
I13
tp1518
a(I18
S'case'
p1519
I14
tp1520
a(I18
S'det'
p1521
I15
tp1522
a(I18
S'amod'
p1523
I16
tp1524
a(I18
S'amod'
p1525
I17
tp1526
a(I13
S'nmod:agent'
p1527
I18
tp1528
a(I3
S'punct'
p1529
I19
tp1530
aa(lp1531
(I1
g3
I1
tp1532
a(I1
S'nsubj'
p1533
I0
tp1534
a(I1
S'punct'
p1535
I2
tp1536
a(I1
S'punct'
p1537
I3
tp1538
a(I6
S'mark'
p1539
I4
tp1540
a(I6
S'nsubj'
p1541
I5
tp1542
a(I1
S'xcomp'
p1543
I6
tp1544
a(I1
S'punct'
p1545
I7
tp1546
a(I1
S'parataxis'
p1547
I8
tp1548
a(I11
S'nsubj'
p1549
I9
tp1550
a(I11
S'det'
p1551
I10
tp1552
a(I8
S'xcomp'
p1553
I11
tp1554
a(I1
S'punct'
p1555
I12
tp1556
a(I1
S'punct'
p1557
I13
tp1558
aa(lp1559
(I1
g3
I1
tp1560
a(I1
S'punct'
p1561
I0
tp1562
a(I1
S'punct'
p1563
I2
tp1564
a(I1
S'punct'
p1565
I3
tp1566
aa(lp1567
(I1
g3
I1
tp1568
a(I1
S'punct'
p1569
I0
tp1570
a(I1
S'iobj'
p1571
I2
tp1572
a(I4
S'det'
p1573
I3
tp1574
a(I1
S'dobj'
p1575
I4
tp1576
a(I1
S'punct'
p1577
I5
tp1578
a(I1
S'punct'
p1579
I6
tp1580
aa(lp1581
(I1
g3
I1
tp1582
a(I1
S'nsubj'
p1583
I0
tp1584
a(I4
S'case'
p1585
I2
tp1586
a(I4
S'nmod:poss'
p1587
I3
tp1588
a(I1
S'nmod:to'
p1589
I4
tp1590
a(I1
S'punct'
p1591
I5
tp1592
a(I7
S'advmod'
p1593
I6
tp1594
a(I1
S'xcomp'
p1595
I7
tp1596
a(I1
S'punct'
p1597
I8
tp1598
aa(lp1599
(I1
g3
I1
tp1600
a(I1
S'nsubj'
p1601
I0
tp1602
a(I3
S'nmod:poss'
p1603
I2
tp1604
a(I1
S'dobj'
p1605
I3
tp1606
a(I1
S'advmod'
p1607
I4
tp1608
a(I1
S'punct'
p1609
I5
tp1610
aa(lp1611
(I1
g3
I1
tp1612
a(I1
S'nsubj'
p1613
I0
tp1614
a(I1
S'advmod'
p1615
I2
tp1616
a(I5
S'dep'
p1617
I3
tp1618
a(I5
S'case'
p1619
I4
tp1620
a(I1
S'nmod:around'
p1621
I5
tp1622
a(I1
S'punct'
p1623
I6
tp1624
aa(lp1625
(I2
g3
I2
tp1626
a(I2
S'cc'
p1627
I0
tp1628
a(I2
S'nsubj'
p1629
I1
tp1630
a(I7
S'det'
p1631
I3
tp1632
a(I5
S'advmod'
p1633
I4
tp1634
a(I7
S'amod'
p1635
I5
tp1636
a(I7
S'amod'
p1637
I6
tp1638
a(I2
S'dobj'
p1639
I7
tp1640
a(I7
S'punct'
p1641
I8
tp1642
a(I10
S'nsubj'
p1643
I9
tp1644
a(I7
S'acl:relcl'
p1645
I10
tp1646
a(I12
S'expl'
p1647
I11
tp1648
a(I10
S'dep'
p1649
I12
tp1650
a(I12
S'dobj'
p1651
I13
tp1652
a(I16
S'case'
p1653
I14
tp1654
a(I16
S'amod'
p1655
I15
tp1656
a(I12
S'nmod:with'
p1657
I16
tp1658
a(I2
S'punct'
p1659
I17
tp1660
aa(lp1661
(I3
g3
I3
tp1662
a(I3
S'advmod'
p1663
I0
tp1664
a(I3
S'nsubj'
p1665
I1
tp1666
a(I3
S'aux'
p1667
I2
tp1668
a(I6
S'det'
p1669
I4
tp1670
a(I6
S'amod'
p1671
I5
tp1672
a(I3
S'dobj'
p1673
I6
tp1674
a(I13
S'mark'
p1675
I7
tp1676
a(I13
S'punct'
p1677
I8
tp1678
a(I13
S'advmod'
p1679
I9
tp1680
a(I13
S'punct'
p1681
I10
tp1682
a(I13
S'nsubj'
p1683
I11
tp1684
a(I13
S'cop'
p1685
I12
tp1686
a(I3
S'ccomp'
p1687
I13
tp1688
a(I15
S'mark'
p1689
I14
tp1690
a(I13
S'xcomp'
p1691
I15
tp1692
a(I17
S'case'
p1693
I16
tp1694
a(I15
S'nmod:of'
p1695
I17
tp1696
a(I3
S'punct'
p1697
I18
tp1698
aa(lp1699
(I8
g3
I8
tp1700
a(I8
S'cc'
p1701
I0
tp1702
a(I2
S'nmod:poss'
p1703
I1
tp1704
a(I8
S'nsubj'
p1705
I2
tp1706
a(I8
S'cop'
p1707
I3
tp1708
a(I8
S'advmod'
p1709
I4
tp1710
a(I7
S'advmod'
p1711
I5
tp1712
a(I7
S'advmod'
p1713
I6
tp1714
a(I8
S'advmod'
p1715
I7
tp1716
a(I11
S'case'
p1717
I9
tp1718
a(I11
S'nmod:poss'
p1719
I10
tp1720
a(I8
S'nmod:than'
p1721
I11
tp1722
a(I8
S'punct'
p1723
I12
tp1724
aa(lp1725
(I7
g3
I7
tp1726
a(I7
S'nsubj'
p1727
I0
tp1728
a(I7
S'punct'
p1729
I1
tp1730
a(I7
S'advmod'
p1731
I2
tp1732
a(I7
S'punct'
p1733
I3
tp1734
a(I7
S'cop'
p1735
I4
tp1736
a(I7
S'neg'
p1737
I5
tp1738
a(I7
S'nmod:poss'
p1739
I6
tp1740
a(I7
S'punct'
p1741
I8
tp1742
aa(lp1743
(I1
g3
I1
tp1744
a(I1
S'det'
p1745
I0
tp1746
a(I1
S'punct'
p1747
I2
tp1748
a(I4
S'nsubj'
p1749
I3
tp1750
a(I1
S'dep'
p1751
I4
tp1752
a(I4
S'dobj'
p1753
I5
tp1754
a(I10
S'case'
p1755
I6
tp1756
a(I8
S'nmod:poss'
p1757
I7
tp1758
a(I10
S'nmod:poss'
p1759
I8
tp1760
a(I8
S'case'
p1761
I9
tp1762
a(I4
S'nmod:in'
p1763
I10
tp1764
a(I16
S'advmod'
p1765
I11
tp1766
a(I16
S'nsubj'
p1767
I12
tp1768
a(I16
S'cop'
p1769
I13
tp1770
a(I15
S'nummod'
p1771
I14
tp1772
a(I16
S'nmod:npmod'
p1773
I15
tp1774
a(I4
S'advcl'
p1775
I16
tp1776
a(I4
S'punct'
p1777
I17
tp1778
a(I4
S'cc'
p1779
I18
tp1780
a(I21
S'nsubj'
p1781
I19
tp1782
a(I21
S'neg'
p1783
I20
tp1784
a(I4
S'conj:and'
p1785
I21
tp1786
a(I23
S'mark'
p1787
I22
tp1788
a(I21
S'xcomp'
p1789
I23
tp1790
a(I23
S'dobj'
p1791
I24
tp1792
a(I21
S'punct'
p1793
I25
tp1794
a(I27
S'case'
p1795
I26
tp1796
a(I21
S'nmod:except'
p1797
I27
tp1798
a(I30
S'case'
p1799
I28
tp1800
a(I30
S'det'
p1801
I29
tp1802
a(I27
S'nmod:from'
p1803
I30
tp1804
a(I30
S'cc'
p1805
I31
tp1806
a(I30
S'conj:and'
p1807
I32
tp1808
a(I35
S'case'
p1809
I33
tp1810
a(I35
S'det'
p1811
I34
tp1812
a(I30
S'nmod:from'
p1813
I35
tp1814
a(I1
S'punct'
p1815
I36
tp1816
aa(lp1817
(I2
g3
I2
tp1818
a(I2
S'advmod'
p1819
I0
tp1820
a(I2
S'nsubj'
p1821
I1
tp1822
a(I6
S'case'
p1823
I3
tp1824
a(I6
S'det'
p1825
I4
tp1826
a(I6
S'amod'
p1827
I5
tp1828
a(I2
S'nmod:at'
p1829
I6
tp1830
a(I9
S'case'
p1831
I7
tp1832
a(I9
S'nmod:poss'
p1833
I8
tp1834
a(I6
S'nmod:with'
p1835
I9
tp1836
a(I11
S'advmod'
p1837
I10
tp1838
a(I2
S'ccomp'
p1839
I11
tp1840
a(I15
S'case'
p1841
I12
tp1842
a(I12
S'mwe'
p1843
I13
tp1844
a(I15
S'nmod:poss'
p1845
I14
tp1846
a(I11
S'nmod:out_of'
p1847
I15
tp1848
a(I17
S'case'
p1849
I16
tp1850
a(I11
S'nmod:in'
p1851
I17
tp1852
a(I2
S'punct'
p1853
I18
tp1854
aa(lp1855
(I4
g3
I4
tp1856
a(I4
S'ccomp'
p1857
I0
tp1858
a(I4
S'punct'
p1859
I1
tp1860
a(I4
S'nsubj'
p1861
I2
tp1862
a(I4
S'aux'
p1863
I3
tp1864
a(I7
S'case'
p1865
I5
tp1866
a(I7
S'det'
p1867
I6
tp1868
a(I4
S'nmod:in'
p1869
I7
tp1870
a(I9
S'advmod'
p1871
I8
tp1872
a(I10
S'nummod'
p1873
I9
tp1874
a(I4
S'nmod:from'
p1875
I10
tp1876
a(I10
S'case'
p1877
I11
tp1878
a(I14
S'det'
p1879
I12
tp1880
a(I14
S'amod'
p1881
I13
tp1882
a(I10
S'dep'
p1883
I14
tp1884
a(I4
S'punct'
p1885
I15
tp1886
aa(lp1887
(I5
g3
I5
tp1888
a(I5
S'cc'
p1889
I0
tp1890
a(I5
S'advmod'
p1891
I1
tp1892
a(I4
S'nmod:poss'
p1893
I2
tp1894
a(I4
S'amod'
p1895
I3
tp1896
a(I5
S'nsubj'
p1897
I4
tp1898
a(I9
S'cc:preconj'
p1899
I6
tp1900
a(I9
S'mark'
p1901
I7
tp1902
a(I9
S'aux'
p1903
I8
tp1904
a(I5
S'ccomp'
p1905
I9
tp1906
a(I9
S'advmod'
p1907
I10
tp1908
a(I13
S'case'
p1909
I11
tp1910
a(I13
S'det'
p1911
I12
tp1912
a(I9
S'nmod:among'
p1913
I13
tp1914
a(I13
S'punct'
p1915
I14
tp1916
a(I9
S'cc'
p1917
I15
tp1918
a(I18
S'mark'
p1919
I16
tp1920
a(I18
S'aux'
p1921
I17
tp1922
a(I9
S'conj:nor'
p1923
I18
tp1924
a(I20
S'case'
p1925
I19
tp1926
a(I18
S'nmod:from'
p1927
I20
tp1928
a(I20
S'cc'
p1929
I21
tp1930
a(I20
S'conj:or'
p1931
I22
tp1932
a(I20
S'cc'
p1933
I23
tp1934
a(I20
S'conj:or'
p1935
I24
tp1936
a(I24
S'cc'
p1937
I25
tp1938
a(I24
S'conj:or'
p1939
I26
tp1940
a(I5
S'punct'
p1941
I27
tp1942
aa(lp1943
(I3
g3
I3
tp1944
a(I3
S'nsubj'
p1945
I0
tp1946
a(I2
S'case'
p1947
I1
tp1948
a(I0
S'nmod:about'
p1949
I2
tp1950
a(I5
S'det'
p1951
I4
tp1952
a(I3
S'dobj'
p1953
I5
tp1954
a(I8
S'case'
p1955
I6
tp1956
a(I8
S'det'
p1957
I7
tp1958
a(I3
S'nmod:of'
p1959
I8
tp1960
a(I8
S'acl'
p1961
I9
tp1962
a(I12
S'case'
p1963
I10
tp1964
a(I12
S'det'
p1965
I11
tp1966
a(I9
S'nmod:in'
p1967
I12
tp1968
a(I15
S'case'
p1969
I13
tp1970
a(I15
S'det'
p1971
I14
tp1972
a(I12
S'nmod:of'
p1973
I15
tp1974
a(I3
S'punct'
p1975
I16
tp1976
a(I19
S'det'
p1977
I17
tp1978
a(I19
S'nummod'
p1979
I18
tp1980
a(I3
S'dobj'
p1981
I19
tp1982
a(I23
S'case'
p1983
I20
tp1984
a(I23
S'det'
p1985
I21
tp1986
a(I23
S'amod'
p1987
I22
tp1988
a(I19
S'nmod:from'
p1989
I23
tp1990
a(I3
S'punct'
p1991
I24
tp1992
aa(lp1993
(I5
g3
I5
tp1994
a(I5
S'dep'
p1995
I0
tp1996
a(I2
S'case'
p1997
I1
tp1998
a(I0
S'nmod:at'
p1999
I2
tp2000
a(I5
S'nsubj'
p2001
I3
tp2002
a(I5
S'cop'
p2003
I4
tp2004
a(I7
S'mark'
p2005
I6
tp2006
a(I5
S'xcomp'
p2007
I7
tp2008
a(I5
S'punct'
p2009
I8
tp2010
a(I10
S'nsubj'
p2011
I9
tp2012
a(I5
S'conj:but'
p2013
I10
tp2014
a(I12
S'case'
p2015
I11
tp2016
a(I10
S'nmod:to'
p2017
I12
tp2018
a(I5
S'punct'
p2019
I13
tp2020
a(I5
S'punct'
p2021
I14
tp2022
a(I5
S'cc'
p2023
I15
tp2024
a(I19
S'dep'
p2025
I16
tp2026
a(I19
S'nsubj'
p2027
I17
tp2028
a(I19
S'cop'
p2029
I18
tp2030
a(I5
S'conj:but'
p2031
I19
tp2032
a(I19
S'acl'
p2033
I20
tp2034
a(I20
S'advmod'
p2035
I21
tp2036
a(I5
S'punct'
p2037
I22
tp2038
a(I5
S'punct'
p2039
I23
tp2040
aa(lp2041
(I0
g3
I0
tp2042
a(I2
S'case'
p2043
I1
tp2044
a(I0
S'nmod:in'
p2045
I2
tp2046
a(I4
S'nsubj'
p2047
I3
tp2048
a(I2
S'acl:relcl'
p2049
I4
tp2050
a(I4
S'punct'
p2051
I5
tp2052
a(I7
S'advmod'
p2053
I6
tp2054
a(I4
S'advmod'
p2055
I7
tp2056
a(I4
S'punct'
p2057
I8
tp2058
a(I13
S'mark'
p2059
I9
tp2060
a(I9
S'mwe'
p2061
I10
tp2062
a(I13
S'nsubj'
p2063
I11
tp2064
a(I13
S'aux'
p2065
I12
tp2066
a(I4
S'advcl'
p2067
I13
tp2068
a(I16
S'case'
p2069
I14
tp2070
a(I16
S'det'
p2071
I15
tp2072
a(I13
S'nmod:of'
p2073
I16
tp2074
a(I19
S'case'
p2075
I17
tp2076
a(I19
S'amod'
p2077
I18
tp2078
a(I16
S'nmod:of'
p2079
I19
tp2080
a(I19
S'punct'
p2081
I20
tp2082
a(I19
S'punct'
p2083
I21
tp2084
a(I24
S'mark'
p2085
I22
tp2086
a(I24
S'nsubj'
p2087
I23
tp2088
a(I19
S'dep'
p2089
I24
tp2090
a(I24
S'punct'
p2091
I25
tp2092
a(I24
S'parataxis'
p2093
I26
tp2094
a(I29
S'nsubj'
p2095
I27
tp2096
a(I29
S'det'
p2097
I28
tp2098
a(I26
S'xcomp'
p2099
I29
tp2100
a(I19
S'punct'
p2101
I30
tp2102
a(I19
S'punct'
p2103
I31
tp2104
aa(lp2105
(I10
g3
I10
tp2106
a(I5
S'advmod'
p2107
I0
tp2108
a(I2
S'det'
p2109
I1
tp2110
a(I5
S'nsubj'
p2111
I2
tp2112
a(I5
S'cop'
p2113
I3
tp2114
a(I5
S'advmod'
p2115
I4
tp2116
a(I10
S'advcl'
p2117
I5
tp2118
a(I10
S'punct'
p2119
I6
tp2120
a(I10
S'nsubj'
p2121
I7
tp2122
a(I10
S'aux'
p2123
I8
tp2124
a(I10
S'neg'
p2125
I9
tp2126
a(I10
S'punct'
p2127
I11
tp2128
aa(lp2129
(I22
g3
I22
tp2130
a(I22
S'ccomp'
p2131
I0
tp2132
a(I4
S'mark'
p2133
I1
tp2134
a(I4
S'nsubj'
p2135
I2
tp2136
a(I4
S'aux'
p2137
I3
tp2138
a(I0
S'dep'
p2139
I4
tp2140
a(I6
S'case'
p2141
I5
tp2142
a(I4
S'nmod:to'
p2143
I6
tp2144
a(I6
S'punct'
p2145
I7
tp2146
a(I10
S'det'
p2147
I8
tp2148
a(I10
S'nummod'
p2149
I9
tp2150
a(I6
S'appos'
p2151
I10
tp2152
a(I14
S'case'
p2153
I11
tp2154
a(I14
S'det'
p2155
I12
tp2156
a(I14
S'amod'
p2157
I13
tp2158
a(I10
S'nmod:from'
p2159
I14
tp2160
a(I4
S'cc'
p2161
I15
tp2162
a(I17
S'case'
p2163
I16
tp2164
a(I19
S'case'
p2165
I18
tp2166
a(I17
S'nmod:of'
p2167
I19
tp2168
a(I22
S'punct'
p2169
I20
tp2170
a(I22
S'nsubj'
p2171
I21
tp2172
a(I22
S'compound:prt'
p2173
I23
tp2174
a(I26
S'case'
p2175
I24
tp2176
a(I26
S'nmod:poss'
p2177
I25
tp2178
a(I22
S'nmod:of'
p2179
I26
tp2180
a(I28
S'det'
p2181
I27
tp2182
a(I26
S'dep'
p2183
I28
tp2184
a(I30
S'case'
p2185
I29
tp2186
a(I28
S'nmod:of'
p2187
I30
tp2188
a(I26
S'cc'
p2189
I31
tp2190
a(I33
S'nmod:poss'
p2191
I32
tp2192
a(I26
S'conj:and'
p2193
I33
tp2194
a(I33
S'punct'
p2195
I34
tp2196
a(I33
S'dep'
p2197
I35
tp2198
a(I22
S'punct'
p2199
I36
tp2200
aa(lp2201
(I3
g3
I3
tp2202
a(I3
S'cc'
p2203
I0
tp2204
a(I3
S'advmod'
p2205
I1
tp2206
a(I3
S'nsubj'
p2207
I2
tp2208
a(I9
S'advmod'
p2209
I4
tp2210
a(I6
S'nmod:poss'
p2211
I5
tp2212
a(I9
S'nsubjpass'
p2213
I6
tp2214
a(I9
S'aux'
p2215
I7
tp2216
a(I9
S'auxpass'
p2217
I8
tp2218
a(I3
S'ccomp'
p2219
I9
tp2220
a(I11
S'case'
p2221
I10
tp2222
a(I9
S'nmod:on'
p2223
I11
tp2224
a(I11
S'punct'
p2225
I12
tp2226
a(I11
S'appos'
p2227
I13
tp2228
a(I13
S'punct'
p2229
I14
tp2230
a(I13
S'conj:and'
p2231
I15
tp2232
a(I13
S'punct'
p2233
I16
tp2234
a(I13
S'cc'
p2235
I17
tp2236
a(I13
S'conj:and'
p2237
I18
tp2238
a(I3
S'punct'
p2239
I19
tp2240
a(I3
S'cc'
p2241
I20
tp2242
a(I22
S'nsubj'
p2243
I21
tp2244
a(I3
S'conj:and'
p2245
I22
tp2246
a(I25
S'det'
p2247
I23
tp2248
a(I25
S'amod'
p2249
I24
tp2250
a(I26
S'nsubj'
p2251
I25
tp2252
a(I22
S'ccomp'
p2253
I26
tp2254
a(I28
S'det'
p2255
I27
tp2256
a(I26
S'dobj'
p2257
I28
tp2258
a(I31
S'advmod'
p2259
I29
tp2260
a(I31
S'punct'
p2261
I30
tp2262
a(I26
S'advmod'
p2263
I31
tp2264
a(I31
S'advmod'
p2265
I32
tp2266
a(I37
S'mark'
p2267
I33
tp2268
a(I37
S'nsubj'
p2269
I34
tp2270
a(I37
S'aux'
p2271
I35
tp2272
a(I37
S'neg'
p2273
I36
tp2274
a(I26
S'ccomp'
p2275
I37
tp2276
a(I40
S'advmod'
p2277
I38
tp2278
a(I40
S'mark'
p2279
I39
tp2280
a(I37
S'ccomp'
p2281
I40
tp2282
a(I3
S'punct'
p2283
I41
tp2284
aa(lp2285
(I1
g3
I1
tp2286
a(I1
S'nsubj'
p2287
I0
tp2288
a(I1
S'dobj'
p2289
I2
tp2290
a(I2
S'punct'
p2291
I3
tp2292
a(I2
S'punct'
p2293
I4
tp2294
a(I8
S'nsubj'
p2295
I5
tp2296
a(I8
S'aux'
p2297
I6
tp2298
a(I8
S'neg'
p2299
I7
tp2300
a(I2
S'acl:relcl'
p2301
I8
tp2302
a(I1
S'punct'
p2303
I9
tp2304
aa(lp2305
(I0
g3
I0
tp2306
a(I0
S'iobj'
p2307
I1
tp2308
a(I3
S'det'
p2309
I2
tp2310
a(I0
S'dobj'
p2311
I3
tp2312
a(I0
S'punct'
p2313
I4
tp2314
a(I0
S'punct'
p2315
I5
tp2316
aa(lp2317
(I4
g3
I4
tp2318
a(I4
S'cc'
p2319
I0
tp2320
a(I4
S'nsubj'
p2321
I1
tp2322
a(I4
S'aux'
p2323
I2
tp2324
a(I4
S'neg'
p2325
I3
tp2326
a(I6
S'det'
p2327
I5
tp2328
a(I4
S'dobj'
p2329
I6
tp2330
a(I4
S'punct'
p2331
I7
tp2332
aa(lp2333
(I2
g3
I2
tp2334
a(I2
S'dep'
p2335
I0
tp2336
a(I2
S'nsubj'
p2337
I1
tp2338
a(I4
S'case'
p2339
I3
tp2340
a(I2
S'nmod:for'
p2341
I4
tp2342
a(I2
S'dobj'
p2343
I5
tp2344
a(I9
S'case'
p2345
I6
tp2346
a(I9
S'det'
p2347
I7
tp2348
a(I9
S'nummod'
p2349
I8
tp2350
a(I5
S'nmod:of'
p2351
I9
tp2352
a(I12
S'nsubj'
p2353
I10
tp2354
a(I12
S'aux'
p2355
I11
tp2356
a(I5
S'acl:relcl'
p2357
I12
tp2358
a(I14
S'advmod'
p2359
I13
tp2360
a(I12
S'advmod'
p2361
I14
tp2362
a(I2
S'punct'
p2363
I15
tp2364
aa(lp2365
(I2
g3
I2
tp2366
a(I2
S'nsubj'
p2367
I0
tp2368
a(I2
S'cop'
p2369
I1
tp2370
a(I6
S'case'
p2371
I3
tp2372
a(I6
S'det'
p2373
I4
tp2374
a(I6
S'compound'
p2375
I5
tp2376
a(I2
S'nmod:of'
p2377
I6
tp2378
a(I9
S'case'
p2379
I7
tp2380
a(I9
S'det'
p2381
I8
tp2382
a(I2
S'nmod:from'
p2383
I9
tp2384
a(I2
S'punct'
p2385
I10
tp2386
aa(lp2387
(I3
g3
I3
tp2388
a(I3
S'cc'
p2389
I0
tp2390
a(I3
S'nsubj'
p2391
I1
tp2392
a(I3
S'cop'
p2393
I2
tp2394
a(I5
S'mark'
p2395
I4
tp2396
a(I3
S'xcomp'
p2397
I5
tp2398
a(I8
S'det'
p2399
I6
tp2400
a(I8
S'amod'
p2401
I7
tp2402
a(I9
S'nsubj'
p2403
I8
tp2404
a(I5
S'ccomp'
p2405
I9
tp2406
a(I9
S'dobj'
p2407
I10
tp2408
a(I9
S'nmod'
p2409
I11
tp2410
a(I5
S'punct'
p2411
I12
tp2412
a(I5
S'punct'
p2413
I13
tp2414
a(I5
S'discourse'
p2415
I14
tp2416
a(I3
S'punct'
p2417
I15
tp2418
a(I18
S'dep'
p2419
I16
tp2420
a(I18
S'punct'
p2421
I17
tp2422
a(I3
S'parataxis'
p2423
I18
tp2424
a(I3
S'punct'
p2425
I19
tp2426
aa(lp2427
(I3
g3
I3
tp2428
a(I3
S'nsubj'
p2429
I0
tp2430
a(I3
S'aux'
p2431
I1
tp2432
a(I3
S'neg'
p2433
I2
tp2434
a(I5
S'det'
p2435
I4
tp2436
a(I3
S'dobj'
p2437
I5
tp2438
a(I9
S'case'
p2439
I6
tp2440
a(I9
S'det'
p2441
I7
tp2442
a(I9
S'compound'
p2443
I8
tp2444
a(I5
S'nmod:inside'
p2445
I9
tp2446
a(I3
S'punct'
p2447
I10
tp2448
aa(lp2449
(I7
g3
I7
tp2450
a(I2
S'det'
p2451
I0
tp2452
a(I2
S'compound'
p2453
I1
tp2454
a(I7
S'nsubj'
p2455
I2
tp2456
a(I7
S'cop'
p2457
I3
tp2458
a(I7
S'det'
p2459
I4
tp2460
a(I6
S'advmod'
p2461
I5
tp2462
a(I7
S'amod'
p2463
I6
tp2464
a(I7
S'punct'
p2465
I8
tp2466
a(I7
S'cc'
p2467
I9
tp2468
a(I11
S'det'
p2469
I10
tp2470
a(I14
S'nsubj'
p2471
I11
tp2472
a(I14
S'cop'
p2473
I12
tp2474
a(I14
S'advmod'
p2475
I13
tp2476
a(I7
S'conj:and'
p2477
I14
tp2478
a(I7
S'punct'
p2479
I15
tp2480
aa(lp2481
(I7
g3
I7
tp2482
a(I2
S'advmod'
p2483
I0
tp2484
a(I2
S'nsubj'
p2485
I1
tp2486
a(I7
S'advcl'
p2487
I2
tp2488
a(I7
S'punct'
p2489
I3
tp2490
a(I7
S'nsubj'
p2491
I4
tp2492
a(I7
S'cop'
p2493
I5
tp2494
a(I7
S'advmod'
p2495
I6
tp2496
a(I7
S'punct'
p2497
I8
tp2498
aa(lp2499
(I5
g3
I5
tp2500
a(I2
S'dobj'
p2501
I0
tp2502
a(I2
S'nsubj'
p2503
I1
tp2504
a(I5
S'csubj'
p2505
I2
tp2506
a(I5
S'cop'
p2507
I3
tp2508
a(I5
S'det'
p2509
I4
tp2510
a(I5
S'punct'
p2511
I6
tp2512
aa(lp2513
(I0
g3
I0
tp2514
a(I0
S'iobj'
p2515
I1
tp2516
a(I3
S'det'
p2517
I2
tp2518
a(I0
S'dobj'
p2519
I3
tp2520
a(I0
S'punct'
p2521
I4
tp2522
a(I0
S'punct'
p2523
I5
tp2524
aa(lp2525
(I3
g3
I3
tp2526
a(I3
S'advmod'
p2527
I0
tp2528
a(I3
S'advmod'
p2529
I1
tp2530
a(I3
S'nsubj'
p2531
I2
tp2532
a(I5
S'det'
p2533
I4
tp2534
a(I3
S'dobj'
p2535
I5
tp2536
a(I3
S'punct'
p2537
I6
tp2538
aa(lp2539
(I1
g3
I1
tp2540
a(I1
S'nsubj'
p2541
I0
tp2542
a(I3
S'case'
p2543
I2
tp2544
a(I1
S'nmod:at'
p2545
I3
tp2546
a(I1
S'advmod'
p2547
I4
tp2548
a(I1
S'punct'
p2549
I5
tp2550
a(I8
S'advmod'
p2551
I6
tp2552
a(I8
S'nsubj'
p2553
I7
tp2554
a(I1
S'parataxis'
p2555
I8
tp2556
a(I8
S'punct'
p2557
I9
tp2558
a(I8
S'punct'
p2559
I10
tp2560
a(I8
S'discourse'
p2561
I11
tp2562
a(I1
S'punct'
p2563
I12
tp2564
aa(lp2565
(I5
g3
I5
tp2566
a(I1
S'det'
p2567
I0
tp2568
a(I5
S'nsubj'
p2569
I1
tp2570
a(I5
S'cop'
p2571
I2
tp2572
a(I5
S'advmod'
p2573
I3
tp2574
a(I5
S'advmod'
p2575
I4
tp2576
a(I5
S'punct'
p2577
I6
tp2578
aa(lp2579
(I0
g3
I0
tp2580
a(I2
S'nsubj'
p2581
I1
tp2582
a(I0
S'xcomp'
p2583
I2
tp2584
a(I0
S'punct'
p2585
I3
tp2586
a(I0
S'punct'
p2587
I4
tp2588
aa(lp2589
(I2
g3
I2
tp2590
a(I2
S'dep'
p2591
I0
tp2592
a(I2
S'nsubj'
p2593
I1
tp2594
a(I4
S'det'
p2595
I3
tp2596
a(I2
S'dobj'
p2597
I4
tp2598
a(I2
S'punct'
p2599
I5
tp2600
aa(lp2601
(I2
g3
I2
tp2602
a(I1
S'nmod:poss'
p2603
I0
tp2604
a(I2
S'nsubj'
p2605
I1
tp2606
a(I4
S'advmod'
p2607
I3
tp2608
a(I2
S'advmod'
p2609
I4
tp2610
a(I4
S'advmod'
p2611
I5
tp2612
a(I2
S'punct'
p2613
I6
tp2614
aa(lp2615
(I2
g3
I2
tp2616
a(I2
S'punct'
p2617
I0
tp2618
a(I2
S'nsubj'
p2619
I1
tp2620
a(I2
S'dobj'
p2621
I3
tp2622
a(I7
S'punct'
p2623
I4
tp2624
a(I6
S'punct'
p2625
I5
tp2626
a(I7
S'nsubj'
p2627
I6
tp2628
a(I2
S'parataxis'
p2629
I7
tp2630
a(I7
S'punct'
p2631
I8
tp2632
a(I2
S'punct'
p2633
I9
tp2634
a(I15
S'mark'
p2635
I10
tp2636
a(I15
S'nsubj'
p2637
I11
tp2638
a(I15
S'cop'
p2639
I12
tp2640
a(I15
S'neg'
p2641
I13
tp2642
a(I15
S'det'
p2643
I14
tp2644
a(I2
S'dep'
p2645
I15
tp2646
a(I2
S'punct'
p2647
I16
tp2648
aa(lp2649
(I3
g3
I3
tp2650
a(I3
S'nsubj'
p2651
I0
tp2652
a(I3
S'cop'
p2653
I1
tp2654
a(I3
S'det'
p2655
I2
tp2656
a(I3
S'punct'
p2657
I4
tp2658
aa(lp2659
(I1
g3
I1
tp2660
a(I1
S'nsubj'
p2661
I0
tp2662
a(I1
S'dobj'
p2663
I2
tp2664
a(I1
S'punct'
p2665
I3
tp2666
a(I1
S'punct'
p2667
I4
tp2668
aa(lp2669
(I3
g3
I3
tp2670
a(I3
S'advmod'
p2671
I0
tp2672
a(I3
S'advmod'
p2673
I1
tp2674
a(I3
S'nsubj'
p2675
I2
tp2676
a(I5
S'nmod:poss'
p2677
I4
tp2678
a(I3
S'dobj'
p2679
I5
tp2680
a(I8
S'case'
p2681
I6
tp2682
a(I8
S'advmod'
p2683
I7
tp2684
a(I3
S'advcl:over'
p2685
I8
tp2686
a(I3
S'punct'
p2687
I9
tp2688
aa(lp2689
(I3
g3
I3
tp2690
a(I3
S'cc'
p2691
I0
tp2692
a(I3
S'nsubjpass'
p2693
I1
tp2694
a(I3
S'auxpass'
p2695
I2
tp2696
a(I3
S'advmod'
p2697
I4
tp2698
a(I3
S'punct'
p2699
I5
tp2700
a(I3
S'advmod'
p2701
I6
tp2702
a(I9
S'case'
p2703
I7
tp2704
a(I9
S'det'
p2705
I8
tp2706
a(I3
S'nmod:like'
p2707
I9
tp2708
a(I3
S'punct'
p2709
I10
tp2710
aa(lp2711
(I5
g3
I5
tp2712
a(I5
S'punct'
p2713
I0
tp2714
a(I2
S'det'
p2715
I1
tp2716
a(I5
S'nsubj'
p2717
I2
tp2718
a(I5
S'cop'
p2719
I3
tp2720
a(I5
S'advmod'
p2721
I4
tp2722
a(I5
S'punct'
p2723
I6
tp2724
aa(lp2725
(I1
g3
I1
tp2726
a(I1
S'nsubj'
p2727
I0
tp2728
a(I3
S'det'
p2729
I2
tp2730
a(I1
S'dobj'
p2731
I3
tp2732
a(I6
S'nsubj'
p2733
I4
tp2734
a(I6
S'aux'
p2735
I5
tp2736
a(I3
S'acl:relcl'
p2737
I6
tp2738
a(I9
S'det'
p2739
I7
tp2740
a(I9
S'amod'
p2741
I8
tp2742
a(I6
S'dobj'
p2743
I9
tp2744
a(I1
S'punct'
p2745
I10
tp2746
a(I1
S'punct'
p2747
I11
tp2748
aa(lp2749
(I6
g3
I6
tp2750
a(I2
S'case'
p2751
I0
tp2752
a(I2
S'det'
p2753
I1
tp2754
a(I6
S'nmod:agent'
p2755
I2
tp2756
a(I4
S'nmod:poss'
p2757
I3
tp2758
a(I6
S'nsubjpass'
p2759
I4
tp2760
a(I6
S'auxpass'
p2761
I5
tp2762
a(I6
S'punct'
p2763
I7
tp2764
a(I13
S'mark'
p2765
I8
tp2766
a(I13
S'nsubj'
p2767
I9
tp2768
a(I13
S'cop'
p2769
I10
tp2770
a(I13
S'case'
p2771
I11
tp2772
a(I13
S'det'
p2773
I12
tp2774
a(I6
S'advcl:in'
p2775
I13
tp2776
a(I15
S'mark'
p2777
I14
tp2778
a(I13
S'acl'
p2779
I15
tp2780
a(I15
S'xcomp'
p2781
I16
tp2782
a(I18
S'nmod:poss'
p2783
I17
tp2784
a(I16
S'dobj'
p2785
I18
tp2786
a(I16
S'advmod'
p2787
I19
tp2788
a(I6
S'punct'
p2789
I20
tp2790
aa(lp2791
(I2
g3
I2
tp2792
a(I2
S'dep'
p2793
I0
tp2794
a(I2
S'nsubj'
p2795
I1
tp2796
a(I2
S'compound:prt'
p2797
I3
tp2798
a(I5
S'det'
p2799
I4
tp2800
a(I2
S'dobj'
p2801
I5
tp2802
a(I2
S'punct'
p2803
I6
tp2804
aa(lp2805
(I2
g3
I2
tp2806
a(I2
S'cc'
p2807
I0
tp2808
a(I2
S'nsubj'
p2809
I1
tp2810
a(I2
S'compound:prt'
p2811
I3
tp2812
a(I5
S'det'
p2813
I4
tp2814
a(I2
S'dobj'
p2815
I5
tp2816
a(I7
S'case'
p2817
I6
tp2818
a(I5
S'nmod:with'
p2819
I7
tp2820
a(I2
S'punct'
p2821
I8
tp2822
aa(lp2823
(I5
g3
I5
tp2824
a(I5
S'punct'
p2825
I0
tp2826
a(I5
S'nsubj'
p2827
I1
tp2828
a(I5
S'cop'
p2829
I2
tp2830
a(I5
S'advmod'
p2831
I3
tp2832
a(I5
S'nmod:poss'
p2833
I4
tp2834
a(I5
S'punct'
p2835
I6
tp2836
aa(lp2837
(I5
g3
I5
tp2838
a(I1
S'det'
p2839
I0
tp2840
a(I5
S'nsubj'
p2841
I1
tp2842
a(I3
S'nsubj'
p2843
I2
tp2844
a(I1
S'acl:relcl'
p2845
I3
tp2846
a(I3
S'nmod'
p2847
I4
tp2848
a(I5
S'advmod'
p2849
I6
tp2850
a(I5
S'punct'
p2851
I7
tp2852
a(I5
S'punct'
p2853
I8
tp2854
aa(lp2855
(I3
g3
I3
tp2856
a(I3
S'nsubj'
p2857
I0
tp2858
a(I3
S'cop'
p2859
I1
tp2860
a(I3
S'advmod'
p2861
I2
tp2862
a(I5
S'mark'
p2863
I4
tp2864
a(I3
S'xcomp'
p2865
I5
tp2866
a(I8
S'det'
p2867
I6
tp2868
a(I8
S'amod'
p2869
I7
tp2870
a(I5
S'dobj'
p2871
I8
tp2872
a(I11
S'case'
p2873
I9
tp2874
a(I11
S'det'
p2875
I10
tp2876
a(I5
S'nmod:over'
p2877
I11
tp2878
a(I15
S'case'
p2879
I12
tp2880
a(I15
S'nmod:poss'
p2881
I13
tp2882
a(I15
S'amod'
p2883
I14
tp2884
a(I11
S'nmod:of'
p2885
I15
tp2886
a(I11
S'punct'
p2887
I16
tp2888
a(I11
S'punct'
p2889
I17
tp2890
a(I22
S'nsubj'
p2891
I18
tp2892
a(I22
S'cop'
p2893
I19
tp2894
a(I22
S'advmod'
p2895
I20
tp2896
a(I22
S'det'
p2897
I21
tp2898
a(I11
S'dep'
p2899
I22
tp2900
a(I24
S'nsubj'
p2901
I23
tp2902
a(I22
S'acl:relcl'
p2903
I24
tp2904
a(I24
S'dobj'
p2905
I25
tp2906
a(I3
S'punct'
p2907
I26
tp2908
aa(lp2909
(I0
g3
I0
tp2910
a(I2
S'nsubj'
p2911
I1
tp2912
a(I0
S'ccomp'
p2913
I2
tp2914
a(I7
S'mark'
p2915
I3
tp2916
a(I5
S'det'
p2917
I4
tp2918
a(I7
S'nsubj'
p2919
I5
tp2920
a(I7
S'aux'
p2921
I6
tp2922
a(I2
S'ccomp'
p2923
I7
tp2924
a(I9
S'mark'
p2925
I8
tp2926
a(I7
S'xcomp'
p2927
I9
tp2928
a(I12
S'det'
p2929
I10
tp2930
a(I12
S'amod'
p2931
I11
tp2932
a(I9
S'dobj'
p2933
I12
tp2934
a(I14
S'case'
p2935
I13
tp2936
a(I12
S'nmod:of'
p2937
I14
tp2938
a(I0
S'punct'
p2939
I15
tp2940
a(I0
S'punct'
p2941
I16
tp2942
aa(lp2943
(I1
g3
I1
tp2944
a(I1
S'punct'
p2945
I0
tp2946
a(I1
S'punct'
p2947
I2
tp2948
a(I1
S'punct'
p2949
I3
tp2950
aa(lp2951
(I8
g3
I8
tp2952
a(I4
S'punct'
p2953
I0
tp2954
a(I4
S'mark'
p2955
I1
tp2956
a(I4
S'advmod'
p2957
I2
tp2958
a(I4
S'nsubj'
p2959
I3
tp2960
a(I8
S'csubj'
p2961
I4
tp2962
a(I4
S'dobj'
p2963
I5
tp2964
a(I8
S'cop'
p2965
I6
tp2966
a(I8
S'advmod'
p2967
I7
tp2968
a(I8
S'punct'
p2969
I9
tp2970
a(I8
S'punct'
p2971
I10
tp2972
aa(lp2973
(I6
g3
I6
tp2974
a(I6
S'punct'
p2975
I0
tp2976
a(I6
S'expl'
p2977
I1
tp2978
a(I6
S'aux'
p2979
I2
tp2980
a(I6
S'advmod'
p2981
I3
tp2982
a(I6
S'cop'
p2983
I4
tp2984
a(I6
S'amod'
p2985
I5
tp2986
a(I8
S'case'
p2987
I7
tp2988
a(I6
S'nmod:for'
p2989
I8
tp2990
a(I6
S'punct'
p2991
I9
tp2992
a(I6
S'punct'
p2993
I10
tp2994
aa(lp2995
(I1
g3
I1
tp2996
a(I1
S'nsubj'
p2997
I0
tp2998
a(I1
S'punct'
p2999
I2
tp3000
aa(lp3001
(I6
g3
I6
tp3002
a(I6
S'punct'
p3003
I0
tp3004
a(I6
S'nsubj'
p3005
I1
tp3006
a(I6
S'cop'
p3007
I2
tp3008
a(I6
S'det'
p3009
I3
tp3010
a(I5
S'advmod'
p3011
I4
tp3012
a(I6
S'amod'
p3013
I5
tp3014
a(I10
S'mark'
p3015
I7
tp3016
a(I10
S'nsubj'
p3017
I8
tp3018
a(I10
S'aux'
p3019
I9
tp3020
a(I6
S'ccomp'
p3021
I10
tp3022
a(I10
S'dobj'
p3023
I11
tp3024
a(I6
S'punct'
p3025
I12
tp3026
a(I6
S'punct'
p3027
I13
tp3028
aa(lp3029
(I1
g3
I1
tp3030
a(I1
S'nsubj'
p3031
I0
tp3032
a(I3
S'nmod:poss'
p3033
I2
tp3034
a(I1
S'dobj'
p3035
I3
tp3036
a(I6
S'case'
p3037
I4
tp3038
a(I6
S'det'
p3039
I5
tp3040
a(I3
S'nmod:over'
p3041
I6
tp3042
a(I3
S'punct'
p3043
I7
tp3044
a(I11
S'punct'
p3045
I8
tp3046
a(I11
S'neg'
p3047
I9
tp3048
a(I11
S'advmod'
p3049
I10
tp3050
a(I3
S'dep'
p3051
I11
tp3052
a(I11
S'dep'
p3053
I12
tp3054
a(I11
S'punct'
p3055
I13
tp3056
a(I11
S'dep'
p3057
I14
tp3058
a(I14
S'punct'
p3059
I15
tp3060
aa.