(lp1
(lp2
(I0
S'top'
p3
I0
tp4
a(I1
S'mod'
p5
I0
tp6
a(I2
S'spec'
p7
I3
tp8
a(I3
S'comp'
p9
I1
tp10
a(I4
S'mod'
p11
I0
tp12
a(I5
S'comp'
p13
I4
tp14
aa(lp15
(I0
S'coor'
p16
I15
tp17
a(I1
S'adjt'
p18
I0
tp19
a(I2
S'spec'
p20
I3
tp21
a(I3
S'dobj'
p22
I1
tp23
a(I4
S'mod'
p24
I3
tp25
a(I5
S'comp'
p26
I4
tp27
a(I6
S'mod'
p28
I3
tp29
a(I7
S'spec'
p30
I8
tp31
a(I8
S'comp'
p32
I6
tp33
a(I9
S'punc'
p34
I0
tp35
a(I10
S'adjt'
p36
I0
tp37
a(I11
S'spec'
p38
I12
tp39
a(I12
S'adjt'
p40
I0
tp41
a(I13
S'adjt'
p42
I0
tp43
a(I14
S'punc'
p44
I15
tp45
a(I15
S'top'
p46
I0
tp47
a(I16
S'coor'
p48
I15
tp49
a(I17
S'adjt'
p50
I16
tp51
a(I18
S'comp'
p52
I17
tp53
a(I19
S'spec'
p54
I20
tp55
a(I20
S'dobj'
p56
I16
tp57
a(I21
S'mod'
p58
I20
tp59
a(I22
S'comp'
p60
I21
tp61
a(I23
S'aux'
p62
I24
tp63
a(I24
S'comp'
p64
I22
tp65
a(I25
S'spec'
p66
I27
tp67
a(I26
S'mod'
p68
I27
tp69
a(I27
S'dobj'
p70
I24
tp71
a(I28
S'punc'
p72
I15
tp73
aa(lp74
(I0
S'adjt'
p75
I4
tp76
a(I1
S'comp'
p77
I0
tp78
a(I2
S'aux'
p79
I4
tp80
a(I3
S'prt'
p81
I4
tp82
a(I4
S'top'
p83
I0
tp84
a(I5
S'punc'
p85
I4
tp86
a(I6
S'spec'
p87
I7
tp88
a(I7
S'dobj'
p89
I4
tp90
a(I8
S'punc'
p91
I4
tp92
a(I9
S'modnomatch'
p93
I4
tp94
a(I10
S'adjt'
p95
I4
tp96
a(I11
S'spec'
p97
I12
tp98
a(I12
S'comp'
p99
I10
tp100
a(I13
S'punc'
p101
I4
tp102
a(I14
S'spec'
p103
I17
tp104
a(I15
S'mphes'
p105
I17
tp106
a(I16
S'aux'
p107
I17
tp108
a(I17
S'modnomatch'
p109
I4
tp110
a(I18
S'punc'
p111
I17
tp112
a(I19
S'adjt'
p113
I17
tp114
a(I20
S'comp'
p115
I19
tp116
a(I21
S'punc'
p117
I17
tp118
a(I22
S'spec'
p119
I23
tp120
a(I23
S'subj'
p121
I30
tp122
a(I24
S'mod'
p123
I23
tp124
a(I25
S'comp'
p125
I24
tp126
a(I26
S'mod'
p127
I23
tp128
a(I27
S'spec'
p129
I28
tp130
a(I28
S'comp'
p131
I26
tp132
a(I29
S'aux'
p133
I30
tp134
a(I30
S'modnomatch'
p135
I4
tp136
a(I31
S'attr'
p137
I30
tp138
a(I32
S'mod'
p139
I31
tp140
a(I33
S'comp'
p141
I32
tp142
a(I34
S'mod'
p143
I33
tp144
a(I35
S'spec'
p145
I36
tp146
a(I36
S'mod'
p147
I31
tp148
a(I37
S'punc'
p149
I30
tp150
aa(lp151
(I0
S'spec'
p152
I1
tp153
a(I1
S'subj'
p154
I3
tp155
a(I2
S'aux'
p156
I3
tp157
a(I3
S'top'
p158
I0
tp159
a(I4
S'spec'
p160
I5
tp161
a(I5
S'modnomatch'
p162
I3
tp163
a(I6
S'adjt'
p164
I3
tp165
a(I7
S'spec'
p166
I8
tp167
a(I8
S'comp'
p168
I6
tp169
a(I9
S'adjt'
p170
I3
tp171
a(I10
S'spec'
p172
I12
tp173
a(I11
S'mod'
p174
I12
tp175
a(I12
S'comp'
p176
I9
tp177
a(I13
S'punc'
p178
I3
tp179
a(I14
S'adjt'
p180
I3
tp181
a(I15
S'spec'
p182
I16
tp183
a(I16
S'comp'
p184
I14
tp185
a(I17
S'mod'
p186
I16
tp187
a(I18
S'spec'
p188
I19
tp189
a(I19
S'comp'
p190
I17
tp191
a(I20
S'mod'
p192
I19
tp193
a(I21
S'comp'
p194
I20
tp195
a(I22
S'punc'
p196
I3
tp197
aa(lp198
(I0
S'adjt'
p199
I14
tp200
a(I1
S'comp'
p201
I0
tp202
a(I2
S'mphes'
p203
I3
tp204
a(I3
S'comp'
p205
I1
tp206
a(I4
S'punc'
p207
I0
tp208
a(I5
S'adjt'
p209
I14
tp210
a(I6
S'spec'
p211
I7
tp212
a(I7
S'comp'
p213
I5
tp214
a(I8
S'subj'
p215
I12
tp216
a(I9
S'mphes'
p217
I12
tp218
a(I10
S'dobj'
p219
I12
tp220
a(I11
S'aux'
p221
I12
tp222
a(I12
S'subj'
p223
I14
tp224
a(I13
S'punc'
p225
I12
tp226
a(I14
S'top'
p227
I0
tp228
a(I15
S'dobj'
p229
I14
tp230
a(I16
S'comp'
p231
I15
tp232
a(I17
S'spec'
p233
I18
tp234
a(I18
S'adjt'
p235
I16
tp236
a(I19
S'mod'
p237
I18
tp238
a(I20
S'comp'
p239
I19
tp240
a(I21
S'modnomatch'
p241
I14
tp242
a(I22
S'modnomatch'
p243
I14
tp244
a(I23
S'spec'
p245
I24
tp246
a(I24
S'modnomatch'
p247
I14
tp248
a(I25
S'mod'
p249
I24
tp250
a(I26
S'spec'
p251
I27
tp252
a(I27
S'comp'
p253
I25
tp254
a(I28
S'punc'
p255
I24
tp256
a(I29
S'adjt'
p257
I14
tp258
a(I30
S'spec'
p259
I32
tp260
a(I31
S'mod'
p261
I32
tp262
a(I32
S'comp'
p263
I29
tp264
a(I33
S'mod'
p265
I32
tp266
a(I34
S'spec'
p267
I35
tp268
a(I35
S'comp'
p269
I33
tp270
a(I36
S'adjt'
p271
I14
tp272
a(I37
S'punc'
p273
I14
tp274
aa(lp275
(I0
S'top'
p276
I0
tp277
a(I1
S'modnomatch'
p278
I0
tp279
a(I2
S'modnomatch'
p280
I0
tp281
a(I3
S'adjt'
p282
I0
tp283
a(I4
S'comp'
p284
I3
tp285
a(I5
S'mphes'
p286
I6
tp287
a(I6
S'comp'
p288
I4
tp289
a(I7
S'pobj'
p290
I6
tp291
a(I8
S'comp'
p292
I7
tp293
a(I9
S'pobj'
p294
I6
tp295
a(I10
S'comp'
p296
I9
tp297
a(I11
S'spec'
p298
I12
tp299
a(I12
S'adjt'
p300
I10
tp301
a(I13
S'adjt'
p302
I10
tp303
a(I14
S'comp'
p304
I13
tp305
a(I15
S'punc'
p306
I3
tp307
aa(lp308
(I0
S'top'
p309
I0
tp310
a(I1
S'spec'
p311
I2
tp312
a(I2
S'subj'
p313
I7
tp314
a(I3
S'punc'
p315
I2
tp316
a(I4
S'mod'
p317
I2
tp318
a(I5
S'comp'
p319
I4
tp320
a(I6
S'punc'
p321
I2
tp322
a(I7
S'modnorule'
p323
I0
tp324
a(I8
S'spec'
p325
I9
tp326
a(I9
S'adjt'
p327
I7
tp328
a(I10
S'mod'
p329
I9
tp330
a(I11
S'comp'
p331
I10
tp332
a(I12
S'modnorule'
p333
I0
tp334
aa(lp335
(I0
S'top'
p336
I0
tp337
a(I1
S'punc'
p338
I0
tp339
a(I2
S'spec'
p340
I3
tp341
a(I3
S'mod'
p342
I0
tp343
a(I4
S'mod'
p344
I3
tp345
a(I5
S'comp'
p346
I4
tp347
a(I6
S'punc'
p348
I3
tp349
aa(lp350
(I0
S'top'
p351
I0
tp352
a(I1
S'dobj'
p353
I0
tp354
a(I2
S'adjt'
p355
I0
tp356
a(I3
S'spec'
p357
I4
tp358
a(I4
S'comp'
p359
I2
tp360
a(I5
S'modnomatch'
p361
I0
tp362
a(I6
S'spec'
p363
I7
tp364
a(I7
S'coor'
p365
I5
tp366
a(I8
S'subj'
p367
I11
tp368
a(I9
S'mphes'
p369
I11
tp370
a(I10
S'aux'
p371
I11
tp372
a(I11
S'mod'
p373
I7
tp374
a(I12
S'spec'
p375
I13
tp376
a(I13
S'coor'
p377
I16
tp378
a(I14
S'mod'
p379
I13
tp380
a(I15
S'comp'
p381
I14
tp382
a(I16
S'modnomatch'
p383
I0
tp384
a(I17
S'coor'
p385
I16
tp386
a(I18
S'adjt'
p387
I0
tp388
a(I19
S'comp'
p389
I18
tp390
a(I20
S'punc'
p391
I0
tp392
aa(lp393
(I0
S'subj'
p394
I11
tp395
a(I1
S'mod'
p396
I0
tp397
a(I2
S'spec'
p398
I3
tp399
a(I3
S'comp'
p400
I1
tp401
a(I4
S'subj'
p402
I7
tp403
a(I5
S'adjt'
p404
I7
tp405
a(I6
S'aux'
p406
I7
tp407
a(I7
S'mod'
p408
I0
tp409
a(I8
S'adjt'
p410
I7
tp411
a(I9
S'comp'
p412
I8
tp413
a(I10
S'aux'
p414
I11
tp415
a(I11
S'top'
p416
I0
tp417
a(I12
S'attr'
p418
I11
tp419
a(I13
S'spec'
p420
I14
tp421
a(I14
S'comp'
p422
I12
tp423
a(I15
S'punc'
p424
I11
tp425
a(I16
S'subj'
p426
I20
tp427
a(I17
S'adjt'
p428
I20
tp429
a(I18
S'modnorule'
p430
I19
tp431
a(I19
S'modnomatch'
p432
I17
tp433
a(I20
S'modnomatch'
p434
I11
tp435
a(I21
S'spec'
p436
I22
tp437
a(I22
S'dobj'
p438
I20
tp439
a(I23
S'punc'
p440
I11
tp441
aa(lp442
(I0
S'punc'
p443
I2
tp444
a(I1
S'aux'
p445
I2
tp446
a(I2
S'top'
p447
I0
tp448
a(I3
S'subj'
p449
I2
tp450
a(I4
S'subj'
p451
I8
tp452
a(I5
S'punc'
p453
I4
tp454
a(I6
S'modnomatch'
p455
I8
tp456
a(I7
S'punc'
p457
I6
tp458
a(I8
S'comp'
p459
I3
tp460
a(I9
S'spec'
p461
I10
tp462
a(I10
S'dobj'
p463
I8
tp464
a(I11
S'adjt'
p465
I8
tp466
a(I12
S'spec'
p467
I13
tp468
a(I13
S'comp'
p469
I11
tp470
a(I14
S'adjt'
p471
I8
tp472
a(I15
S'spec'
p473
I16
tp474
a(I16
S'dobj'
p475
I14
tp476
a(I17
S'mod'
p477
I16
tp478
a(I18
S'spec'
p479
I19
tp480
a(I19
S'comp'
p481
I17
tp482
a(I20
S'modnomatch'
p483
I2
tp484
a(I21
S'modnomatch'
p485
I2
tp486
a(I22
S'modnomatch'
p487
I2
tp488
a(I23
S'spec'
p489
I24
tp490
a(I24
S'coor'
p491
I22
tp492
a(I25
S'mod'
p493
I24
tp494
a(I26
S'punc'
p495
I2
tp496
a(I27
S'modnomatch'
p497
I2
tp498
a(I28
S'modnomatch'
p499
I27
tp500
a(I29
S'modnomatch'
p501
I2
tp502
a(I30
S'comp'
p503
I29
tp504
a(I31
S'modnomatch'
p505
I2
tp506
a(I32
S'spec'
p507
I33
tp508
a(I33
S'modnomatch'
p509
I2
tp510
a(I34
S'adjt'
p511
I2
tp512
a(I35
S'comp'
p513
I34
tp514
a(I36
S'spec'
p515
I37
tp516
a(I37
S'dobj'
p517
I35
tp518
a(I38
S'mod'
p519
I37
tp520
a(I39
S'modnomatch'
p521
I2
tp522
a(I40
S'modnomatch'
p523
I2
tp524
a(I41
S'adjt'
p525
I2
tp526
a(I42
S'mod'
p527
I43
tp528
a(I43
S'modnomatch'
p529
I2
tp530
a(I44
S'subj'
p531
I46
tp532
a(I45
S'prt'
p533
I46
tp534
a(I46
S'mod'
p535
I43
tp536
a(I47
S'spec'
p537
I48
tp538
a(I48
S'dobj'
p539
I46
tp540
a(I49
S'punc'
p541
I43
tp542
aa(lp543
(I0
S'adjt'
p544
I5
tp545
a(I1
S'punc'
p546
I0
tp547
a(I2
S'subj'
p548
I5
tp549
a(I3
S'mod'
p550
I2
tp551
a(I4
S'punc'
p552
I2
tp553
a(I5
S'top'
p554
I0
tp555
a(I6
S'modnomatch'
p556
I5
tp557
a(I7
S'spec'
p558
I8
tp559
a(I8
S'dobj'
p560
I5
tp561
a(I9
S'modnomatch'
p562
I8
tp563
a(I10
S'spec'
p564
I11
tp565
a(I11
S'subj'
p566
I15
tp567
a(I12
S'modnomatch'
p568
I15
tp569
a(I13
S'prt'
p570
I15
tp571
a(I14
S'prt'
p572
I15
tp573
a(I15
S'subj'
p574
I16
tp575
a(I16
S'comp'
p576
I9
tp577
a(I17
S'adjt'
p578
I16
tp579
a(I18
S'attr'
p580
I16
tp581
a(I19
S'punc'
p582
I8
tp583
aa(lp584
(I0
S'adjt'
p585
I7
tp586
a(I1
S'spec'
p587
I2
tp588
a(I2
S'subj'
p589
I3
tp590
a(I3
S'comp'
p591
I0
tp592
a(I4
S'attr'
p593
I3
tp594
a(I5
S'comp'
p595
I4
tp596
a(I6
S'punc'
p597
I0
tp598
a(I7
S'top'
p599
I0
tp600
a(I8
S'spec'
p601
I9
tp602
a(I9
S'subj'
p603
I15
tp604
a(I10
S'spec'
p605
I11
tp606
a(I11
S'modnomatch'
p607
I15
tp608
a(I12
S'mod'
p609
I11
tp610
a(I13
S'prt'
p611
I15
tp612
a(I14
S'prt'
p613
I15
tp614
a(I15
S'modnomatch'
p615
I7
tp616
a(I16
S'punc'
p617
I7
tp618
aa(lp619
(I0
S'top'
p620
I0
tp621
a(I1
S'punc'
p622
I0
tp623
a(I2
S'spec'
p624
I3
tp625
a(I3
S'mod'
p626
I0
tp627
a(I4
S'mod'
p628
I3
tp629
a(I5
S'comp'
p630
I4
tp631
a(I6
S'punc'
p632
I3
tp633
aa(lp634
(I0
S'mphes'
p635
I1
tp636
a(I1
S'top'
p637
I0
tp638
a(I2
S'modnomatch'
p639
I1
tp640
a(I3
S'mphes'
p641
I4
tp642
a(I4
S'comp'
p643
I2
tp644
a(I5
S'adjt'
p645
I4
tp646
a(I6
S'spec'
p647
I7
tp648
a(I7
S'comp'
p649
I5
tp650
a(I8
S'dobj'
p651
I4
tp652
a(I9
S'mod'
p653
I8
tp654
a(I10
S'adjt'
p655
I4
tp656
a(I11
S'spec'
p657
I12
tp658
a(I12
S'comp'
p659
I10
tp660
a(I13
S'punc'
p661
I1
tp662
aa(lp663
(I0
S'spec'
p664
I1
tp665
a(I1
S'subj'
p666
I3
tp667
a(I2
S'mphes'
p668
I3
tp669
a(I3
S'top'
p670
I0
tp671
a(I4
S'adjt'
p672
I3
tp673
a(I5
S'spec'
p674
I6
tp675
a(I6
S'comp'
p676
I4
tp677
a(I7
S'pobj'
p678
I11
tp679
a(I8
S'spec'
p680
I9
tp681
a(I9
S'comp'
p682
I7
tp683
a(I10
S'mphes'
p684
I11
tp685
a(I11
S'mod'
p686
I6
tp687
a(I12
S'spec'
p688
I13
tp689
a(I13
S'adjt'
p690
I3
tp691
a(I14
S'punc'
p692
I3
tp693
a(I15
S'adjt'
p694
I3
tp695
a(I16
S'modnomatch'
p696
I3
tp697
a(I17
S'modnomatch'
p698
I3
tp699
a(I18
S'prt'
p700
I20
tp701
a(I19
S'prt'
p702
I20
tp703
a(I20
S'modnomatch'
p704
I3
tp705
a(I21
S'dobj'
p706
I20
tp707
a(I22
S'punc'
p708
I20
tp709
aa(lp710
(I0
S'spec'
p711
I1
tp712
a(I1
S'subj'
p713
I10
tp714
a(I2
S'mod'
p715
I1
tp716
a(I3
S'adjt'
p717
I10
tp718
a(I4
S'spec'
p719
I5
tp720
a(I5
S'comp'
p721
I3
tp722
a(I6
S'adjt'
p723
I10
tp724
a(I7
S'comp'
p725
I6
tp726
a(I8
S'mod'
p727
I7
tp728
a(I9
S'mphes'
p729
I10
tp730
a(I10
S'coor'
p731
I16
tp732
a(I11
S'dobj'
p733
I10
tp734
a(I12
S'spec'
p735
I13
tp736
a(I13
S'comp'
p737
I11
tp738
a(I14
S'spec'
p739
I15
tp740
a(I15
S'adjt'
p741
I10
tp742
a(I16
S'top'
p743
I0
tp744
a(I17
S'coor'
p745
I16
tp746
a(I18
S'spec'
p747
I19
tp748
a(I19
S'dobj'
p749
I17
tp750
a(I20
S'adjt'
p751
I17
tp752
a(I21
S'spec'
p753
I22
tp754
a(I22
S'comp'
p755
I20
tp756
a(I23
S'modnomatch'
p757
I17
tp758
a(I24
S'adjt'
p759
I17
tp760
a(I25
S'spec'
p761
I26
tp762
a(I26
S'comp'
p763
I24
tp764
a(I27
S'mod'
p765
I26
tp766
a(I28
S'comp'
p767
I27
tp768
a(I29
S'adjt'
p769
I17
tp770
a(I30
S'pobj'
p771
I29
tp772
a(I31
S'comp'
p773
I30
tp774
a(I32
S'subj'
p775
I34
tp776
a(I33
S'prt'
p777
I34
tp778
a(I34
S'mod'
p779
I31
tp780
a(I35
S'mphes'
p781
I34
tp782
a(I36
S'adjt'
p783
I34
tp784
a(I37
S'spec'
p785
I38
tp786
a(I38
S'comp'
p787
I36
tp788
a(I39
S'subj'
p789
I41
tp790
a(I40
S'spec'
p791
I41
tp792
a(I41
S'mod'
p793
I38
tp794
a(I42
S'adjt'
p795
I41
tp796
a(I43
S'spec'
p797
I44
tp798
a(I44
S'dobj'
p799
I41
tp800
a(I45
S'mod'
p801
I44
tp802
a(I46
S'comp'
p803
I45
tp804
a(I47
S'mod'
p805
I44
tp806
a(I48
S'comp'
p807
I47
tp808
a(I49
S'punc'
p809
I16
tp810
aa(lp811
(I0
S'spec'
p812
I1
tp813
a(I1
S'subj'
p814
I2
tp815
a(I2
S'top'
p816
I0
tp817
a(I3
S'dobj'
p818
I2
tp819
a(I4
S'mphes'
p820
I6
tp821
a(I5
S'prt'
p822
I6
tp823
a(I6
S'comp'
p824
I3
tp825
a(I7
S'mphes'
p826
I6
tp827
a(I8
S'adjt'
p828
I6
tp829
a(I9
S'spec'
p830
I10
tp831
a(I10
S'comp'
p832
I8
tp833
a(I11
S'mod'
p834
I10
tp835
a(I12
S'comp'
p836
I11
tp837
a(I13
S'mod'
p838
I12
tp839
a(I14
S'punc'
p840
I2
tp841
aa(lp842
(I0
S'top'
p843
I0
tp844
a(I1
S'dobj'
p845
I0
tp846
a(I2
S'spec'
p847
I3
tp848
a(I3
S'subj'
p849
I7
tp850
a(I4
S'mod'
p851
I3
tp852
a(I5
S'comp'
p853
I4
tp854
a(I6
S'mod'
p855
I5
tp856
a(I7
S'comp'
p857
I1
tp858
a(I8
S'spec'
p859
I9
tp860
a(I9
S'attr'
p861
I7
tp862
a(I10
S'mod'
p863
I9
tp864
a(I11
S'mod'
p865
I9
tp866
a(I12
S'mod'
p867
I9
tp868
a(I13
S'spec'
p869
I14
tp870
a(I14
S'comp'
p871
I12
tp872
a(I15
S'mod'
p873
I14
tp874
a(I16
S'mod'
p875
I9
tp876
a(I17
S'punc'
p877
I0
tp878
a(I18
S'adjt'
p879
I0
tp880
a(I19
S'spec'
p881
I20
tp882
a(I20
S'subj'
p883
I26
tp884
a(I21
S'spec'
p885
I22
tp886
a(I22
S'modnomatch'
p887
I26
tp888
a(I23
S'subj'
p889
I25
tp890
a(I24
S'dobj'
p891
I25
tp892
a(I25
S'mod'
p893
I22
tp894
a(I26
S'comp'
p895
I18
tp896
a(I27
S'spec'
p897
I28
tp898
a(I28
S'attr'
p899
I26
tp900
a(I29
S'punc'
p901
I0
tp902
aa(lp903
(I0
S'top'
p904
I0
tp905
a(I1
S'dobj'
p906
I0
tp907
a(I2
S'dobj'
p908
I1
tp909
a(I3
S'mphes'
p910
I5
tp911
a(I4
S'prt'
p912
I5
tp913
a(I5
S'comp'
p914
I2
tp915
a(I6
S'spec'
p916
I7
tp917
a(I7
S'dobj'
p918
I5
tp919
a(I8
S'mod'
p920
I7
tp921
a(I9
S'comp'
p922
I8
tp923
a(I10
S'attr'
p924
I14
tp925
a(I11
S'spec'
p926
I12
tp927
a(I12
S'comp'
p928
I10
tp929
a(I13
S'adjt'
p930
I14
tp931
a(I14
S'mod'
p932
I9
tp933
a(I15
S'spec'
p934
I16
tp935
a(I16
S'modnomatch'
p936
I14
tp937
a(I17
S'punc'
p938
I0
tp939
a(I18
S'spec'
p940
I0
tp941
a(I19
S'spec'
p942
I20
tp943
a(I20
S'modnomatch'
p944
I0
tp945
a(I21
S'mod'
p946
I20
tp947
a(I22
S'punc'
p948
I23
tp949
a(I23
S'adjt'
p950
I0
tp951
a(I24
S'coor'
p952
I23
tp953
a(I25
S'comp'
p954
I24
tp955
a(I26
S'attr'
p956
I25
tp957
a(I27
S'subj'
p958
I29
tp959
a(I28
S'prt'
p960
I29
tp961
a(I29
S'mod'
p962
I26
tp963
a(I30
S'spec'
p964
I31
tp965
a(I31
S'adjt'
p966
I29
tp967
a(I32
S'punc'
p968
I29
tp969
aa(lp970
(I0
S'spec'
p971
I1
tp972
a(I1
S'subj'
p973
I9
tp974
a(I2
S'punc'
p975
I1
tp976
a(I3
S'modnomatch'
p977
I1
tp978
a(I4
S'adjt'
p979
I6
tp980
a(I5
S'dobj'
p981
I6
tp982
a(I6
S'comp'
p983
I3
tp984
a(I7
S'punc'
p985
I1
tp986
a(I8
S'prt'
p987
I9
tp988
a(I9
S'top'
p989
I0
tp990
a(I10
S'spec'
p991
I11
tp992
a(I11
S'dobj'
p993
I9
tp994
a(I12
S'adjt'
p995
I9
tp996
a(I13
S'spec'
p997
I14
tp998
a(I14
S'comp'
p999
I12
tp1000
a(I15
S'punc'
p1001
I9
tp1002
a(I16
S'modnomatch'
p1003
I9
tp1004
a(I17
S'attr'
p1005
I16
tp1006
a(I18
S'punc'
p1007
I16
tp1008
a(I19
S'spec'
p1009
I20
tp1010
a(I20
S'adjt'
p1011
I16
tp1012
a(I21
S'adjt'
p1013
I16
tp1014
a(I22
S'comp'
p1015
I21
tp1016
a(I23
S'mphes'
p1017
I24
tp1018
a(I24
S'comp'
p1019
I22
tp1020
a(I25
S'spec'
p1021
I26
tp1022
a(I26
S'subj'
p1023
I24
tp1024
a(I27
S'punc'
p1025
I16
tp1026
aa(lp1027
(I0
S'subj'
p1028
I28
tp1029
a(I1
S'punc'
p1030
I0
tp1031
a(I2
S'modnomatch'
p1032
I0
tp1033
a(I3
S'pobj'
p1034
I2
tp1035
a(I4
S'spec'
p1036
I6
tp1037
a(I5
S'mod'
p1038
I6
tp1039
a(I6
S'comp'
p1040
I3
tp1041
a(I7
S'mod'
p1042
I6
tp1043
a(I8
S'pobj'
p1044
I2
tp1045
a(I9
S'comp'
p1046
I8
tp1047
a(I10
S'pobj'
p1048
I2
tp1049
a(I11
S'spec'
p1050
I12
tp1051
a(I12
S'comp'
p1052
I10
tp1053
a(I13
S'pobj'
p1054
I2
tp1055
a(I14
S'spec'
p1056
I15
tp1057
a(I15
S'comp'
p1058
I13
tp1059
a(I16
S'punc'
p1060
I2
tp1061
a(I17
S'modnomatch'
p1062
I0
tp1063
a(I18
S'punc'
p1064
I0
tp1065
a(I19
S'adjt'
p1066
I28
tp1067
a(I20
S'spec'
p1068
I21
tp1069
a(I21
S'comp'
p1070
I19
tp1071
a(I22
S'punc'
p1072
I19
tp1073
a(I23
S'adjt'
p1074
I28
tp1075
a(I24
S'comp'
p1076
I23
tp1077
a(I25
S'punc'
p1078
I23
tp1079
a(I26
S'mphes'
p1080
I28
tp1081
a(I27
S'aux'
p1082
I28
tp1083
a(I28
S'top'
p1084
I0
tp1085
a(I29
S'adjt'
p1086
I28
tp1087
a(I30
S'spec'
p1088
I31
tp1089
a(I31
S'comp'
p1090
I29
tp1091
a(I32
S'spec'
p1092
I33
tp1093
a(I33
S'dobj'
p1094
I28
tp1095
a(I34
S'mod'
p1096
I33
tp1097
a(I35
S'spec'
p1098
I36
tp1099
a(I36
S'comp'
p1100
I34
tp1101
a(I37
S'adjt'
p1102
I28
tp1103
a(I38
S'spec'
p1104
I39
tp1105
a(I39
S'comp'
p1106
I37
tp1107
a(I40
S'mod'
p1108
I39
tp1109
a(I41
S'punc'
p1110
I28
tp1111
a(I42
S'spec'
p1112
I43
tp1113
a(I43
S'modnomatch'
p1114
I28
tp1115
a(I44
S'mod'
p1116
I43
tp1117
a(I45
S'spec'
p1118
I46
tp1119
a(I46
S'comp'
p1120
I44
tp1121
a(I47
S'subj'
p1122
I48
tp1123
a(I48
S'mod'
p1124
I43
tp1125
a(I49
S'adjt'
p1126
I48
tp1127
a(I50
S'spec'
p1128
I51
tp1129
a(I51
S'comp'
p1130
I49
tp1131
a(I52
S'mod'
p1132
I51
tp1133
a(I53
S'comp'
p1134
I52
tp1135
a(I54
S'punc'
p1136
I28
tp1137
aa(lp1138
(I0
S'adjt'
p1139
I10
tp1140
a(I1
S'spec'
p1141
I2
tp1142
a(I2
S'comp'
p1143
I0
tp1144
a(I3
S'mod'
p1145
I2
tp1146
a(I4
S'punc'
p1147
I0
tp1148
a(I5
S'spec'
p1149
I6
tp1150
a(I6
S'subj'
p1151
I10
tp1152
a(I7
S'punc'
p1153
I6
tp1154
a(I8
S'mphes'
p1155
I10
tp1156
a(I9
S'aux'
p1157
I10
tp1158
a(I10
S'top'
p1159
I0
tp1160
a(I11
S'spec'
p1161
I12
tp1162
a(I12
S'dobj'
p1163
I10
tp1164
a(I13
S'punc'
p1165
I10
tp1166
a(I14
S'spec'
p1167
I15
tp1168
a(I15
S'subj'
p1169
I17
tp1170
a(I16
S'aux'
p1171
I17
tp1172
a(I17
S'modnomatch'
p1173
I10
tp1174
a(I18
S'attr'
p1175
I17
tp1176
a(I19
S'pred'
p1177
I10
tp1178
a(I20
S'coor'
p1179
I19
tp1180
a(I21
S'spec'
p1181
I22
tp1182
a(I22
S'subj'
p1183
I24
tp1184
a(I23
S'mphes'
p1185
I24
tp1186
a(I24
S'comp'
p1187
I20
tp1188
a(I25
S'punc'
p1189
I10
tp1190
a(I26
S'adjt'
p1191
I10
tp1192
a(I27
S'comp'
p1193
I26
tp1194
a(I28
S'punc'
p1195
I26
tp1196
a(I29
S'adjt'
p1197
I10
tp1198
a(I30
S'comp'
p1199
I29
tp1200
a(I31
S'adjt'
p1201
I10
tp1202
a(I32
S'spec'
p1203
I33
tp1204
a(I33
S'comp'
p1205
I31
tp1206
a(I34
S'adjt'
p1207
I10
tp1208
a(I35
S'pred'
p1209
I10
tp1210
a(I36
S'coor'
p1211
I39
tp1212
a(I37
S'spec'
p1213
I38
tp1214
a(I38
S'comp'
p1215
I36
tp1216
a(I39
S'pred'
p1217
I10
tp1218
a(I40
S'coor'
p1219
I39
tp1220
a(I41
S'spec'
p1221
I42
tp1222
a(I42
S'spec'
p1223
I43
tp1224
a(I43
S'comp'
p1225
I40
tp1226
a(I44
S'pred'
p1227
I10
tp1228
a(I45
S'punc'
p1229
I10
tp1230
a(I46
S'iobj'
p1231
I47
tp1232
a(I47
S'modnomatch'
p1233
I10
tp1234
a(I48
S'dobj'
p1235
I47
tp1236
a(I49
S'comp'
p1237
I48
tp1238
a(I50
S'coor'
p1239
I56
tp1240
a(I51
S'spec'
p1241
I52
tp1242
a(I52
S'comp'
p1243
I50
tp1244
a(I53
S'mod'
p1245
I52
tp1246
a(I54
S'spec'
p1247
I55
tp1248
a(I55
S'comp'
p1249
I53
tp1250
a(I56
S'adjt'
p1251
I47
tp1252
a(I57
S'coor'
p1253
I56
tp1254
a(I58
S'spec'
p1255
I59
tp1256
a(I59
S'comp'
p1257
I57
tp1258
a(I60
S'subj'
p1259
I61
tp1260
a(I61
S'mod'
p1261
I59
tp1262
a(I62
S'adjt'
p1263
I61
tp1264
a(I63
S'spec'
p1265
I64
tp1266
a(I64
S'comp'
p1267
I62
tp1268
a(I65
S'modnomatch'
p1269
I47
tp1270
a(I66
S'spec'
p1271
I67
tp1272
a(I67
S'coor'
p1273
I65
tp1274
a(I68
S'punc'
p1275
I47
tp1276
a(I69
S'modnomatch'
p1277
I47
tp1278
a(I70
S'punc'
p1279
I69
tp1280
a(I71
S'subj'
p1281
I72
tp1282
a(I72
S'mod'
p1283
I69
tp1284
a(I73
S'spec'
p1285
I74
tp1286
a(I74
S'dobj'
p1287
I72
tp1288
a(I75
S'coor'
p1289
I80
tp1290
a(I76
S'comp'
p1291
I75
tp1292
a(I77
S'spec'
p1293
I78
tp1294
a(I78
S'dobj'
p1295
I76
tp1296
a(I79
S'mod'
p1297
I78
tp1298
a(I80
S'modnomatch'
p1299
I47
tp1300
a(I81
S'coor'
p1301
I80
tp1302
a(I82
S'comp'
p1303
I81
tp1304
a(I83
S'adjt'
p1305
I82
tp1306
a(I84
S'spec'
p1307
I85
tp1308
a(I85
S'comp'
p1309
I83
tp1310
a(I86
S'punc'
p1311
I47
tp1312
aa(lp1313
(I0
S'spec'
p1314
I1
tp1315
a(I1
S'top'
p1316
I0
tp1317
a(I2
S'punc'
p1318
I1
tp1319
a(I3
S'mod'
p1320
I1
tp1321
a(I4
S'comp'
p1322
I3
tp1323
a(I5
S'mod'
p1324
I1
tp1325
a(I6
S'spec'
p1326
I7
tp1327
a(I7
S'comp'
p1328
I5
tp1329
a(I8
S'subj'
p1330
I11
tp1331
a(I9
S'adjt'
p1332
I11
tp1333
a(I10
S'aux'
p1334
I11
tp1335
a(I11
S'mod'
p1336
I1
tp1337
a(I12
S'punc'
p1338
I11
tp1339
aa(lp1340
(I0
S'subj'
p1341
I6
tp1342
a(I1
S'punc'
p1343
I0
tp1344
a(I2
S'modnomatch'
p1345
I6
tp1346
a(I3
S'mod'
p1347
I2
tp1348
a(I4
S'punc'
p1349
I2
tp1350
a(I5
S'dobj'
p1351
I6
tp1352
a(I6
S'top'
p1353
I0
tp1354
a(I7
S'pobj'
p1355
I6
tp1356
a(I8
S'spec'
p1357
I10
tp1358
a(I9
S'mod'
p1359
I10
tp1360
a(I10
S'comp'
p1361
I7
tp1362
a(I11
S'punc'
p1363
I6
tp1364
aa(lp1365
(I0
S'top'
p1366
I0
tp1367
a(I1
S'punc'
p1368
I0
tp1369
a(I2
S'attr'
p1370
I0
tp1371
a(I3
S'comp'
p1372
I2
tp1373
a(I4
S'punc'
p1374
I2
tp1375
a(I5
S'adjt'
p1376
I0
tp1377
a(I6
S'spec'
p1378
I7
tp1379
a(I7
S'comp'
p1380
I5
tp1381
a(I8
S'mod'
p1382
I7
tp1383
a(I9
S'spec'
p1384
I10
tp1385
a(I10
S'comp'
p1386
I8
tp1387
a(I11
S'modnomatch'
p1388
I0
tp1389
a(I12
S'spec'
p1390
I13
tp1391
a(I13
S'subj'
p1392
I16
tp1393
a(I14
S'adjt'
p1394
I16
tp1395
a(I15
S'aux'
p1396
I16
tp1397
a(I16
S'comp'
p1398
I11
tp1399
a(I17
S'punc'
p1400
I0
tp1401
aa(lp1402
(I0
S'subj'
p1403
I2
tp1404
a(I1
S'punc'
p1405
I0
tp1406
a(I2
S'top'
p1407
I0
tp1408
a(I3
S'dobj'
p1409
I2
tp1410
a(I4
S'spec'
p1411
I5
tp1412
a(I5
S'dobj'
p1413
I3
tp1414
a(I6
S'mod'
p1415
I5
tp1416
a(I7
S'comp'
p1417
I6
tp1418
a(I8
S'pobj'
p1419
I3
tp1420
a(I9
S'spec'
p1421
I10
tp1422
a(I10
S'comp'
p1423
I8
tp1424
a(I11
S'pobj'
p1425
I3
tp1426
a(I12
S'spec'
p1427
I13
tp1428
a(I13
S'subj'
p1429
I16
tp1430
a(I14
S'mphes'
p1431
I16
tp1432
a(I15
S'aux'
p1433
I16
tp1434
a(I16
S'comp'
p1435
I11
tp1436
a(I17
S'modnomatch'
p1437
I2
tp1438
a(I18
S'modnomatch'
p1439
I2
tp1440
a(I19
S'spec'
p1441
I20
tp1442
a(I20
S'coor'
p1443
I18
tp1444
a(I21
S'spec'
p1445
I22
tp1446
a(I22
S'modnomatch'
p1447
I2
tp1448
a(I23
S'punc'
p1449
I22
tp1450
aa(lp1451
(I0
S'top'
p1452
I0
tp1453
a(I1
S'spec'
p1454
I2
tp1455
a(I2
S'attr'
p1456
I0
tp1457
a(I3
S'mod'
p1458
I2
tp1459
a(I4
S'comp'
p1460
I3
tp1461
a(I5
S'punc'
p1462
I0
tp1463
aa(lp1464
(I0
S'subj'
p1465
I1
tp1466
a(I1
S'top'
p1467
I0
tp1468
a(I2
S'adjt'
p1469
I1
tp1470
a(I3
S'coor'
p1471
I10
tp1472
a(I4
S'spec'
p1473
I5
tp1474
a(I5
S'subj'
p1475
I8
tp1476
a(I6
S'iobj'
p1477
I8
tp1478
a(I7
S'aux'
p1479
I8
tp1480
a(I8
S'comp'
p1481
I3
tp1482
a(I9
S'modnomatch'
p1483
I8
tp1484
a(I10
S'dobj'
p1485
I1
tp1486
a(I11
S'coor'
p1487
I10
tp1488
a(I12
S'aux'
p1489
I13
tp1490
a(I13
S'comp'
p1491
I11
tp1492
a(I14
S'modnomatch'
p1493
I1
tp1494
a(I15
S'adjt'
p1495
I27
tp1496
a(I16
S'adjt'
p1497
I27
tp1498
a(I17
S'comp'
p1499
I16
tp1500
a(I18
S'spec'
p1501
I19
tp1502
a(I19
S'subj'
p1503
I27
tp1504
a(I20
S'adjt'
p1505
I27
tp1506
a(I21
S'spec'
p1507
I22
tp1508
a(I22
S'comp'
p1509
I20
tp1510
a(I23
S'adjt'
p1511
I27
tp1512
a(I24
S'spec'
p1513
I26
tp1514
a(I25
S'mod'
p1515
I26
tp1516
a(I26
S'comp'
p1517
I23
tp1518
a(I27
S'comp'
p1519
I14
tp1520
a(I28
S'spec'
p1521
I29
tp1522
a(I29
S'attr'
p1523
I27
tp1524
a(I30
S'mod'
p1525
I29
tp1526
a(I31
S'punc'
p1527
I1
tp1528
aa(lp1529
(I0
S'adjt'
p1530
I3
tp1531
a(I1
S'comp'
p1532
I0
tp1533
a(I2
S'punc'
p1534
I0
tp1535
a(I3
S'top'
p1536
I0
tp1537
a(I4
S'modnomatch'
p1538
I3
tp1539
a(I5
S'prt'
p1540
I8
tp1541
a(I6
S'prt'
p1542
I8
tp1543
a(I7
S'aux'
p1544
I8
tp1545
a(I8
S'comp'
p1546
I4
tp1547
a(I9
S'adjt'
p1548
I8
tp1549
a(I10
S'comp'
p1550
I9
tp1551
a(I11
S'punc'
p1552
I3
tp1553
a(I12
S'adjt'
p1554
I3
tp1555
a(I13
S'spec'
p1556
I14
tp1557
a(I14
S'subj'
p1558
I15
tp1559
a(I15
S'comp'
p1560
I12
tp1561
a(I16
S'spec'
p1562
I17
tp1563
a(I17
S'dobj'
p1564
I15
tp1565
a(I18
S'punc'
p1566
I3
tp1567
aa(lp1568
(I0
S'coor'
p1569
I1
tp1570
a(I1
S'top'
p1571
I0
tp1572
a(I2
S'dobj'
p1573
I4
tp1574
a(I3
S'aux'
p1575
I4
tp1576
a(I4
S'coor'
p1577
I1
tp1578
a(I5
S'adjt'
p1579
I4
tp1580
a(I6
S'adjt'
p1581
I4
tp1582
a(I7
S'spec'
p1583
I8
tp1584
a(I8
S'comp'
p1585
I6
tp1586
a(I9
S'punc'
p1587
I1
tp1588
a(I10
S'modnomatch'
p1589
I1
tp1590
a(I11
S'modnomatch'
p1591
I1
tp1592
a(I12
S'spec'
p1593
I14
tp1594
a(I13
S'mod'
p1595
I14
tp1596
a(I14
S'comp'
p1597
I11
tp1598
a(I15
S'mod'
p1599
I14
tp1600
a(I16
S'modnomatch'
p1601
I1
tp1602
a(I17
S'spec'
p1603
I18
tp1604
a(I18
S'comp'
p1605
I16
tp1606
a(I19
S'mod'
p1607
I18
tp1608
a(I20
S'punc'
p1609
I1
tp1610
a(I21
S'modnomatch'
p1611
I1
tp1612
a(I22
S'subj'
p1613
I24
tp1614
a(I23
S'spec'
p1615
I24
tp1616
a(I24
S'comp'
p1617
I21
tp1618
a(I25
S'adjt'
p1619
I24
tp1620
a(I26
S'spec'
p1621
I27
tp1622
a(I27
S'attr'
p1623
I24
tp1624
a(I28
S'mod'
p1625
I27
tp1626
a(I29
S'modnomatch'
p1627
I1
tp1628
a(I30
S'subj'
p1629
I31
tp1630
a(I31
S'coor'
p1631
I29
tp1632
a(I32
S'spec'
p1633
I33
tp1634
a(I33
S'attr'
p1635
I31
tp1636
a(I34
S'modnomatch'
p1637
I31
tp1638
a(I35
S'coor'
p1639
I40
tp1640
a(I36
S'comp'
p1641
I35
tp1642
a(I37
S'coor'
p1643
I40
tp1644
a(I38
S'comp'
p1645
I37
tp1646
a(I39
S'mod'
p1647
I38
tp1648
a(I40
S'modnomatch'
p1649
I1
tp1650
a(I41
S'coor'
p1651
I40
tp1652
a(I42
S'comp'
p1653
I41
tp1654
a(I43
S'punc'
p1655
I1
tp1656
a(I44
S'modnomatch'
p1657
I1
tp1658
a(I45
S'subj'
p1659
I53
tp1660
a(I46
S'punc'
p1661
I45
tp1662
a(I47
S'adjt'
p1663
I53
tp1664
a(I48
S'comp'
p1665
I47
tp1666
a(I49
S'adjt'
p1667
I53
tp1668
a(I50
S'spec'
p1669
I51
tp1670
a(I51
S'comp'
p1671
I49
tp1672
a(I52
S'punc'
p1673
I49
tp1674
a(I53
S'comp'
p1675
I44
tp1676
a(I54
S'dobj'
p1677
I53
tp1678
a(I55
S'mod'
p1679
I54
tp1680
a(I56
S'comp'
p1681
I55
tp1682
a(I57
S'punc'
p1683
I53
tp1684
aa(lp1685
(I0
S'spec'
p1686
I1
tp1687
a(I1
S'subj'
p1688
I2
tp1689
a(I2
S'top'
p1690
I0
tp1691
a(I3
S'spec'
p1692
I4
tp1693
a(I4
S'dobj'
p1694
I2
tp1695
a(I5
S'mod'
p1696
I4
tp1697
a(I6
S'spec'
p1698
I7
tp1699
a(I7
S'comp'
p1700
I5
tp1701
a(I8
S'mod'
p1702
I7
tp1703
a(I9
S'mod'
p1704
I4
tp1705
a(I10
S'spec'
p1706
I11
tp1707
a(I11
S'comp'
p1708
I9
tp1709
a(I12
S'mod'
p1710
I4
tp1711
a(I13
S'comp'
p1712
I12
tp1713
a(I14
S'modnomatch'
p1714
I2
tp1715
a(I15
S'punc'
p1716
I2
tp1717
a(I16
S'adjt'
p1718
I20
tp1719
a(I17
S'comp'
p1720
I16
tp1721
a(I18
S'punc'
p1722
I16
tp1723
a(I19
S'iobj'
p1724
I20
tp1725
a(I20
S'modnomatch'
p1726
I2
tp1727
a(I21
S'coor'
p1728
I34
tp1729
a(I22
S'comp'
p1730
I21
tp1731
a(I23
S'spec'
p1732
I24
tp1733
a(I24
S'dobj'
p1734
I22
tp1735
a(I25
S'mod'
p1736
I24
tp1737
a(I26
S'comp'
p1738
I25
tp1739
a(I27
S'subj'
p1740
I29
tp1741
a(I28
S'iobj'
p1742
I29
tp1743
a(I29
S'mod'
p1744
I26
tp1745
a(I30
S'spec'
p1746
I31
tp1747
a(I31
S'dobj'
p1748
I29
tp1749
a(I32
S'spec'
p1750
I33
tp1751
a(I33
S'mod'
p1752
I31
tp1753
a(I34
S'dobj'
p1754
I20
tp1755
a(I35
S'coor'
p1756
I34
tp1757
a(I36
S'comp'
p1758
I35
tp1759
a(I37
S'pred'
p1760
I36
tp1761
a(I38
S'adjt'
p1762
I36
tp1763
a(I39
S'comp'
p1764
I38
tp1765
a(I40
S'spec'
p1766
I41
tp1767
a(I41
S'dobj'
p1768
I36
tp1769
a(I42
S'subj'
p1770
I43
tp1771
a(I43
S'mod'
p1772
I41
tp1773
a(I44
S'attr'
p1774
I43
tp1775
a(I45
S'adjt'
p1776
I43
tp1777
a(I46
S'spec'
p1778
I47
tp1779
a(I47
S'comp'
p1780
I45
tp1781
a(I48
S'mod'
p1782
I47
tp1783
a(I49
S'spec'
p1784
I50
tp1785
a(I50
S'comp'
p1786
I48
tp1787
a(I51
S'punc'
p1788
I20
tp1789
aa(lp1790
(I0
S'adjt'
p1791
I8
tp1792
a(I1
S'punc'
p1793
I0
tp1794
a(I2
S'subj'
p1795
I8
tp1796
a(I3
S'mod'
p1797
I2
tp1798
a(I4
S'punc'
p1799
I2
tp1800
a(I5
S'adjt'
p1801
I8
tp1802
a(I6
S'prt'
p1803
I8
tp1804
a(I7
S'prt'
p1805
I8
tp1806
a(I8
S'top'
p1807
I0
tp1808
a(I9
S'spec'
p1809
I10
tp1810
a(I10
S'dobj'
p1811
I8
tp1812
a(I11
S'mod'
p1813
I10
tp1814
a(I12
S'adjt'
p1815
I8
tp1816
a(I13
S'spec'
p1817
I14
tp1818
a(I14
S'comp'
p1819
I12
tp1820
a(I15
S'modnomatch'
p1821
I17
tp1822
a(I16
S'comp'
p1823
I15
tp1824
a(I17
S'mod'
p1825
I14
tp1826
a(I18
S'spec'
p1827
I19
tp1828
a(I19
S'modnomatch'
p1829
I8
tp1830
a(I20
S'punc'
p1831
I8
tp1832
aa(lp1833
(I0
S'subj'
p1834
I6
tp1835
a(I1
S'punc'
p1836
I0
tp1837
a(I2
S'adjt'
p1838
I6
tp1839
a(I3
S'mod'
p1840
I4
tp1841
a(I4
S'comp'
p1842
I2
tp1843
a(I5
S'mphes'
p1844
I6
tp1845
a(I6
S'top'
p1846
I0
tp1847
a(I7
S'modnomatch'
p1848
I6
tp1849
a(I8
S'dobj'
p1850
I7
tp1851
a(I9
S'adjt'
p1852
I7
tp1853
a(I10
S'aux'
p1854
I11
tp1855
a(I11
S'comp'
p1856
I9
tp1857
a(I12
S'adjt'
p1858
I11
tp1859
a(I13
S'spec'
p1860
I14
tp1861
a(I14
S'comp'
p1862
I12
tp1863
a(I15
S'adjt'
p1864
I6
tp1865
a(I16
S'adjt'
p1866
I29
tp1867
a(I17
S'adjt'
p1868
I29
tp1869
a(I18
S'spec'
p1870
I20
tp1871
a(I19
S'mod'
p1872
I20
tp1873
a(I20
S'comp'
p1874
I17
tp1875
a(I21
S'adjt'
p1876
I29
tp1877
a(I22
S'comp'
p1878
I21
tp1879
a(I23
S'adjt'
p1880
I29
tp1881
a(I24
S'spec'
p1882
I25
tp1883
a(I25
S'comp'
p1884
I23
tp1885
a(I26
S'mod'
p1886
I25
tp1887
a(I27
S'mphes'
p1888
I29
tp1889
a(I28
S'aux'
p1890
I29
tp1891
a(I29
S'comp'
p1892
I15
tp1893
a(I30
S'adjt'
p1894
I29
tp1895
a(I31
S'spec'
p1896
I32
tp1897
a(I32
S'dobj'
p1898
I29
tp1899
a(I33
S'mod'
p1900
I32
tp1901
a(I34
S'comp'
p1902
I33
tp1903
a(I35
S'adjt'
p1904
I29
tp1905
a(I36
S'spec'
p1906
I37
tp1907
a(I37
S'comp'
p1908
I35
tp1909
a(I38
S'punc'
p1910
I6
tp1911
aa(lp1912
(I0
S'adjt'
p1913
I9
tp1914
a(I1
S'comp'
p1915
I0
tp1916
a(I2
S'punc'
p1917
I0
tp1918
a(I3
S'subj'
p1919
I9
tp1920
a(I4
S'mod'
p1921
I3
tp1922
a(I5
S'punc'
p1923
I3
tp1924
a(I6
S'spec'
p1925
I9
tp1926
a(I7
S'mphes'
p1927
I9
tp1928
a(I8
S'aux'
p1929
I9
tp1930
a(I9
S'top'
p1931
I0
tp1932
a(I10
S'spec'
p1933
I11
tp1934
a(I11
S'subj'
p1935
I14
tp1936
a(I12
S'modnomatch'
p1937
I14
tp1938
a(I13
S'aux'
p1939
I14
tp1940
a(I14
S'modnomatch'
p1941
I9
tp1942
a(I15
S'punc'
p1943
I9
tp1944
aa(lp1945
(I0
S'adjt'
p1946
I1
tp1947
a(I1
S'top'
p1948
I0
tp1949
a(I2
S'attr'
p1950
I1
tp1951
a(I3
S'subj'
p1952
I5
tp1953
a(I4
S'adjt'
p1954
I5
tp1955
a(I5
S'mod'
p1956
I2
tp1957
a(I6
S'spec'
p1958
I7
tp1959
a(I7
S'coor'
p1960
I9
tp1961
a(I8
S'mod'
p1962
I7
tp1963
a(I9
S'dobj'
p1964
I5
tp1965
a(I10
S'modnomatch'
p1966
I11
tp1967
a(I11
S'coor'
p1968
I9
tp1969
a(I12
S'punc'
p1970
I13
tp1971
a(I13
S'adjt'
p1972
I5
tp1973
a(I14
S'coor'
p1974
I13
tp1975
a(I15
S'spec'
p1976
I16
tp1977
a(I16
S'modnomatch'
p1978
I1
tp1979
a(I17
S'modnomatch'
p1980
I18
tp1981
a(I18
S'coor'
p1982
I19
tp1983
a(I19
S'dobj'
p1984
I16
tp1985
a(I20
S'coor'
p1986
I19
tp1987
a(I21
S'iobj'
p1988
I23
tp1989
a(I22
S'aux'
p1990
I23
tp1991
a(I23
S'modnomatch'
p1992
I1
tp1993
a(I24
S'spec'
p1994
I25
tp1995
a(I25
S'dobj'
p1996
I23
tp1997
a(I26
S'mod'
p1998
I25
tp1999
a(I27
S'punc'
p2000
I23
tp2001
a(I28
S'adjt'
p2002
I23
tp2003
a(I29
S'adjt'
p2004
I32
tp2005
a(I30
S'spec'
p2006
I31
tp2007
a(I31
S'subj'
p2008
I32
tp2009
a(I32
S'comp'
p2010
I28
tp2011
a(I33
S'dobj'
p2012
I32
tp2013
a(I34
S'spec'
p2014
I35
tp2015
a(I35
S'dobj'
p2016
I33
tp2017
a(I36
S'spec'
p2018
I37
tp2019
a(I37
S'modnomatch'
p2020
I33
tp2021
a(I38
S'punc'
p2022
I23
tp2023
a(I39
S'adjt'
p2024
I23
tp2025
a(I40
S'mphes'
p2026
I41
tp2027
a(I41
S'comp'
p2028
I39
tp2029
a(I42
S'adjt'
p2030
I41
tp2031
a(I43
S'spec'
p2032
I44
tp2033
a(I44
S'comp'
p2034
I42
tp2035
a(I45
S'punc'
p2036
I23
tp2037
aa(lp2038
(I0
S'adjt'
p2039
I1
tp2040
a(I1
S'top'
p2041
I0
tp2042
a(I2
S'dobj'
p2043
I1
tp2044
a(I3
S'iobj'
p2045
I2
tp2046
a(I4
S'adjt'
p2047
I1
tp2048
a(I5
S'modnomatch'
p2049
I1
tp2050
a(I6
S'mphes'
p2051
I7
tp2052
a(I7
S'comp'
p2053
I5
tp2054
a(I8
S'pobj'
p2055
I7
tp2056
a(I9
S'comp'
p2057
I8
tp2058
a(I10
S'prt'
p2059
I11
tp2060
a(I11
S'comp'
p2061
I9
tp2062
a(I12
S'adjt'
p2063
I11
tp2064
a(I13
S'spec'
p2065
I14
tp2066
a(I14
S'dobj'
p2067
I11
tp2068
a(I15
S'mod'
p2069
I14
tp2070
a(I16
S'punc'
p2071
I1
tp2072
aa(lp2073
(I0
S'subj'
p2074
I3
tp2075
a(I1
S'punc'
p2076
I0
tp2077
a(I2
S'prt'
p2078
I3
tp2079
a(I3
S'top'
p2080
I0
tp2081
a(I4
S'iobj'
p2082
I3
tp2083
a(I5
S'dobj'
p2084
I3
tp2085
a(I6
S'spec'
p2086
I7
tp2087
a(I7
S'subj'
p2088
I8
tp2089
a(I8
S'comp'
p2090
I5
tp2091
a(I9
S'pobj'
p2092
I8
tp2093
a(I10
S'spec'
p2094
I11
tp2095
a(I11
S'comp'
p2096
I9
tp2097
a(I12
S'mod'
p2098
I11
tp2099
a(I13
S'spec'
p2100
I14
tp2101
a(I14
S'comp'
p2102
I12
tp2103
a(I15
S'mod'
p2104
I14
tp2105
a(I16
S'spec'
p2106
I17
tp2107
a(I17
S'comp'
p2108
I15
tp2109
a(I18
S'mod'
p2110
I17
tp2111
a(I19
S'comp'
p2112
I18
tp2113
a(I20
S'attr'
p2114
I8
tp2115
a(I21
S'adjt'
p2116
I20
tp2117
a(I22
S'spec'
p2118
I23
tp2119
a(I23
S'comp'
p2120
I21
tp2121
a(I24
S'punc'
p2122
I3
tp2123
aa(lp2124
(I0
S'top'
p2125
I0
tp2126
a(I1
S'dobj'
p2127
I0
tp2128
a(I2
S'mphes'
p2129
I3
tp2130
a(I3
S'comp'
p2131
I1
tp2132
a(I4
S'adjt'
p2133
I3
tp2134
a(I5
S'spec'
p2135
I6
tp2136
a(I6
S'comp'
p2137
I4
tp2138
a(I7
S'mod'
p2139
I6
tp2140
a(I8
S'punc'
p2141
I0
tp2142
aa(lp2143
(I0
S'subj'
p2144
I4
tp2145
a(I1
S'punc'
p2146
I0
tp2147
a(I2
S'punc'
p2148
I4
tp2149
a(I3
S'prt'
p2150
I4
tp2151
a(I4
S'top'
p2152
I0
tp2153
a(I5
S'mphes'
p2154
I4
tp2155
a(I6
S'modnomatch'
p2156
I4
tp2157
a(I7
S'modnomatch'
p2158
I4
tp2159
a(I8
S'spec'
p2160
I9
tp2161
a(I9
S'subj'
p2162
I11
tp2163
a(I10
S'spec'
p2164
I11
tp2165
a(I11
S'modnomatch'
p2166
I4
tp2167
a(I12
S'spec'
p2168
I13
tp2169
a(I13
S'coor'
p2170
I16
tp2171
a(I14
S'mod'
p2172
I13
tp2173
a(I15
S'comp'
p2174
I14
tp2175
a(I16
S'dobj'
p2176
I11
tp2177
a(I17
S'coor'
p2178
I16
tp2179
a(I18
S'subj'
p2180
I22
tp2181
a(I19
S'adjt'
p2182
I22
tp2183
a(I20
S'comp'
p2184
I19
tp2185
a(I21
S'aux'
p2186
I22
tp2187
a(I22
S'mod'
p2188
I17
tp2189
a(I23
S'punc'
p2190
I11
tp2191
aa(lp2192
(I0
S'punc'
p2193
I6
tp2194
a(I1
S'adjt'
p2195
I6
tp2196
a(I2
S'comp'
p2197
I1
tp2198
a(I3
S'spec'
p2199
I6
tp2200
a(I4
S'mphes'
p2201
I6
tp2202
a(I5
S'aux'
p2203
I6
tp2204
a(I6
S'top'
p2205
I0
tp2206
a(I7
S'spec'
p2207
I8
tp2208
a(I8
S'dobj'
p2209
I6
tp2210
a(I9
S'mod'
p2211
I8
tp2212
a(I10
S'comp'
p2213
I9
tp2214
a(I11
S'mod'
p2215
I8
tp2216
a(I12
S'spec'
p2217
I13
tp2218
a(I13
S'comp'
p2219
I11
tp2220
a(I14
S'mod'
p2221
I8
tp2222
a(I15
S'spec'
p2223
I16
tp2224
a(I16
S'comp'
p2225
I14
tp2226
a(I17
S'modnomatch'
p2227
I6
tp2228
a(I18
S'comp'
p2229
I17
tp2230
a(I19
S'aux'
p2231
I21
tp2232
a(I20
S'aux'
p2233
I21
tp2234
a(I21
S'modnomatch'
p2235
I6
tp2236
a(I22
S'punc'
p2237
I21
tp2238
aa(lp2239
(I0
S'punc'
p2240
I6
tp2241
a(I1
S'adjt'
p2242
I6
tp2243
a(I2
S'comp'
p2244
I1
tp2245
a(I3
S'spec'
p2246
I6
tp2247
a(I4
S'mphes'
p2248
I6
tp2249
a(I5
S'aux'
p2250
I6
tp2251
a(I6
S'top'
p2252
I0
tp2253
a(I7
S'spec'
p2254
I8
tp2255
a(I8
S'coor'
p2256
I12
tp2257
a(I9
S'mod'
p2258
I8
tp2259
a(I10
S'spec'
p2260
I11
tp2261
a(I11
S'comp'
p2262
I9
tp2263
a(I12
S'dobj'
p2264
I6
tp2265
a(I13
S'coor'
p2266
I12
tp2267
a(I14
S'adjt'
p2268
I6
tp2269
a(I15
S'comp'
p2270
I14
tp2271
a(I16
S'punc'
p2272
I6
tp2273
aa(lp2274
(I0
S'punc'
p2275
I5
tp2276
a(I1
S'adjt'
p2277
I5
tp2278
a(I2
S'comp'
p2279
I1
tp2280
a(I3
S'spec'
p2281
I5
tp2282
a(I4
S'aux'
p2283
I5
tp2284
a(I5
S'top'
p2285
I0
tp2286
a(I6
S'dobj'
p2287
I5
tp2288
a(I7
S'mod'
p2289
I6
tp2290
a(I8
S'comp'
p2291
I7
tp2292
a(I9
S'pred'
p2293
I5
tp2294
a(I10
S'coor'
p2295
I9
tp2296
a(I11
S'spec'
p2297
I12
tp2298
a(I12
S'comp'
p2299
I10
tp2300
a(I13
S'coor'
p2301
I16
tp2302
a(I14
S'spec'
p2303
I15
tp2304
a(I15
S'comp'
p2305
I13
tp2306
a(I16
S'pred'
p2307
I5
tp2308
a(I17
S'coor'
p2309
I16
tp2310
a(I18
S'spec'
p2311
I19
tp2312
a(I19
S'comp'
p2313
I17
tp2314
a(I20
S'spec'
p2315
I21
tp2316
a(I21
S'mod'
p2317
I19
tp2318
a(I22
S'punc'
p2319
I5
tp2320
aa(lp2321
(I0
S'punc'
p2322
I4
tp2323
a(I1
S'adjt'
p2324
I4
tp2325
a(I2
S'comp'
p2326
I1
tp2327
a(I3
S'spec'
p2328
I4
tp2329
a(I4
S'top'
p2330
I0
tp2331
a(I5
S'dobj'
p2332
I4
tp2333
a(I6
S'adjt'
p2334
I4
tp2335
a(I7
S'comp'
p2336
I6
tp2337
a(I8
S'punc'
p2338
I4
tp2339
aa(lp2340
(I0
S'punc'
p2341
I6
tp2342
a(I1
S'adjt'
p2343
I6
tp2344
a(I2
S'comp'
p2345
I1
tp2346
a(I3
S'spec'
p2347
I6
tp2348
a(I4
S'mphes'
p2349
I6
tp2350
a(I5
S'aux'
p2351
I6
tp2352
a(I6
S'top'
p2353
I0
tp2354
a(I7
S'spec'
p2355
I8
tp2356
a(I8
S'dobj'
p2357
I6
tp2358
a(I9
S'adjt'
p2359
I6
tp2360
a(I10
S'spec'
p2361
I11
tp2362
a(I11
S'comp'
p2363
I9
tp2364
a(I12
S'punc'
p2365
I6
tp2366
aa(lp2367
(I0
S'punc'
p2368
I5
tp2369
a(I1
S'adjt'
p2370
I5
tp2371
a(I2
S'comp'
p2372
I1
tp2373
a(I3
S'spec'
p2374
I5
tp2375
a(I4
S'mphes'
p2376
I5
tp2377
a(I5
S'top'
p2378
I0
tp2379
a(I6
S'spec'
p2380
I7
tp2381
a(I7
S'dobj'
p2382
I5
tp2383
a(I8
S'modnomatch'
p2384
I5
tp2385
a(I9
S'spec'
p2386
I5
tp2387
a(I10
S'modnomatch'
p2388
I5
tp2389
a(I11
S'punc'
p2390
I10
tp2391
aa(lp2392
(I0
S'coor'
p2393
I7
tp2394
a(I1
S'spec'
p2395
I2
tp2396
a(I2
S'attr'
p2397
I0
tp2398
a(I3
S'modnomatch'
p2399
I0
tp2400
a(I4
S'comp'
p2401
I3
tp2402
a(I5
S'spec'
p2403
I6
tp2404
a(I6
S'dobj'
p2405
I4
tp2406
a(I7
S'top'
p2407
I0
tp2408
a(I8
S'spec'
p2409
I10
tp2410
a(I9
S'dobj'
p2411
I10
tp2412
a(I10
S'coor'
p2413
I7
tp2414
a(I11
S'modnomatch'
p2415
I10
tp2416
a(I12
S'coor'
p2417
I11
tp2418
a(I13
S'modnomatch'
p2419
I10
tp2420
a(I14
S'punc'
p2421
I7
tp2422
aa(lp2423
(I0
S'subj'
p2424
I2
tp2425
a(I1
S'punc'
p2426
I0
tp2427
a(I2
S'coor'
p2428
I10
tp2429
a(I3
S'modnomatch'
p2430
I2
tp2431
a(I4
S'spec'
p2432
I5
tp2433
a(I5
S'dobj'
p2434
I2
tp2435
a(I6
S'mod'
p2436
I5
tp2437
a(I7
S'spec'
p2438
I8
tp2439
a(I8
S'comp'
p2440
I6
tp2441
a(I9
S'punc'
p2442
I10
tp2443
a(I10
S'top'
p2444
I0
tp2445
a(I11
S'coor'
p2446
I10
tp2447
a(I12
S'dobj'
p2448
I11
tp2449
a(I13
S'spec'
p2450
I14
tp2451
a(I14
S'subj'
p2452
I18
tp2453
a(I15
S'spec'
p2454
I18
tp2455
a(I16
S'mphes'
p2456
I18
tp2457
a(I17
S'aux'
p2458
I18
tp2459
a(I18
S'comp'
p2460
I12
tp2461
a(I19
S'pobj'
p2462
I18
tp2463
a(I20
S'comp'
p2464
I19
tp2465
a(I21
S'punc'
p2466
I10
tp2467
aa(lp2468
(I0
S'adjt'
p2469
I1
tp2470
a(I1
S'coor'
p2471
I8
tp2472
a(I2
S'spec'
p2473
I3
tp2474
a(I3
S'dobj'
p2475
I1
tp2476
a(I4
S'pobj'
p2477
I1
tp2478
a(I5
S'spec'
p2479
I6
tp2480
a(I6
S'comp'
p2481
I4
tp2482
a(I7
S'punc'
p2483
I8
tp2484
a(I8
S'top'
p2485
I0
tp2486
a(I9
S'coor'
p2487
I8
tp2488
a(I10
S'attr'
p2489
I9
tp2490
a(I11
S'adjt'
p2491
I9
tp2492
a(I12
S'comp'
p2493
I11
tp2494
a(I13
S'spec'
p2495
I14
tp2496
a(I14
S'subj'
p2497
I15
tp2498
a(I15
S'comp'
p2499
I12
tp2500
a(I16
S'spec'
p2501
I17
tp2502
a(I17
S'dobj'
p2503
I15
tp2504
a(I18
S'adjt'
p2505
I15
tp2506
a(I19
S'comp'
p2507
I18
tp2508
a(I20
S'comp'
p2509
I19
tp2510
a(I21
S'spec'
p2511
I22
tp2512
a(I22
S'dobj'
p2513
I20
tp2514
a(I23
S'modnomatch'
p2515
I8
tp2516
a(I24
S'punc'
p2517
I8
tp2518
a(I25
S'modnomatch'
p2519
I8
tp2520
a(I26
S'punc'
p2521
I8
tp2522
a(I27
S'subj'
p2523
I29
tp2524
a(I28
S'modnomatch'
p2525
I29
tp2526
a(I29
S'coor'
p2527
I8
tp2528
a(I30
S'punc'
p2529
I29
tp2530
aa(lp2531
(I0
S'coor'
p2532
I4
tp2533
a(I1
S'punc'
p2534
I4
tp2535
a(I2
S'spec'
p2536
I3
tp2537
a(I3
S'coor'
p2538
I4
tp2539
a(I4
S'top'
p2540
I0
tp2541
a(I5
S'coor'
p2542
I4
tp2543
a(I6
S'subj'
p2544
I8
tp2545
a(I7
S'aux'
p2546
I8
tp2547
a(I8
S'modnomatch'
p2548
I4
tp2549
a(I9
S'spec'
p2550
I10
tp2551
a(I10
S'dobj'
p2552
I8
tp2553
a(I11
S'adjt'
p2554
I8
tp2555
a(I12
S'mod'
p2556
I13
tp2557
a(I13
S'comp'
p2558
I11
tp2559
a(I14
S'punc'
p2560
I8
tp2561
a(I15
S'pred'
p2562
I8
tp2563
a(I16
S'adjt'
p2564
I15
tp2565
a(I17
S'spec'
p2566
I18
tp2567
a(I18
S'comp'
p2568
I16
tp2569
a(I19
S'mod'
p2570
I18
tp2571
a(I20
S'punc'
p2572
I8
tp2573
a(I21
S'adjt'
p2574
I8
tp2575
a(I22
S'spec'
p2576
I23
tp2577
a(I23
S'comp'
p2578
I21
tp2579
a(I24
S'punc'
p2580
I21
tp2581
a(I25
S'modnomatch'
p2582
I8
tp2583
a(I26
S'punc'
p2584
I8
tp2585
aa(lp2586
(I0
S'spec'
p2587
I1
tp2588
a(I1
S'subj'
p2589
I6
tp2590
a(I2
S'mod'
p2591
I1
tp2592
a(I3
S'spec'
p2593
I6
tp2594
a(I4
S'dobj'
p2595
I6
tp2596
a(I5
S'aux'
p2597
I6
tp2598
a(I6
S'top'
p2599
I0
tp2600
a(I7
S'pobj'
p2601
I6
tp2602
a(I8
S'spec'
p2603
I9
tp2604
a(I9
S'comp'
p2605
I7
tp2606
a(I10
S'mod'
p2607
I9
tp2608
a(I11
S'spec'
p2609
I12
tp2610
a(I12
S'comp'
p2611
I10
tp2612
a(I13
S'adjt'
p2613
I6
tp2614
a(I14
S'comp'
p2615
I13
tp2616
a(I15
S'modnomatch'
p2617
I6
tp2618
a(I16
S'adjt'
p2619
I19
tp2620
a(I17
S'aux'
p2621
I19
tp2622
a(I18
S'aux'
p2623
I19
tp2624
a(I19
S'modnomatch'
p2625
I6
tp2626
a(I20
S'adjt'
p2627
I19
tp2628
a(I21
S'spec'
p2629
I22
tp2630
a(I22
S'comp'
p2631
I20
tp2632
a(I23
S'mod'
p2633
I22
tp2634
a(I24
S'punc'
p2635
I19
tp2636
aa(lp2637
(I0
S'top'
p2638
I0
tp2639
a(I1
S'dobj'
p2640
I0
tp2641
a(I2
S'mphes'
p2642
I3
tp2643
a(I3
S'comp'
p2644
I1
tp2645
a(I4
S'spec'
p2646
I5
tp2647
a(I5
S'dobj'
p2648
I3
tp2649
a(I6
S'adjt'
p2650
I0
tp2651
a(I7
S'subj'
p2652
I9
tp2653
a(I8
S'spec'
p2654
I9
tp2655
a(I9
S'comp'
p2656
I6
tp2657
a(I10
S'adjt'
p2658
I9
tp2659
a(I11
S'punc'
p2660
I0
tp2661
aa(lp2662
(I0
S'spec'
p2663
I1
tp2664
a(I1
S'subj'
p2665
I6
tp2666
a(I2
S'mod'
p2667
I1
tp2668
a(I3
S'adjt'
p2669
I6
tp2670
a(I4
S'comp'
p2671
I3
tp2672
a(I5
S'mphes'
p2673
I6
tp2674
a(I6
S'top'
p2675
I0
tp2676
a(I7
S'pobj'
p2677
I6
tp2678
a(I8
S'spec'
p2679
I9
tp2680
a(I9
S'comp'
p2681
I7
tp2682
a(I10
S'punc'
p2683
I6
tp2684
a(I11
S'adjt'
p2685
I6
tp2686
a(I12
S'mod'
p2687
I13
tp2688
a(I13
S'comp'
p2689
I11
tp2690
a(I14
S'punc'
p2691
I11
tp2692
a(I15
S'adjt'
p2693
I6
tp2694
a(I16
S'spec'
p2695
I17
tp2696
a(I17
S'comp'
p2697
I15
tp2698
a(I18
S'punc'
p2699
I15
tp2700
a(I19
S'spec'
p2701
I6
tp2702
a(I20
S'pobj'
p2703
I6
tp2704
a(I21
S'spec'
p2705
I22
tp2706
a(I22
S'comp'
p2707
I20
tp2708
a(I23
S'mod'
p2709
I22
tp2710
a(I24
S'adjt'
p2711
I6
tp2712
a(I25
S'spec'
p2713
I26
tp2714
a(I26
S'comp'
p2715
I24
tp2716
a(I27
S'mod'
p2717
I26
tp2718
a(I28
S'spec'
p2719
I29
tp2720
a(I29
S'adjt'
p2721
I6
tp2722
a(I30
S'adjt'
p2723
I6
tp2724
a(I31
S'punc'
p2725
I6
tp2726
aa(lp2727
(I0
S'subj'
p2728
I4
tp2729
a(I1
S'punc'
p2730
I0
tp2731
a(I2
S'prt'
p2732
I4
tp2733
a(I3
S'prt'
p2734
I4
tp2735
a(I4
S'top'
p2736
I0
tp2737
a(I5
S'spec'
p2738
I6
tp2739
a(I6
S'dobj'
p2740
I4
tp2741
a(I7
S'punc'
p2742
I4
tp2743
aa(lp2744
(I0
S'iobj'
p2745
I1
tp2746
a(I1
S'top'
p2747
I0
tp2748
a(I2
S'modnomatch'
p2749
I1
tp2750
a(I3
S'punc'
p2751
I1
tp2752
a(I4
S'adjt'
p2753
I10
tp2754
a(I5
S'comp'
p2755
I4
tp2756
a(I6
S'punc'
p2757
I4
tp2758
a(I7
S'spec'
p2759
I8
tp2760
a(I8
S'subj'
p2761
I10
tp2762
a(I9
S'mphes'
p2763
I10
tp2764
a(I10
S'modnomatch'
p2765
I1
tp2766
a(I11
S'spec'
p2767
I12
tp2768
a(I12
S'attr'
p2769
I10
tp2770
a(I13
S'mod'
p2771
I12
tp2772
a(I14
S'punc'
p2773
I10
tp2774
aa(lp2775
(I0
S'adjt'
p2776
I4
tp2777
a(I1
S'punc'
p2778
I0
tp2779
a(I2
S'prt'
p2780
I4
tp2781
a(I3
S'prt'
p2782
I4
tp2783
a(I4
S'top'
p2784
I0
tp2785
a(I5
S'dobj'
p2786
I4
tp2787
a(I6
S'adjt'
p2788
I4
tp2789
a(I7
S'comp'
p2790
I6
tp2791
a(I8
S'adjt'
p2792
I4
tp2793
a(I9
S'comp'
p2794
I8
tp2795
a(I10
S'subj'
p2796
I11
tp2797
a(I11
S'comp'
p2798
I9
tp2799
a(I12
S'pobj'
p2800
I11
tp2801
a(I13
S'comp'
p2802
I12
tp2803
a(I14
S'punc'
p2804
I4
tp2805
aa(lp2806
(I0
S'subj'
p2807
I3
tp2808
a(I1
S'punc'
p2809
I0
tp2810
a(I2
S'mphes'
p2811
I3
tp2812
a(I3
S'top'
p2813
I0
tp2814
a(I4
S'modnomatch'
p2815
I3
tp2816
a(I5
S'dobj'
p2817
I4
tp2818
a(I6
S'spec'
p2819
I7
tp2820
a(I7
S'subj'
p2821
I8
tp2822
a(I8
S'comp'
p2823
I5
tp2824
a(I9
S'spec'
p2825
I10
tp2826
a(I10
S'adjt'
p2827
I8
tp2828
a(I11
S'spec'
p2829
I12
tp2830
a(I12
S'dobj'
p2831
I8
tp2832
a(I13
S'mod'
p2833
I12
tp2834
a(I14
S'adjt'
p2835
I8
tp2836
a(I15
S'spec'
p2837
I16
tp2838
a(I16
S'comp'
p2839
I14
tp2840
a(I17
S'adjt'
p2841
I8
tp2842
a(I18
S'spec'
p2843
I19
tp2844
a(I19
S'comp'
p2845
I17
tp2846
a(I20
S'adjt'
p2847
I8
tp2848
a(I21
S'comp'
p2849
I20
tp2850
a(I22
S'adjt'
p2851
I3
tp2852
a(I23
S'spec'
p2853
I24
tp2854
a(I24
S'modnomatch'
p2855
I22
tp2856
a(I25
S'spec'
p2857
I26
tp2858
a(I26
S'dobj'
p2859
I24
tp2860
a(I27
S'mod'
p2861
I26
tp2862
a(I28
S'comp'
p2863
I27
tp2864
a(I29
S'adjt'
p2865
I24
tp2866
a(I30
S'comp'
p2867
I29
tp2868
a(I31
S'punc'
p2869
I3
tp2870
a(I32
S'adjt'
p2871
I3
tp2872
a(I33
S'dobj'
p2873
I32
tp2874
a(I34
S'spec'
p2875
I36
tp2876
a(I35
S'mod'
p2877
I36
tp2878
a(I36
S'subj'
p2879
I40
tp2880
a(I37
S'mod'
p2881
I36
tp2882
a(I38
S'spec'
p2883
I39
tp2884
a(I39
S'comp'
p2885
I37
tp2886
a(I40
S'comp'
p2887
I33
tp2888
a(I41
S'adjt'
p2889
I40
tp2890
a(I42
S'spec'
p2891
I43
tp2892
a(I43
S'comp'
p2893
I41
tp2894
a(I44
S'spec'
p2895
I45
tp2896
a(I45
S'dobj'
p2897
I40
tp2898
a(I46
S'mod'
p2899
I45
tp2900
a(I47
S'comp'
p2901
I46
tp2902
a(I48
S'adjt'
p2903
I40
tp2904
a(I49
S'comp'
p2905
I48
tp2906
a(I50
S'punc'
p2907
I3
tp2908
aa(lp2909
(I0
S'spec'
p2910
I1
tp2911
a(I1
S'subj'
p2912
I9
tp2913
a(I2
S'adjt'
p2914
I9
tp2915
a(I3
S'comp'
p2916
I2
tp2917
a(I4
S'adjt'
p2918
I9
tp2919
a(I5
S'spec'
p2920
I6
tp2921
a(I6
S'modnomatch'
p2922
I4
tp2923
a(I7
S'spec'
p2924
I8
tp2925
a(I8
S'dobj'
p2926
I6
tp2927
a(I9
S'top'
p2928
I0
tp2929
a(I10
S'spec'
p2930
I11
tp2931
a(I11
S'attr'
p2932
I9
tp2933
a(I12
S'adjt'
p2934
I9
tp2935
a(I13
S'spec'
p2936
I14
tp2937
a(I14
S'dobj'
p2938
I12
tp2939
a(I15
S'mod'
p2940
I14
tp2941
a(I16
S'spec'
p2942
I17
tp2943
a(I17
S'comp'
p2944
I15
tp2945
a(I18
S'punc'
p2946
I9
tp2947
aa(lp2948
(I0
S'adjt'
p2949
I5
tp2950
a(I1
S'punc'
p2951
I0
tp2952
a(I2
S'spec'
p2953
I3
tp2954
a(I3
S'subj'
p2955
I5
tp2956
a(I4
S'prt'
p2957
I5
tp2958
a(I5
S'top'
p2959
I0
tp2960
a(I6
S'spec'
p2961
I7
tp2962
a(I7
S'dobj'
p2963
I5
tp2964
a(I8
S'punc'
p2965
I5
tp2966
a(I9
S'adjt'
p2967
I5
tp2968
a(I10
S'subj'
p2969
I11
tp2970
a(I11
S'comp'
p2971
I9
tp2972
a(I12
S'spec'
p2973
I13
tp2974
a(I13
S'attr'
p2975
I11
tp2976
a(I14
S'mod'
p2977
I13
tp2978
a(I15
S'spec'
p2979
I17
tp2980
a(I16
S'mod'
p2981
I17
tp2982
a(I17
S'comp'
p2983
I14
tp2984
a(I18
S'punc'
p2985
I5
tp2986
aa(lp2987
(I0
S'top'
p2988
I0
tp2989
a(I1
S'attr'
p2990
I0
tp2991
a(I2
S'adjt'
p2992
I0
tp2993
a(I3
S'comp'
p2994
I2
tp2995
a(I4
S'mod'
p2996
I3
tp2997
a(I5
S'spec'
p2998
I6
tp2999
a(I6
S'comp'
p3000
I4
tp3001
a(I7
S'modnomatch'
p3002
I0
tp3003
a(I8
S'mphes'
p3004
I7
tp3005
a(I9
S'adjt'
p3006
I7
tp3007
a(I10
S'comp'
p3008
I9
tp3009
a(I11
S'spec'
p3010
I12
tp3011
a(I12
S'dobj'
p3012
I10
tp3013
a(I13
S'punc'
p3014
I0
tp3015
aa(lp3016
(I0
S'adjt'
p3017
I9
tp3018
a(I1
S'aux'
p3019
I2
tp3020
a(I2
S'comp'
p3021
I0
tp3022
a(I3
S'spec'
p3023
I4
tp3024
a(I4
S'dobj'
p3025
I2
tp3026
a(I5
S'punc'
p3027
I0
tp3028
a(I6
S'spec'
p3029
I7
tp3030
a(I7
S'subj'
p3031
I9
tp3032
a(I8
S'adjt'
p3033
I9
tp3034
a(I9
S'top'
p3035
I0
tp3036
a(I10
S'spec'
p3037
I11
tp3038
a(I11
S'attr'
p3039
I9
tp3040
a(I12
S'punc'
p3041
I9
tp3042
aa(lp3043
(I0
S'adjt'
p3044
I3
tp3045
a(I1
S'comp'
p3046
I0
tp3047
a(I2
S'punc'
p3048
I0
tp3049
a(I3
S'top'
p3050
I0
tp3051
a(I4
S'spec'
p3052
I5
tp3053
a(I5
S'subj'
p3054
I3
tp3055
a(I6
S'mod'
p3056
I5
tp3057
a(I7
S'spec'
p3058
I8
tp3059
a(I8
S'comp'
p3060
I6
tp3061
a(I9
S'mod'
p3062
I8
tp3063
a(I10
S'pobj'
p3064
I3
tp3065
a(I11
S'spec'
p3066
I12
tp3067
a(I12
S'comp'
p3068
I10
tp3069
a(I13
S'punc'
p3070
I3
tp3071
aa(lp3072
(I0
S'spec'
p3073
I1
tp3074
a(I1
S'top'
p3075
I0
tp3076
a(I2
S'spec'
p3077
I3
tp3078
a(I3
S'subj'
p3079
I5
tp3080
a(I4
S'prt'
p3081
I5
tp3082
a(I5
S'modnomatch'
p3083
I1
tp3084
a(I6
S'adjt'
p3085
I5
tp3086
a(I7
S'punc'
p3087
I1
tp3088
aa(lp3089
(I0
S'punc'
p3090
I5
tp3091
a(I1
S'adjt'
p3092
I5
tp3093
a(I2
S'comp'
p3094
I1
tp3095
a(I3
S'prt'
p3096
I5
tp3097
a(I4
S'prt'
p3098
I5
tp3099
a(I5
S'top'
p3100
I0
tp3101
a(I6
S'mphes'
p3102
I5
tp3103
a(I7
S'spec'
p3104
I8
tp3105
a(I8
S'dobj'
p3106
I5
tp3107
a(I9
S'mod'
p3108
I8
tp3109
a(I10
S'comp'
p3110
I9
tp3111
a(I11
S'mod'
p3112
I8
tp3113
a(I12
S'spec'
p3114
I13
tp3115
a(I13
S'comp'
p3116
I11
tp3117
a(I14
S'adjt'
p3118
I5
tp3119
a(I15
S'comp'
p3120
I14
tp3121
a(I16
S'mod'
p3122
I15
tp3123
a(I17
S'punc'
p3124
I5
tp3125
aa(lp3126
(I0
S'adjt'
p3127
I7
tp3128
a(I1
S'spec'
p3129
I2
tp3130
a(I2
S'comp'
p3131
I0
tp3132
a(I3
S'punc'
p3133
I0
tp3134
a(I4
S'spec'
p3135
I5
tp3136
a(I5
S'subj'
p3137
I7
tp3138
a(I6
S'spec'
p3139
I7
tp3140
a(I7
S'top'
p3141
I0
tp3142
a(I8
S'spec'
p3143
I9
tp3144
a(I9
S'modnomatch'
p3145
I7
tp3146
a(I10
S'adjt'
p3147
I7
tp3148
a(I11
S'spec'
p3149
I12
tp3150
a(I12
S'comp'
p3151
I10
tp3152
a(I13
S'mod'
p3153
I12
tp3154
a(I14
S'comp'
p3155
I13
tp3156
a(I15
S'adjt'
p3157
I7
tp3158
a(I16
S'spec'
p3159
I17
tp3160
a(I17
S'comp'
p3161
I15
tp3162
a(I18
S'punc'
p3163
I7
tp3164
aa(lp3165
(I0
S'top'
p3166
I0
tp3167
a(I1
S'mod'
p3168
I0
tp3169
a(I2
S'spec'
p3170
I3
tp3171
a(I3
S'comp'
p3172
I1
tp3173
aa(lp3174
(I0
S'adjt'
p3175
I10
tp3176
a(I1
S'comp'
p3177
I0
tp3178
a(I2
S'adjt'
p3179
I10
tp3180
a(I3
S'spec'
p3181
I4
tp3182
a(I4
S'comp'
p3183
I2
tp3184
a(I5
S'adjt'
p3185
I10
tp3186
a(I6
S'spec'
p3187
I7
tp3188
a(I7
S'comp'
p3189
I5
tp3190
a(I8
S'punc'
p3191
I5
tp3192
a(I9
S'mphes'
p3193
I10
tp3194
a(I10
S'top'
p3195
I0
tp3196
a(I11
S'pobj'
p3197
I10
tp3198
a(I12
S'comp'
p3199
I11
tp3200
a(I13
S'spec'
p3201
I14
tp3202
a(I14
S'dobj'
p3203
I12
tp3204
a(I15
S'mod'
p3205
I14
tp3206
a(I16
S'adjt'
p3207
I12
tp3208
a(I17
S'comp'
p3209
I16
tp3210
a(I18
S'adjt'
p3211
I12
tp3212
a(I19
S'spec'
p3213
I20
tp3214
a(I20
S'comp'
p3215
I18
tp3216
a(I21
S'punc'
p3217
I10
tp3218
a(I22
S'adjt'
p3219
I10
tp3220
a(I23
S'adjt'
p3221
I22
tp3222
a(I24
S'comp'
p3223
I23
tp3224
a(I25
S'adjt'
p3225
I22
tp3226
a(I26
S'spec'
p3227
I27
tp3228
a(I27
S'comp'
p3229
I25
tp3230
a(I28
S'modnomatch'
p3231
I10
tp3232
a(I29
S'mod'
p3233
I28
tp3234
a(I30
S'spec'
p3235
I31
tp3236
a(I31
S'comp'
p3237
I29
tp3238
a(I32
S'pobj'
p3239
I10
tp3240
a(I33
S'spec'
p3241
I34
tp3242
a(I34
S'comp'
p3243
I32
tp3244
a(I35
S'punc'
p3245
I32
tp3246
a(I36
S'spec'
p3247
I37
tp3248
a(I37
S'adjt'
p3249
I10
tp3250
a(I38
S'punc'
p3251
I10
tp3252
aa(lp3253
(I0
S'coor'
p3254
I6
tp3255
a(I1
S'spec'
p3256
I2
tp3257
a(I2
S'comp'
p3258
I0
tp3259
a(I3
S'coor'
p3260
I6
tp3261
a(I4
S'spec'
p3262
I5
tp3263
a(I5
S'comp'
p3264
I3
tp3265
a(I6
S'top'
p3266
I0
tp3267
a(I7
S'coor'
p3268
I6
tp3269
a(I8
S'spec'
p3270
I9
tp3271
a(I9
S'comp'
p3272
I7
tp3273
a(I10
S'punc'
p3274
I6
tp3275
a(I11
S'spec'
p3276
I12
tp3277
a(I12
S'modnomatch'
p3278
I6
tp3279
a(I13
S'dobj'
p3280
I12
tp3281
a(I14
S'punc'
p3282
I12
tp3283
aa(lp3284
(I0
S'top'
p3285
I0
tp3286
a(I1
S'punc'
p3287
I0
tp3288
aa(lp3289
(I0
S'spec'
p3290
I1
tp3291
a(I1
S'subj'
p3292
I2
tp3293
a(I2
S'top'
p3294
I0
tp3295
a(I3
S'modnomatch'
p3296
I2
tp3297
a(I4
S'mphes'
p3298
I5
tp3299
a(I5
S'comp'
p3300
I3
tp3301
a(I6
S'spec'
p3302
I7
tp3303
a(I7
S'dobj'
p3304
I5
tp3305
a(I8
S'mod'
p3306
I7
tp3307
a(I9
S'spec'
p3308
I10
tp3309
a(I10
S'comp'
p3310
I8
tp3311
a(I11
S'adjt'
p3312
I5
tp3313
a(I12
S'spec'
p3314
I13
tp3315
a(I13
S'comp'
p3316
I11
tp3317
a(I14
S'mod'
p3318
I13
tp3319
a(I15
S'adjt'
p3320
I5
tp3321
a(I16
S'spec'
p3322
I17
tp3323
a(I17
S'comp'
p3324
I15
tp3325
a(I18
S'spec'
p3326
I19
tp3327
a(I19
S'adjt'
p3328
I5
tp3329
a(I20
S'punc'
p3330
I2
tp3331
a(I21
S'modnomatch'
p3332
I2
tp3333
a(I22
S'coor'
p3334
I21
tp3335
a(I23
S'spec'
p3336
I24
tp3337
a(I24
S'comp'
p3338
I22
tp3339
a(I25
S'mod'
p3340
I24
tp3341
a(I26
S'adjt'
p3342
I2
tp3343
a(I27
S'spec'
p3344
I28
tp3345
a(I28
S'comp'
p3346
I26
tp3347
a(I29
S'punc'
p3348
I2
tp3349
aa(lp3350
(I0
S'top'
p3351
I0
tp3352
a(I1
S'dobj'
p3353
I0
tp3354
a(I2
S'spec'
p3355
I3
tp3356
a(I3
S'subj'
p3357
I10
tp3358
a(I4
S'punc'
p3359
I3
tp3360
a(I5
S'modnomatch'
p3361
I10
tp3362
a(I6
S'mod'
p3363
I5
tp3364
a(I7
S'spec'
p3365
I8
tp3366
a(I8
S'comp'
p3367
I6
tp3368
a(I9
S'punc'
p3369
I5
tp3370
a(I10
S'comp'
p3371
I1
tp3372
a(I11
S'adjt'
p3373
I10
tp3374
a(I12
S'comp'
p3375
I11
tp3376
a(I13
S'dobj'
p3377
I12
tp3378
a(I14
S'punc'
p3379
I0
tp3380
a(I15
S'adjt'
p3381
I0
tp3382
a(I16
S'adjt'
p3383
I19
tp3384
a(I17
S'comp'
p3385
I16
tp3386
a(I18
S'iobj'
p3387
I19
tp3388
a(I19
S'comp'
p3389
I15
tp3390
a(I20
S'attr'
p3391
I19
tp3392
a(I21
S'punc'
p3393
I0
tp3394
a(I22
S'adjt'
p3395
I0
tp3396
a(I23
S'punc'
p3397
I0
tp3398
aa(lp3399
(I0
S'adjt'
p3400
I3
tp3401
a(I1
S'comp'
p3402
I0
tp3403
a(I2
S'punc'
p3404
I0
tp3405
a(I3
S'top'
p3406
I0
tp3407
a(I4
S'coor'
p3408
I9
tp3409
a(I5
S'spec'
p3410
I6
tp3411
a(I6
S'comp'
p3412
I4
tp3413
a(I7
S'coor'
p3414
I9
tp3415
a(I8
S'comp'
p3416
I7
tp3417
a(I9
S'modnomatch'
p3418
I3
tp3419
a(I10
S'coor'
p3420
I9
tp3421
a(I11
S'comp'
p3422
I10
tp3423
a(I12
S'modnomatch'
p3424
I3
tp3425
a(I13
S'modnomatch'
p3426
I3
tp3427
a(I14
S'punc'
p3428
I3
tp3429
aa(lp3430
(I0
S'subj'
p3431
I15
tp3432
a(I1
S'punc'
p3433
I0
tp3434
a(I2
S'spec'
p3435
I3
tp3436
a(I3
S'mod'
p3437
I0
tp3438
a(I4
S'mod'
p3439
I3
tp3440
a(I5
S'spec'
p3441
I6
tp3442
a(I6
S'comp'
p3443
I4
tp3444
a(I7
S'mod'
p3445
I6
tp3446
a(I8
S'mod'
p3447
I3
tp3448
a(I9
S'spec'
p3449
I10
tp3450
a(I10
S'comp'
p3451
I8
tp3452
a(I11
S'modnomatch'
p3453
I0
tp3454
a(I12
S'spec'
p3455
I0
tp3456
a(I13
S'spec'
p3457
I14
tp3458
a(I14
S'modnomatch'
p3459
I15
tp3460
a(I15
S'top'
p3461
I0
tp3462
a(I16
S'adjt'
p3463
I15
tp3464
a(I17
S'spec'
p3465
I18
tp3466
a(I18
S'attr'
p3467
I15
tp3468
a(I19
S'mod'
p3469
I18
tp3470
a(I20
S'spec'
p3471
I21
tp3472
a(I21
S'comp'
p3473
I19
tp3474
a(I22
S'subj'
p3475
I23
tp3476
a(I23
S'mod'
p3477
I18
tp3478
a(I24
S'spec'
p3479
I25
tp3480
a(I25
S'dobj'
p3481
I23
tp3482
a(I26
S'mod'
p3483
I25
tp3484
a(I27
S'spec'
p3485
I28
tp3486
a(I28
S'comp'
p3487
I26
tp3488
a(I29
S'adjt'
p3489
I23
tp3490
a(I30
S'comp'
p3491
I29
tp3492
a(I31
S'adjt'
p3493
I15
tp3494
a(I32
S'coor'
p3495
I31
tp3496
a(I33
S'spec'
p3497
I34
tp3498
a(I34
S'modnomatch'
p3499
I15
tp3500
a(I35
S'mod'
p3501
I34
tp3502
a(I36
S'mod'
p3503
I34
tp3504
a(I37
S'spec'
p3505
I38
tp3506
a(I38
S'comp'
p3507
I36
tp3508
a(I39
S'punc'
p3509
I15
tp3510
a(I40
S'subj'
p3511
I41
tp3512
a(I41
S'modnomatch'
p3513
I15
tp3514
a(I42
S'spec'
p3515
I43
tp3516
a(I43
S'dobj'
p3517
I41
tp3518
a(I44
S'adjt'
p3519
I41
tp3520
a(I45
S'spec'
p3521
I46
tp3522
a(I46
S'comp'
p3523
I44
tp3524
a(I47
S'mod'
p3525
I46
tp3526
a(I48
S'comp'
p3527
I47
tp3528
a(I49
S'punc'
p3529
I15
tp3530
aa(lp3531
(I0
S'top'
p3532
I0
tp3533
a(I1
S'dobj'
p3534
I0
tp3535
a(I2
S'spec'
p3536
I3
tp3537
a(I3
S'modnomatch'
p3538
I0
tp3539
a(I4
S'adjt'
p3540
I0
tp3541
a(I5
S'spec'
p3542
I6
tp3543
a(I6
S'comp'
p3544
I4
tp3545
a(I7
S'adjt'
p3546
I0
tp3547
a(I8
S'comp'
p3548
I7
tp3549
a(I9
S'spec'
p3550
I10
tp3551
a(I10
S'subj'
p3552
I11
tp3553
a(I11
S'comp'
p3554
I8
tp3555
a(I12
S'spec'
p3556
I13
tp3557
a(I13
S'attr'
p3558
I11
tp3559
a(I14
S'subj'
p3560
I15
tp3561
a(I15
S'mod'
p3562
I13
tp3563
a(I16
S'spec'
p3564
I17
tp3565
a(I17
S'dobj'
p3566
I15
tp3567
a(I18
S'mod'
p3568
I17
tp3569
a(I19
S'spec'
p3570
I20
tp3571
a(I20
S'comp'
p3572
I18
tp3573
a(I21
S'adjt'
p3574
I15
tp3575
a(I22
S'spec'
p3576
I23
tp3577
a(I23
S'comp'
p3578
I21
tp3579
a(I24
S'modnomatch'
p3580
I0
tp3581
a(I25
S'punc'
p3582
I0
tp3583
a(I26
S'adjt'
p3584
I0
tp3585
a(I27
S'punc'
p3586
I0
tp3587
a(I28
S'modnomatch'
p3588
I0
tp3589
a(I29
S'adjt'
p3590
I28
tp3591
a(I30
S'spec'
p3592
I31
tp3593
a(I31
S'subj'
p3594
I34
tp3595
a(I32
S'prt'
p3596
I34
tp3597
a(I33
S'prt'
p3598
I34
tp3599
a(I34
S'modnomatch'
p3600
I28
tp3601
a(I35
S'spec'
p3602
I36
tp3603
a(I36
S'attr'
p3604
I34
tp3605
a(I37
S'mod'
p3606
I36
tp3607
a(I38
S'pred'
p3608
I0
tp3609
a(I39
S'coor'
p3610
I38
tp3611
a(I40
S'adjt'
p3612
I0
tp3613
a(I41
S'spec'
p3614
I42
tp3615
a(I42
S'comp'
p3616
I40
tp3617
a(I43
S'adjt'
p3618
I0
tp3619
a(I44
S'spec'
p3620
I45
tp3621
a(I45
S'comp'
p3622
I43
tp3623
a(I46
S'modnomatch'
p3624
I0
tp3625
a(I47
S'mod'
p3626
I46
tp3627
a(I48
S'punc'
p3628
I46
tp3629
aa(lp3630
(I0
S'top'
p3631
I0
tp3632
a(I1
S'adjt'
p3633
I0
tp3634
a(I2
S'punc'
p3635
I0
tp3636
a(I3
S'dobj'
p3637
I0
tp3638
a(I4
S'mod'
p3639
I3
tp3640
a(I5
S'punc'
p3641
I3
tp3642
a(I6
S'modnomatch'
p3643
I3
tp3644
a(I7
S'spec'
p3645
I8
tp3646
a(I8
S'subj'
p3647
I9
tp3648
a(I9
S'comp'
p3649
I6
tp3650
a(I10
S'adjt'
p3651
I9
tp3652
a(I11
S'spec'
p3653
I12
tp3654
a(I12
S'comp'
p3655
I10
tp3656
a(I13
S'adjt'
p3657
I9
tp3658
a(I14
S'spec'
p3659
I16
tp3660
a(I15
S'mod'
p3661
I16
tp3662
a(I16
S'comp'
p3663
I13
tp3664
a(I17
S'modnomatch'
p3665
I16
tp3666
a(I18
S'dobj'
p3667
I9
tp3668
a(I19
S'adjt'
p3669
I9
tp3670
a(I20
S'spec'
p3671
I21
tp3672
a(I21
S'comp'
p3673
I19
tp3674
a(I22
S'punc'
p3675
I0
tp3676
a(I23
S'adjt'
p3677
I27
tp3678
a(I24
S'spec'
p3679
I25
tp3680
a(I25
S'comp'
p3681
I23
tp3682
a(I26
S'dobj'
p3683
I27
tp3684
a(I27
S'modnomatch'
p3685
I0
tp3686
a(I28
S'adjt'
p3687
I27
tp3688
a(I29
S'comp'
p3689
I28
tp3690
a(I30
S'adjt'
p3691
I27
tp3692
a(I31
S'comp'
p3693
I30
tp3694
a(I32
S'adjt'
p3695
I27
tp3696
a(I33
S'coor'
p3697
I32
tp3698
a(I34
S'punc'
p3699
I27
tp3700
a(I35
S'adjt'
p3701
I42
tp3702
a(I36
S'spec'
p3703
I38
tp3704
a(I37
S'mod'
p3705
I38
tp3706
a(I38
S'comp'
p3707
I35
tp3708
a(I39
S'adjt'
p3709
I42
tp3710
a(I40
S'comp'
p3711
I39
tp3712
a(I41
S'punc'
p3713
I39
tp3714
a(I42
S'modnomatch'
p3715
I0
tp3716
a(I43
S'adjt'
p3717
I42
tp3718
a(I44
S'comp'
p3719
I43
tp3720
a(I45
S'pobj'
p3721
I42
tp3722
a(I46
S'comp'
p3723
I45
tp3724
a(I47
S'iobj'
p3725
I46
tp3726
a(I48
S'spec'
p3727
I49
tp3728
a(I49
S'dobj'
p3729
I46
tp3730
a(I50
S'pobj'
p3731
I46
tp3732
a(I51
S'comp'
p3733
I50
tp3734
a(I52
S'pobj'
p3735
I46
tp3736
a(I53
S'spec'
p3737
I54
tp3738
a(I54
S'spec'
p3739
I55
tp3740
a(I55
S'comp'
p3741
I52
tp3742
a(I56
S'punc'
p3743
I42
tp3744
aa(lp3745
(I0
S'top'
p3746
I0
tp3747
a(I1
S'punc'
p3748
I0
tp3749
a(I2
S'modnomatch'
p3750
I0
tp3751
a(I3
S'modnomatch'
p3752
I0
tp3753
a(I4
S'mod'
p3754
I5
tp3755
a(I5
S'modnomatch'
p3756
I0
tp3757
a(I6
S'mod'
p3758
I5
tp3759
a(I7
S'coor'
p3760
I14
tp3761
a(I8
S'comp'
p3762
I7
tp3763
a(I9
S'spec'
p3764
I10
tp3765
a(I10
S'subj'
p3766
I11
tp3767
a(I11
S'comp'
p3768
I8
tp3769
a(I12
S'spec'
p3770
I13
tp3771
a(I13
S'dobj'
p3772
I11
tp3773
a(I14
S'mod'
p3774
I0
tp3775
a(I15
S'coor'
p3776
I14
tp3777
a(I16
S'comp'
p3778
I15
tp3779
a(I17
S'subj'
p3780
I20
tp3781
a(I18
S'dobj'
p3782
I20
tp3783
a(I19
S'prt'
p3784
I20
tp3785
a(I20
S'comp'
p3786
I16
tp3787
a(I21
S'modnomatch'
p3788
I0
tp3789
a(I22
S'prt'
p3790
I23
tp3791
a(I23
S'coor'
p3792
I21
tp3793
a(I24
S'mphes'
p3794
I23
tp3795
a(I25
S'dobj'
p3796
I23
tp3797
a(I26
S'adjt'
p3798
I23
tp3799
a(I27
S'spec'
p3800
I28
tp3801
a(I28
S'comp'
p3802
I26
tp3803
a(I29
S'punc'
p3804
I0
tp3805
aa(lp3806
(I0
S'adjt'
p3807
I3
tp3808
a(I1
S'spec'
p3809
I2
tp3810
a(I2
S'comp'
p3811
I0
tp3812
a(I3
S'top'
p3813
I0
tp3814
a(I4
S'spec'
p3815
I5
tp3816
a(I5
S'dobj'
p3817
I3
tp3818
a(I6
S'adjt'
p3819
I3
tp3820
a(I7
S'spec'
p3821
I8
tp3822
a(I8
S'comp'
p3823
I6
tp3824
a(I9
S'punc'
p3825
I3
tp3826
a(I10
S'adjt'
p3827
I3
tp3828
a(I11
S'spec'
p3829
I12
tp3830
a(I12
S'subj'
p3831
I14
tp3832
a(I13
S'mphes'
p3833
I14
tp3834
a(I14
S'comp'
p3835
I10
tp3836
a(I15
S'dobj'
p3837
I14
tp3838
a(I16
S'mphes'
p3839
I17
tp3840
a(I17
S'comp'
p3841
I15
tp3842
a(I18
S'spec'
p3843
I19
tp3844
a(I19
S'subj'
p3845
I17
tp3846
a(I20
S'adjt'
p3847
I17
tp3848
a(I21
S'spec'
p3849
I22
tp3850
a(I22
S'comp'
p3851
I20
tp3852
a(I23
S'spec'
p3853
I24
tp3854
a(I24
S'pred'
p3855
I17
tp3856
a(I25
S'pred'
p3857
I17
tp3858
a(I26
S'punc'
p3859
I3
tp3860
aa(lp3861
(I0
S'spec'
p3862
I1
tp3863
a(I1
S'subj'
p3864
I30
tp3865
a(I2
S'mod'
p3866
I1
tp3867
a(I3
S'spec'
p3868
I4
tp3869
a(I4
S'mod'
p3870
I1
tp3871
a(I5
S'mod'
p3872
I4
tp3873
a(I6
S'punc'
p3874
I1
tp3875
a(I7
S'subj'
p3876
I10
tp3877
a(I8
S'mphes'
p3878
I10
tp3879
a(I9
S'aux'
p3880
I10
tp3881
a(I10
S'mod'
p3882
I1
tp3883
a(I11
S'adjt'
p3884
I10
tp3885
a(I12
S'spec'
p3886
I13
tp3887
a(I13
S'comp'
p3888
I11
tp3889
a(I14
S'mod'
p3890
I13
tp3891
a(I15
S'spec'
p3892
I16
tp3893
a(I16
S'comp'
p3894
I14
tp3895
a(I17
S'modnomatch'
p3896
I1
tp3897
a(I18
S'modnomatch'
p3898
I1
tp3899
a(I19
S'modnomatch'
p3900
I18
tp3901
a(I20
S'modnomatch'
p3902
I1
tp3903
a(I21
S'mod'
p3904
I1
tp3905
a(I22
S'comp'
p3906
I21
tp3907
a(I23
S'modnomatch'
p3908
I1
tp3909
a(I24
S'coor'
p3910
I23
tp3911
a(I25
S'dobj'
p3912
I24
tp3913
a(I26
S'mod'
p3914
I25
tp3915
a(I27
S'mod'
p3916
I1
tp3917
a(I28
S'comp'
p3918
I27
tp3919
a(I29
S'punc'
p3920
I1
tp3921
a(I30
S'top'
p3922
I0
tp3923
a(I31
S'spec'
p3924
I32
tp3925
a(I32
S'dobj'
p3926
I30
tp3927
a(I33
S'punc'
p3928
I30
tp3929
a(I34
S'modnomatch'
p3930
I30
tp3931
a(I35
S'spec'
p3932
I36
tp3933
a(I36
S'coor'
p3934
I34
tp3935
a(I37
S'spec'
p3936
I38
tp3937
a(I38
S'modnomatch'
p3938
I30
tp3939
a(I39
S'pobj'
p3940
I38
tp3941
a(I40
S'comp'
p3942
I39
tp3943
a(I41
S'attr'
p3944
I38
tp3945
a(I42
S'comp'
p3946
I41
tp3947
a(I43
S'spec'
p3948
I44
tp3949
a(I44
S'dobj'
p3950
I42
tp3951
a(I45
S'punc'
p3952
I30
tp3953
a(I46
S'adjt'
p3954
I49
tp3955
a(I47
S'spec'
p3956
I48
tp3957
a(I48
S'comp'
p3958
I46
tp3959
a(I49
S'modnomatch'
p3960
I30
tp3961
a(I50
S'dobj'
p3962
I49
tp3963
a(I51
S'dobj'
p3964
I52
tp3965
a(I52
S'comp'
p3966
I50
tp3967
a(I53
S'punc'
p3968
I49
tp3969
aa(lp3970
(I0
S'adjt'
p3971
I6
tp3972
a(I1
S'comp'
p3973
I0
tp3974
a(I2
S'mod'
p3975
I1
tp3976
a(I3
S'spec'
p3977
I4
tp3978
a(I4
S'comp'
p3979
I2
tp3980
a(I5
S'punc'
p3981
I2
tp3982
a(I6
S'top'
p3983
I0
tp3984
a(I7
S'pobj'
p3985
I6
tp3986
a(I8
S'comp'
p3987
I7
tp3988
a(I9
S'attr'
p3989
I6
tp3990
a(I10
S'comp'
p3991
I9
tp3992
a(I11
S'dobj'
p3993
I10
tp3994
a(I12
S'punc'
p3995
I6
tp3996
aa(lp3997
(I0
S'adjt'
p3998
I11
tp3999
a(I1
S'spec'
p4000
I2
tp4001
a(I2
S'subj'
p4002
I3
tp4003
a(I3
S'comp'
p4004
I0
tp4005
a(I4
S'attr'
p4006
I3
tp4007
a(I5
S'agnt'
p4008
I4
tp4009
a(I6
S'spec'
p4010
I7
tp4011
a(I7
S'comp'
p4012
I5
tp4013
a(I8
S'punc'
p4014
I0
tp4015
a(I9
S'subj'
p4016
I11
tp4017
a(I10
S'punc'
p4018
I9
tp4019
a(I11
S'top'
p4020
I0
tp4021
a(I12
S'dobj'
p4022
I11
tp4023
a(I13
S'adjt'
p4024
I15
tp4025
a(I14
S'comp'
p4026
I13
tp4027
a(I15
S'comp'
p4028
I12
tp4029
a(I16
S'attr'
p4030
I15
tp4031
a(I17
S'modnomatch'
p4032
I15
tp4033
a(I18
S'spec'
p4034
I19
tp4035
a(I19
S'dobj'
p4036
I17
tp4037
a(I20
S'mod'
p4038
I19
tp4039
a(I21
S'spec'
p4040
I22
tp4041
a(I22
S'comp'
p4042
I20
tp4043
a(I23
S'pobj'
p4044
I17
tp4045
a(I24
S'comp'
p4046
I23
tp4047
a(I25
S'adjt'
p4048
I17
tp4049
a(I26
S'spec'
p4050
I27
tp4051
a(I27
S'comp'
p4052
I25
tp4053
a(I28
S'pobj'
p4054
I17
tp4055
a(I29
S'comp'
p4056
I28
tp4057
a(I30
S'spec'
p4058
I31
tp4059
a(I31
S'dobj'
p4060
I29
tp4061
a(I32
S'punc'
p4062
I11
tp4063
a(I33
S'adjt'
p4064
I11
tp4065
a(I34
S'mphes'
p4066
I36
tp4067
a(I35
S'aux'
p4068
I36
tp4069
a(I36
S'comp'
p4070
I33
tp4071
a(I37
S'punc'
p4072
I11
tp4073
a(I38
S'punc'
p4074
I11
tp4075
a(I39
S'modnomatch'
p4076
I11
tp4077
a(I40
S'spec'
p4078
I41
tp4079
a(I41
S'coor'
p4080
I39
tp4081
a(I42
S'spec'
p4082
I43
tp4083
a(I43
S'modnomatch'
p4084
I11
tp4085
a(I44
S'pobj'
p4086
I43
tp4087
a(I45
S'comp'
p4088
I44
tp4089
a(I46
S'attr'
p4090
I43
tp4091
a(I47
S'comp'
p4092
I46
tp4093
a(I48
S'spec'
p4094
I49
tp4095
a(I49
S'dobj'
p4096
I47
tp4097
a(I50
S'punc'
p4098
I43
tp4099
a(I51
S'adjt'
p4100
I43
tp4101
a(I52
S'comp'
p4102
I51
tp4103
a(I53
S'modnomatch'
p4104
I43
tp4105
a(I54
S'comp'
p4106
I53
tp4107
a(I55
S'dobj'
p4108
I54
tp4109
a(I56
S'punc'
p4110
I43
tp4111
aa(lp4112
(I0
S'adjt'
p4113
I7
tp4114
a(I1
S'spec'
p4115
I2
tp4116
a(I2
S'comp'
p4117
I0
tp4118
a(I3
S'punc'
p4119
I0
tp4120
a(I4
S'spec'
p4121
I6
tp4122
a(I5
S'mod'
p4123
I6
tp4124
a(I6
S'subj'
p4125
I7
tp4126
a(I7
S'top'
p4127
I0
tp4128
a(I8
S'dobj'
p4129
I7
tp4130
a(I9
S'dobj'
p4131
I8
tp4132
a(I10
S'mod'
p4133
I9
tp4134
a(I11
S'spec'
p4135
I12
tp4136
a(I12
S'comp'
p4137
I10
tp4138
a(I13
S'adjt'
p4139
I8
tp4140
a(I14
S'comp'
p4141
I13
tp4142
a(I15
S'punc'
p4143
I7
tp4144
a(I16
S'adjt'
p4145
I7
tp4146
a(I17
S'comp'
p4147
I16
tp4148
a(I18
S'spec'
p4149
I19
tp4150
a(I19
S'dobj'
p4151
I17
tp4152
a(I20
S'mod'
p4153
I19
tp4154
a(I21
S'punc'
p4155
I19
tp4156
a(I22
S'spec'
p4157
I23
tp4158
a(I23
S'modnomatch'
p4159
I17
tp4160
a(I24
S'mod'
p4161
I23
tp4162
a(I25
S'mod'
p4163
I23
tp4164
a(I26
S'adjt'
p4165
I7
tp4166
a(I27
S'comp'
p4167
I26
tp4168
a(I28
S'adjt'
p4169
I27
tp4170
a(I29
S'spec'
p4171
I30
tp4172
a(I30
S'comp'
p4173
I28
tp4174
a(I31
S'mod'
p4175
I30
tp4176
a(I32
S'adjt'
p4177
I27
tp4178
a(I33
S'comp'
p4179
I32
tp4180
a(I34
S'spec'
p4181
I35
tp4182
a(I35
S'dobj'
p4183
I27
tp4184
a(I36
S'mod'
p4185
I35
tp4186
a(I37
S'adjt'
p4187
I27
tp4188
a(I38
S'spec'
p4189
I39
tp4190
a(I39
S'comp'
p4191
I37
tp4192
a(I40
S'spec'
p4193
I41
tp4194
a(I41
S'adjt'
p4195
I27
tp4196
a(I42
S'adjt'
p4197
I7
tp4198
a(I43
S'punc'
p4199
I7
tp4200
a(I44
S'modnomatch'
p4201
I7
tp4202
a(I45
S'spec'
p4203
I7
tp4204
a(I46
S'spec'
p4205
I47
tp4206
a(I47
S'adjt'
p4207
I7
tp4208
a(I48
S'adjt'
p4209
I7
tp4210
a(I49
S'punc'
p4211
I7
tp4212
a(I50
S'adjt'
p4213
I7
tp4214
a(I51
S'mphes'
p4215
I53
tp4216
a(I52
S'aux'
p4217
I53
tp4218
a(I53
S'comp'
p4219
I50
tp4220
a(I54
S'punc'
p4221
I7
tp4222
a(I55
S'punc'
p4223
I7
tp4224
a(I56
S'adjt'
p4225
I7
tp4226
a(I57
S'dobj'
p4227
I56
tp4228
a(I58
S'spec'
p4229
I59
tp4230
a(I59
S'subj'
p4231
I62
tp4232
a(I60
S'mod'
p4233
I59
tp4234
a(I61
S'mphes'
p4235
I62
tp4236
a(I62
S'comp'
p4237
I57
tp4238
a(I63
S'adjt'
p4239
I62
tp4240
a(I64
S'comp'
p4241
I63
tp4242
a(I65
S'punc'
p4243
I56
tp4244
a(I66
S'adjt'
p4245
I56
tp4246
a(I67
S'prt'
p4247
I68
tp4248
a(I68
S'comp'
p4249
I66
tp4250
a(I69
S'pobj'
p4251
I68
tp4252
a(I70
S'spec'
p4253
I71
tp4254
a(I71
S'comp'
p4255
I69
tp4256
a(I72
S'punc'
p4257
I66
tp4258
a(I73
S'modnomatch'
p4259
I7
tp4260
a(I74
S'adjt'
p4261
I7
tp4262
a(I75
S'spec'
p4263
I76
tp4264
a(I76
S'comp'
p4265
I74
tp4266
a(I77
S'mod'
p4267
I76
tp4268
a(I78
S'spec'
p4269
I79
tp4270
a(I79
S'coor'
p4271
I80
tp4272
a(I80
S'modnomatch'
p4273
I7
tp4274
a(I81
S'coor'
p4275
I80
tp4276
a(I82
S'dobj'
p4277
I84
tp4278
a(I83
S'aux'
p4279
I84
tp4280
a(I84
S'modnomatch'
p4281
I7
tp4282
a(I85
S'adjt'
p4283
I84
tp4284
a(I86
S'spec'
p4285
I87
tp4286
a(I87
S'spec'
p4287
I88
tp4288
a(I88
S'comp'
p4289
I85
tp4290
a(I89
S'modnomatch'
p4291
I84
tp4292
a(I90
S'spec'
p4293
I91
tp4294
a(I91
S'coor'
p4295
I89
tp4296
a(I92
S'spec'
p4297
I93
tp4298
a(I93
S'modnomatch'
p4299
I7
tp4300
a(I94
S'adjt'
p4301
I93
tp4302
a(I95
S'adjt'
p4303
I93
tp4304
a(I96
S'comp'
p4305
I95
tp4306
a(I97
S'dobj'
p4307
I93
tp4308
a(I98
S'mphes'
p4309
I97
tp4310
a(I99
S'pobj'
p4311
I97
tp4312
a(I100
S'spec'
p4313
I101
tp4314
a(I101
S'comp'
p4315
I99
tp4316
a(I102
S'punc'
p4317
I93
tp4318
aa(lp4319
(I0
S'adjt'
p4320
I3
tp4321
a(I1
S'spec'
p4322
I2
tp4323
a(I2
S'comp'
p4324
I0
tp4325
a(I3
S'coor'
p4326
I28
tp4327
a(I4
S'dobj'
p4328
I3
tp4329
a(I5
S'spec'
p4330
I6
tp4331
a(I6
S'subj'
p4332
I7
tp4333
a(I7
S'comp'
p4334
I4
tp4335
a(I8
S'attr'
p4336
I7
tp4337
a(I9
S'adjt'
p4338
I8
tp4339
a(I10
S'comp'
p4340
I9
tp4341
a(I11
S'punc'
p4342
I3
tp4343
a(I12
S'coor'
p4344
I14
tp4345
a(I13
S'comp'
p4346
I12
tp4347
a(I14
S'modnomatch'
p4348
I3
tp4349
a(I15
S'coor'
p4350
I14
tp4351
a(I16
S'comp'
p4352
I15
tp4353
a(I17
S'punc'
p4354
I28
tp4355
a(I18
S'coor'
p4356
I28
tp4357
a(I19
S'dobj'
p4358
I18
tp4359
a(I20
S'spec'
p4360
I21
tp4361
a(I21
S'comp'
p4362
I19
tp4363
a(I22
S'dobj'
p4364
I21
tp4365
a(I23
S'modnomatch'
p4366
I21
tp4367
a(I24
S'subj'
p4368
I25
tp4369
a(I25
S'mod'
p4370
I23
tp4371
a(I26
S'spec'
p4372
I27
tp4373
a(I27
S'dobj'
p4374
I25
tp4375
a(I28
S'top'
p4376
I0
tp4377
a(I29
S'coor'
p4378
I28
tp4379
a(I30
S'modnomatch'
p4380
I28
tp4381
a(I31
S'modnomatch'
p4382
I28
tp4383
a(I32
S'punc'
p4384
I28
tp4385
a(I33
S'spec'
p4386
I34
tp4387
a(I34
S'subj'
p4388
I35
tp4389
a(I35
S'coor'
p4390
I28
tp4391
a(I36
S'pobj'
p4392
I35
tp4393
a(I37
S'comp'
p4394
I36
tp4395
a(I38
S'attr'
p4396
I35
tp4397
a(I39
S'comp'
p4398
I38
tp4399
a(I40
S'dobj'
p4400
I39
tp4401
a(I41
S'punc'
p4402
I35
tp4403
a(I42
S'coor'
p4404
I28
tp4405
a(I43
S'adjt'
p4406
I42
tp4407
a(I44
S'attr'
p4408
I42
tp4409
a(I45
S'comp'
p4410
I44
tp4411
a(I46
S'adjt'
p4412
I42
tp4413
a(I47
S'prt'
p4414
I48
tp4415
a(I48
S'comp'
p4416
I46
tp4417
a(I49
S'spec'
p4418
I50
tp4419
a(I50
S'dobj'
p4420
I48
tp4421
a(I51
S'mod'
p4422
I50
tp4423
a(I52
S'adjt'
p4424
I48
tp4425
a(I53
S'spec'
p4426
I54
tp4427
a(I54
S'comp'
p4428
I52
tp4429
a(I55
S'modnomatch'
p4430
I52
tp4431
a(I56
S'spec'
p4432
I57
tp4433
a(I57
S'comp'
p4434
I52
tp4435
a(I58
S'modnomatch'
p4436
I42
tp4437
a(I59
S'coor'
p4438
I58
tp4439
a(I60
S'adjt'
p4440
I59
tp4441
a(I61
S'comp'
p4442
I60
tp4443
a(I62
S'pobj'
p4444
I59
tp4445
a(I63
S'spec'
p4446
I64
tp4447
a(I64
S'comp'
p4448
I62
tp4449
a(I65
S'modnomatch'
p4450
I42
tp4451
a(I66
S'spec'
p4452
I67
tp4453
a(I67
S'coor'
p4454
I65
tp4455
a(I68
S'punc'
p4456
I42
tp4457
aa(lp4458
(I0
S'adjt'
p4459
I14
tp4460
a(I1
S'punc'
p4461
I0
tp4462
a(I2
S'spec'
p4463
I3
tp4464
a(I3
S'modnomatch'
p4465
I0
tp4466
a(I4
S'subj'
p4467
I5
tp4468
a(I5
S'mod'
p4469
I3
tp4470
a(I6
S'spec'
p4471
I7
tp4472
a(I7
S'dobj'
p4473
I5
tp4474
a(I8
S'modnomatch'
p4475
I0
tp4476
a(I9
S'coor'
p4477
I8
tp4478
a(I10
S'spec'
p4479
I11
tp4480
a(I11
S'subj'
p4481
I13
tp4482
a(I12
S'aux'
p4483
I13
tp4484
a(I13
S'comp'
p4485
I9
tp4486
a(I14
S'top'
p4487
I0
tp4488
a(I15
S'attr'
p4489
I14
tp4490
a(I16
S'spec'
p4491
I17
tp4492
a(I17
S'adjt'
p4493
I19
tp4494
a(I18
S'mphes'
p4495
I19
tp4496
a(I19
S'comp'
p4497
I15
tp4498
a(I20
S'spec'
p4499
I21
tp4500
a(I21
S'subj'
p4501
I19
tp4502
a(I22
S'mod'
p4503
I21
tp4504
a(I23
S'spec'
p4505
I24
tp4506
a(I24
S'comp'
p4507
I22
tp4508
a(I25
S'mod'
p4509
I21
tp4510
a(I26
S'comp'
p4511
I25
tp4512
a(I27
S'mod'
p4513
I21
tp4514
a(I28
S'spec'
p4515
I29
tp4516
a(I29
S'comp'
p4517
I27
tp4518
a(I30
S'punc'
p4519
I14
tp4520
a(I31
S'adjt'
p4521
I14
tp4522
a(I32
S'adjt'
p4523
I31
tp4524
a(I33
S'spec'
p4525
I34
tp4526
a(I34
S'comp'
p4527
I32
tp4528
a(I35
S'adjt'
p4529
I14
tp4530
a(I36
S'spec'
p4531
I37
tp4532
a(I37
S'modnomatch'
p4533
I14
tp4534
a(I38
S'mod'
p4535
I37
tp4536
a(I39
S'comp'
p4537
I38
tp4538
a(I40
S'mod'
p4539
I39
tp4540
a(I41
S'modnomatch'
p4541
I14
tp4542
a(I42
S'punc'
p4543
I14
tp4544
a(I43
S'adjt'
p4545
I14
tp4546
a(I44
S'spec'
p4547
I45
tp4548
a(I45
S'modnomatch'
p4549
I43
tp4550
a(I46
S'adjt'
p4551
I14
tp4552
a(I47
S'punc'
p4553
I14
tp4554
a(I48
S'mphes'
p4555
I50
tp4556
a(I49
S'prt'
p4557
I50
tp4558
a(I50
S'modnomatch'
p4559
I14
tp4560
a(I51
S'adjt'
p4561
I50
tp4562
a(I52
S'spec'
p4563
I53
tp4564
a(I53
S'comp'
p4565
I51
tp4566
a(I54
S'mod'
p4567
I53
tp4568
a(I55
S'punc'
p4569
I14
tp4570
a(I56
S'adjt'
p4571
I66
tp4572
a(I57
S'spec'
p4573
I58
tp4574
a(I58
S'comp'
p4575
I56
tp4576
a(I59
S'adjt'
p4577
I66
tp4578
a(I60
S'comp'
p4579
I59
tp4580
a(I61
S'spec'
p4581
I62
tp4582
a(I62
S'comp'
p4583
I60
tp4584
a(I63
S'dobj'
p4585
I62
tp4586
a(I64
S'punc'
p4587
I59
tp4588
a(I65
S'mphes'
p4589
I66
tp4590
a(I66
S'modnomatch'
p4591
I14
tp4592
a(I67
S'adjt'
p4593
I66
tp4594
a(I68
S'spec'
p4595
I69
tp4596
a(I69
S'comp'
p4597
I67
tp4598
a(I70
S'spec'
p4599
I71
tp4600
a(I71
S'dobj'
p4601
I66
tp4602
a(I72
S'adjt'
p4603
I66
tp4604
a(I73
S'spec'
p4605
I74
tp4606
a(I74
S'comp'
p4607
I72
tp4608
a(I75
S'adjt'
p4609
I66
tp4610
a(I76
S'comp'
p4611
I75
tp4612
a(I77
S'pobj'
p4613
I76
tp4614
a(I78
S'spec'
p4615
I79
tp4616
a(I79
S'comp'
p4617
I77
tp4618
a(I80
S'modnomatch'
p4619
I14
tp4620
a(I81
S'punc'
p4621
I14
tp4622
a(I82
S'adjt'
p4623
I14
tp4624
a(I83
S'spec'
p4625
I84
tp4626
a(I84
S'comp'
p4627
I82
tp4628
a(I85
S'punc'
p4629
I82
tp4630
a(I86
S'modnomatch'
p4631
I14
tp4632
a(I87
S'comp'
p4633
I86
tp4634
a(I88
S'spec'
p4635
I89
tp4636
a(I89
S'dobj'
p4637
I87
tp4638
a(I90
S'adjt'
p4639
I87
tp4640
a(I91
S'spec'
p4641
I92
tp4642
a(I92
S'comp'
p4643
I90
tp4644
a(I93
S'adjt'
p4645
I14
tp4646
a(I94
S'comp'
p4647
I93
tp4648
a(I95
S'spec'
p4649
I96
tp4650
a(I96
S'subj'
p4651
I97
tp4652
a(I97
S'comp'
p4653
I94
tp4654
a(I98
S'adjt'
p4655
I97
tp4656
a(I99
S'spec'
p4657
I100
tp4658
a(I100
S'dobj'
p4659
I97
tp4660
a(I101
S'subj'
p4661
I104
tp4662
a(I102
S'modnomatch'
p4663
I101
tp4664
a(I103
S'mphes'
p4665
I104
tp4666
a(I104
S'mod'
p4667
I100
tp4668
a(I105
S'punc'
p4669
I104
tp4670
aa(lp4671
(I0
S'coor'
p4672
I19
tp4673
a(I1
S'punc'
p4674
I0
tp4675
a(I2
S'modnomatch'
p4676
I0
tp4677
a(I3
S'modnomatch'
p4678
I0
tp4679
a(I4
S'punc'
p4680
I3
tp4681
a(I5
S'modnomatch'
p4682
I0
tp4683
a(I6
S'mod'
p4684
I5
tp4685
a(I7
S'punc'
p4686
I5
tp4687
a(I8
S'subj'
p4688
I9
tp4689
a(I9
S'mod'
p4690
I5
tp4691
a(I10
S'dobj'
p4692
I9
tp4693
a(I11
S'spec'
p4694
I12
tp4695
a(I12
S'comp'
p4696
I10
tp4697
a(I13
S'modnomatch'
p4698
I9
tp4699
a(I14
S'mphes'
p4700
I15
tp4701
a(I15
S'comp'
p4702
I13
tp4703
a(I16
S'adjt'
p4704
I15
tp4705
a(I17
S'spec'
p4706
I18
tp4707
a(I18
S'comp'
p4708
I16
tp4709
a(I19
S'top'
p4710
I0
tp4711
a(I20
S'coor'
p4712
I19
tp4713
a(I21
S'modnomatch'
p4714
I19
tp4715
a(I22
S'mphes'
p4716
I23
tp4717
a(I23
S'comp'
p4718
I21
tp4719
a(I24
S'pobj'
p4720
I23
tp4721
a(I25
S'spec'
p4722
I26
tp4723
a(I26
S'comp'
p4724
I24
tp4725
a(I27
S'punc'
p4726
I21
tp4727
aa(lp4728
(I0
S'top'
p4729
I0
tp4730
a(I1
S'modnorule'
p4731
I0
tp4732
a(I2
S'mod'
p4733
I1
tp4734
a(I3
S'spec'
p4735
I4
tp4736
a(I4
S'comp'
p4737
I2
tp4738
a(I5
S'mod'
p4739
I4
tp4740
a(I6
S'modnorule'
p4741
I0
tp4742
aa(lp4743
(I0
S'top'
p4744
I0
tp4745
a(I1
S'subj'
p4746
I3
tp4747
a(I2
S'punc'
p4748
I1
tp4749
a(I3
S'modnorule'
p4750
I0
tp4751
a(I4
S'dobj'
p4752
I3
tp4753
a(I5
S'spec'
p4754
I6
tp4755
a(I6
S'pred'
p4756
I4
tp4757
a(I7
S'modnorule'
p4758
I0
tp4759
a(I8
S'modnorule'
p4760
I0
tp4761
a(I9
S'adjt'
p4762
I14
tp4763
a(I10
S'comp'
p4764
I9
tp4765
a(I11
S'punc'
p4766
I9
tp4767
a(I12
S'spec'
p4768
I13
tp4769
a(I13
S'subj'
p4770
I14
tp4771
a(I14
S'modnorule'
p4772
I0
tp4773
a(I15
S'spec'
p4774
I17
tp4775
a(I16
S'mod'
p4776
I17
tp4777
a(I17
S'dobj'
p4778
I14
tp4779
a(I18
S'adjt'
p4780
I14
tp4781
a(I19
S'spec'
p4782
I20
tp4783
a(I20
S'comp'
p4784
I18
tp4785
a(I21
S'mod'
p4786
I20
tp4787
a(I22
S'spec'
p4788
I23
tp4789
a(I23
S'comp'
p4790
I21
tp4791
a(I24
S'modnorule'
p4792
I0
tp4793
a(I25
S'modnorule'
p4794
I0
tp4795
a(I26
S'modnorule'
p4796
I0
tp4797
a(I27
S'comp'
p4798
I26
tp4799
a(I28
S'punc'
p4800
I26
tp4801
a(I29
S'modnorule'
p4802
I0
tp4803
a(I30
S'modnorule'
p4804
I0
tp4805
a(I31
S'comp'
p4806
I30
tp4807
a(I32
S'spec'
p4808
I33
tp4809
a(I33
S'dobj'
p4810
I31
tp4811
a(I34
S'adjt'
p4812
I31
tp4813
a(I35
S'spec'
p4814
I36
tp4815
a(I36
S'comp'
p4816
I34
tp4817
a(I37
S'punc'
p4818
I30
tp4819
aa(lp4820
(I0
S'adjt'
p4821
I3
tp4822
a(I1
S'punc'
p4823
I0
tp4824
a(I2
S'subj'
p4825
I3
tp4826
a(I3
S'top'
p4827
I0
tp4828
a(I4
S'spec'
p4829
I5
tp4830
a(I5
S'subj'
p4831
I10
tp4832
a(I6
S'adjt'
p4833
I10
tp4834
a(I7
S'spec'
p4835
I8
tp4836
a(I8
S'comp'
p4837
I6
tp4838
a(I9
S'prt'
p4839
I10
tp4840
a(I10
S'modnomatch'
p4841
I3
tp4842
a(I11
S'spec'
p4843
I12
tp4844
a(I12
S'dobj'
p4845
I10
tp4846
a(I13
S'punc'
p4847
I3
tp4848
aa(lp4849
(I0
S'top'
p4850
I0
tp4851
a(I1
S'coor'
p4852
I0
tp4853
a(I2
S'dobj'
p4854
I1
tp4855
a(I3
S'spec'
p4856
I5
tp4857
a(I4
S'spec'
p4858
I5
tp4859
a(I5
S'pred'
p4860
I2
tp4861
a(I6
S'dobj'
p4862
I2
tp4863
a(I7
S'spec'
p4864
I8
tp4865
a(I8
S'subj'
p4866
I10
tp4867
a(I9
S'mphes'
p4868
I10
tp4869
a(I10
S'comp'
p4870
I6
tp4871
a(I11
S'adjt'
p4872
I10
tp4873
a(I12
S'spec'
p4874
I13
tp4875
a(I13
S'comp'
p4876
I11
tp4877
a(I14
S'pobj'
p4878
I10
tp4879
a(I15
S'comp'
p4880
I14
tp4881
a(I16
S'spec'
p4882
I18
tp4883
a(I17
S'mod'
p4884
I18
tp4885
a(I18
S'dobj'
p4886
I15
tp4887
a(I19
S'punc'
p4888
I0
tp4889
a(I20
S'adjt'
p4890
I55
tp4891
a(I21
S'aux'
p4892
I22
tp4893
a(I22
S'comp'
p4894
I20
tp4895
a(I23
S'spec'
p4896
I24
tp4897
a(I24
S'dobj'
p4898
I22
tp4899
a(I25
S'punc'
p4900
I20
tp4901
a(I26
S'subj'
p4902
I28
tp4903
a(I27
S'mphes'
p4904
I28
tp4905
a(I28
S'subj'
p4906
I55
tp4907
a(I29
S'pobj'
p4908
I28
tp4909
a(I30
S'spec'
p4910
I31
tp4911
a(I31
S'comp'
p4912
I29
tp4913
a(I32
S'mod'
p4914
I31
tp4915
a(I33
S'adjt'
p4916
I28
tp4917
a(I34
S'spec'
p4918
I35
tp4919
a(I35
S'comp'
p4920
I33
tp4921
a(I36
S'mod'
p4922
I35
tp4923
a(I37
S'mod'
p4924
I35
tp4925
a(I38
S'spec'
p4926
I39
tp4927
a(I39
S'comp'
p4928
I37
tp4929
a(I40
S'punc'
p4930
I28
tp4931
a(I41
S'adjt'
p4932
I55
tp4933
a(I42
S'spec'
p4934
I44
tp4935
a(I43
S'mod'
p4936
I44
tp4937
a(I44
S'comp'
p4938
I41
tp4939
a(I45
S'adjt'
p4940
I55
tp4941
a(I46
S'comp'
p4942
I45
tp4943
a(I47
S'adjt'
p4944
I55
tp4945
a(I48
S'spec'
p4946
I50
tp4947
a(I49
S'mod'
p4948
I50
tp4949
a(I50
S'comp'
p4950
I47
tp4951
a(I51
S'adjt'
p4952
I55
tp4953
a(I52
S'spec'
p4954
I53
tp4955
a(I53
S'comp'
p4956
I51
tp4957
a(I54
S'punc'
p4958
I51
tp4959
a(I55
S'coor'
p4960
I0
tp4961
a(I56
S'attr'
p4962
I55
tp4963
a(I57
S'punc'
p4964
I55
tp4965
a(I58
S'adjt'
p4966
I55
tp4967
a(I59
S'spec'
p4968
I60
tp4969
a(I60
S'comp'
p4970
I58
tp4971
a(I61
S'punc'
p4972
I55
tp4973
aa(lp4974
(I0
S'top'
p4975
I0
tp4976
a(I1
S'dobj'
p4977
I0
tp4978
a(I2
S'punc'
p4979
I0
tp4980
a(I3
S'modnomatch'
p4981
I0
tp4982
a(I4
S'mod'
p4983
I3
tp4984
a(I5
S'punc'
p4985
I3
tp4986
a(I6
S'subj'
p4987
I10
tp4988
a(I7
S'spec'
p4989
I8
tp4990
a(I8
S'modnomatch'
p4991
I10
tp4992
a(I9
S'mphes'
p4993
I10
tp4994
a(I10
S'mod'
p4995
I3
tp4996
a(I11
S'punc'
p4997
I3
tp4998
a(I12
S'adjt'
p4999
I0
tp5000
a(I13
S'spec'
p5001
I14
tp5002
a(I14
S'comp'
p5003
I12
tp5004
a(I15
S'subj'
p5005
I19
tp5006
a(I16
S'spec'
p5007
I17
tp5008
a(I17
S'modnomatch'
p5009
I15
tp5010
a(I18
S'mphes'
p5011
I19
tp5012
a(I19
S'mod'
p5013
I14
tp5014
a(I20
S'adjt'
p5015
I0
tp5016
a(I21
S'spec'
p5017
I22
tp5018
a(I22
S'comp'
p5019
I20
tp5020
a(I23
S'punc'
p5021
I20
tp5022
a(I24
S'adjt'
p5023
I0
tp5024
a(I25
S'spec'
p5025
I26
tp5026
a(I26
S'subj'
p5027
I27
tp5028
a(I27
S'comp'
p5029
I24
tp5030
a(I28
S'spec'
p5031
I29
tp5032
a(I29
S'attr'
p5033
I27
tp5034
a(I30
S'mod'
p5035
I29
tp5036
a(I31
S'mod'
p5037
I29
tp5038
a(I32
S'spec'
p5039
I33
tp5040
a(I33
S'comp'
p5041
I31
tp5042
a(I34
S'mod'
p5043
I33
tp5044
a(I35
S'mod'
p5045
I29
tp5046
a(I36
S'spec'
p5047
I37
tp5048
a(I37
S'comp'
p5049
I35
tp5050
a(I38
S'punc'
p5051
I0
tp5052
aa(lp5053
(I0
S'top'
p5054
I0
tp5055
a(I1
S'coor'
p5056
I0
tp5057
a(I2
S'dobj'
p5058
I1
tp5059
a(I3
S'punc'
p5060
I0
tp5061
a(I4
S'modnomatch'
p5062
I0
tp5063
a(I5
S'mod'
p5064
I4
tp5065
a(I6
S'punc'
p5066
I4
tp5067
a(I7
S'modnomatch'
p5068
I0
tp5069
a(I8
S'punc'
p5070
I0
tp5071
a(I9
S'adjt'
p5072
I15
tp5073
a(I10
S'comp'
p5074
I9
tp5075
a(I11
S'adjt'
p5076
I15
tp5077
a(I12
S'spec'
p5078
I13
tp5079
a(I13
S'comp'
p5080
I11
tp5081
a(I14
S'punc'
p5082
I11
tp5083
a(I15
S'coor'
p5084
I0
tp5085
a(I16
S'coor'
p5086
I17
tp5087
a(I17
S'attr'
p5088
I15
tp5089
a(I18
S'coor'
p5090
I17
tp5091
a(I19
S'pobj'
p5092
I18
tp5093
a(I20
S'comp'
p5094
I19
tp5095
a(I21
S'spec'
p5096
I22
tp5097
a(I22
S'dobj'
p5098
I20
tp5099
a(I23
S'adjt'
p5100
I15
tp5101
a(I24
S'comp'
p5102
I23
tp5103
a(I25
S'punc'
p5104
I15
tp5105
a(I26
S'subj'
p5106
I27
tp5107
a(I27
S'modnomatch'
p5108
I15
tp5109
a(I28
S'attr'
p5110
I27
tp5111
a(I29
S'adjt'
p5112
I28
tp5113
a(I30
S'comp'
p5114
I29
tp5115
a(I31
S'dobj'
p5116
I30
tp5117
a(I32
S'spec'
p5118
I33
tp5119
a(I33
S'adjt'
p5120
I30
tp5121
a(I34
S'punc'
p5122
I15
tp5123
a(I35
S'adjt'
p5124
I15
tp5125
a(I36
S'adjt'
p5126
I40
tp5127
a(I37
S'comp'
p5128
I36
tp5129
a(I38
S'mphes'
p5130
I40
tp5131
a(I39
S'aux'
p5132
I40
tp5133
a(I40
S'comp'
p5134
I35
tp5135
a(I41
S'punc'
p5136
I15
tp5137
a(I42
S'adjt'
p5138
I15
tp5139
a(I43
S'pobj'
p5140
I42
tp5141
a(I44
S'spec'
p5142
I45
tp5143
a(I45
S'comp'
p5144
I43
tp5145
a(I46
S'pobj'
p5146
I42
tp5147
a(I47
S'subj'
p5148
I49
tp5149
a(I48
S'mphes'
p5150
I49
tp5151
a(I49
S'comp'
p5152
I46
tp5153
a(I50
S'spec'
p5154
I51
tp5155
a(I51
S'dobj'
p5156
I49
tp5157
a(I52
S'adjt'
p5158
I49
tp5159
a(I53
S'spec'
p5160
I54
tp5161
a(I54
S'comp'
p5162
I52
tp5163
a(I55
S'adjt'
p5164
I49
tp5165
a(I56
S'spec'
p5166
I57
tp5167
a(I57
S'comp'
p5168
I55
tp5169
a(I58
S'mod'
p5170
I57
tp5171
a(I59
S'punc'
p5172
I15
tp5173
aa(lp5174
(I0
S'adjt'
p5175
I5
tp5176
a(I1
S'punc'
p5177
I0
tp5178
a(I2
S'subj'
p5179
I5
tp5180
a(I3
S'mod'
p5181
I2
tp5182
a(I4
S'punc'
p5183
I2
tp5184
a(I5
S'top'
p5185
I0
tp5186
a(I6
S'dobj'
p5187
I5
tp5188
a(I7
S'modnomatch'
p5189
I5
tp5190
a(I8
S'punc'
p5191
I5
tp5192
a(I9
S'adjt'
p5193
I14
tp5194
a(I10
S'spec'
p5195
I11
tp5196
a(I11
S'comp'
p5197
I9
tp5198
a(I12
S'punc'
p5199
I9
tp5200
a(I13
S'aux'
p5201
I14
tp5202
a(I14
S'modnomatch'
p5203
I5
tp5204
a(I15
S'spec'
p5205
I16
tp5206
a(I16
S'dobj'
p5207
I14
tp5208
a(I17
S'mod'
p5209
I16
tp5210
a(I18
S'comp'
p5211
I17
tp5212
a(I19
S'adjt'
p5213
I14
tp5214
a(I20
S'spec'
p5215
I21
tp5216
a(I21
S'comp'
p5217
I19
tp5218
a(I22
S'spec'
p5219
I23
tp5220
a(I23
S'adjt'
p5221
I14
tp5222
a(I24
S'modnomatch'
p5223
I5
tp5224
a(I25
S'subj'
p5225
I26
tp5226
a(I26
S'coor'
p5227
I24
tp5228
a(I27
S'attr'
p5229
I26
tp5230
a(I28
S'modnomatch'
p5231
I5
tp5232
a(I29
S'punc'
p5233
I5
tp5234
a(I30
S'adjt'
p5235
I5
tp5236
a(I31
S'adjt'
p5237
I33
tp5238
a(I32
S'dobj'
p5239
I33
tp5240
a(I33
S'comp'
p5241
I30
tp5242
a(I34
S'spec'
p5243
I35
tp5244
a(I35
S'modnomatch'
p5245
I33
tp5246
a(I36
S'punc'
p5247
I30
tp5248
a(I37
S'punc'
p5249
I5
tp5250
a(I38
S'spec'
p5251
I40
tp5252
a(I39
S'mod'
p5253
I40
tp5254
a(I40
S'adjt'
p5255
I5
tp5256
a(I41
S'modnomatch'
p5257
I40
tp5258
a(I42
S'subj'
p5259
I43
tp5260
a(I43
S'comp'
p5261
I41
tp5262
a(I44
S'spec'
p5263
I45
tp5264
a(I45
S'attr'
p5265
I43
tp5266
a(I46
S'punc'
p5267
I5
tp5268
a(I47
S'modnomatch'
p5269
I5
tp5270
a(I48
S'pobj'
p5271
I47
tp5272
a(I49
S'comp'
p5273
I48
tp5274
a(I50
S'spec'
p5275
I51
tp5276
a(I51
S'dobj'
p5277
I49
tp5278
a(I52
S'adjt'
p5279
I49
tp5280
a(I53
S'spec'
p5281
I54
tp5282
a(I54
S'comp'
p5283
I52
tp5284
a(I55
S'spec'
p5285
I56
tp5286
a(I56
S'adjt'
p5287
I49
tp5288
a(I57
S'modnomatch'
p5289
I5
tp5290
a(I58
S'punc'
p5291
I5
tp5292
a(I59
S'spec'
p5293
I60
tp5294
a(I60
S'modnomatch'
p5295
I5
tp5296
a(I61
S'subj'
p5297
I62
tp5298
a(I62
S'mod'
p5299
I60
tp5300
a(I63
S'punc'
p5301
I60
tp5302
a(I64
S'spec'
p5303
I65
tp5304
a(I65
S'modnomatch'
p5305
I5
tp5306
a(I66
S'adjt'
p5307
I5
tp5308
a(I67
S'spec'
p5309
I68
tp5310
a(I68
S'comp'
p5311
I66
tp5312
a(I69
S'punc'
p5313
I66
tp5314
a(I70
S'subj'
p5315
I71
tp5316
a(I71
S'modnomatch'
p5317
I5
tp5318
a(I72
S'spec'
p5319
I73
tp5320
a(I73
S'subj'
p5321
I74
tp5322
a(I74
S'modnomatch'
p5323
I5
tp5324
a(I75
S'adjt'
p5325
I74
tp5326
a(I76
S'attr'
p5327
I74
tp5328
a(I77
S'punc'
p5329
I74
tp5330
aa(lp5331
(I0
S'top'
p5332
I0
tp5333
a(I1
S'dobj'
p5334
I0
tp5335
a(I2
S'comp'
p5336
I1
tp5337
a(I3
S'spec'
p5338
I4
tp5339
a(I4
S'dobj'
p5340
I2
tp5341
a(I5
S'mod'
p5342
I4
tp5343
a(I6
S'spec'
p5344
I7
tp5345
a(I7
S'comp'
p5346
I5
tp5347
a(I8
S'adjt'
p5348
I2
tp5349
a(I9
S'prt'
p5350
I11
tp5351
a(I10
S'prt'
p5352
I11
tp5353
a(I11
S'comp'
p5354
I8
tp5355
a(I12
S'spec'
p5356
I13
tp5357
a(I13
S'dobj'
p5358
I11
tp5359
a(I14
S'adjt'
p5360
I11
tp5361
a(I15
S'spec'
p5362
I16
tp5363
a(I16
S'comp'
p5364
I14
tp5365
a(I17
S'adjt'
p5366
I11
tp5367
a(I18
S'spec'
p5368
I19
tp5369
a(I19
S'comp'
p5370
I17
tp5371
a(I20
S'mod'
p5372
I19
tp5373
a(I21
S'punc'
p5374
I0
tp5375
aa(lp5376
(I0
S'top'
p5377
I0
tp5378
a(I1
S'spec'
p5379
I2
tp5380
a(I2
S'subj'
p5381
I3
tp5382
a(I3
S'modnorule'
p5383
I0
tp5384
a(I4
S'spec'
p5385
I5
tp5386
a(I5
S'dobj'
p5387
I3
tp5388
a(I6
S'modnorule'
p5389
I0
tp5390
a(I7
S'modnorule'
p5391
I0
tp5392
a(I8
S'punc'
p5393
I7
tp5394
aa(lp5395
(I0
S'adjt'
p5396
I7
tp5397
a(I1
S'spec'
p5398
I2
tp5399
a(I2
S'comp'
p5400
I0
tp5401
a(I3
S'adjt'
p5402
I7
tp5403
a(I4
S'spec'
p5404
I5
tp5405
a(I5
S'comp'
p5406
I3
tp5407
a(I6
S'punc'
p5408
I3
tp5409
a(I7
S'top'
p5410
I0
tp5411
a(I8
S'spec'
p5412
I9
tp5413
a(I9
S'dobj'
p5414
I7
tp5415
a(I10
S'mod'
p5416
I9
tp5417
a(I11
S'adjt'
p5418
I7
tp5419
a(I12
S'spec'
p5420
I13
tp5421
a(I13
S'comp'
p5422
I11
tp5423
a(I14
S'mod'
p5424
I13
tp5425
a(I15
S'adjt'
p5426
I7
tp5427
a(I16
S'spec'
p5428
I17
tp5429
a(I17
S'comp'
p5430
I15
tp5431
a(I18
S'adjt'
p5432
I7
tp5433
a(I19
S'spec'
p5434
I20
tp5435
a(I20
S'comp'
p5436
I18
tp5437
a(I21
S'punc'
p5438
I7
tp5439
aa(lp5440
(I0
S'spec'
p5441
I1
tp5442
a(I1
S'subj'
p5443
I3
tp5444
a(I2
S'mod'
p5445
I1
tp5446
a(I3
S'top'
p5447
I0
tp5448
a(I4
S'modnomatch'
p5449
I3
tp5450
a(I5
S'mphes'
p5451
I6
tp5452
a(I6
S'comp'
p5453
I4
tp5454
a(I7
S'spec'
p5455
I8
tp5456
a(I8
S'dobj'
p5457
I6
tp5458
a(I9
S'mod'
p5459
I8
tp5460
a(I10
S'spec'
p5461
I11
tp5462
a(I11
S'comp'
p5463
I9
tp5464
a(I12
S'mod'
p5465
I8
tp5466
a(I13
S'spec'
p5467
I14
tp5468
a(I14
S'comp'
p5469
I12
tp5470
a(I15
S'punc'
p5471
I3
tp5472
aa(lp5473
(I0
S'punc'
p5474
I3
tp5475
a(I1
S'spec'
p5476
I2
tp5477
a(I2
S'subj'
p5478
I3
tp5479
a(I3
S'top'
p5480
I0
tp5481
a(I4
S'spec'
p5482
I5
tp5483
a(I5
S'dobj'
p5484
I3
tp5485
a(I6
S'adjt'
p5486
I3
tp5487
a(I7
S'comp'
p5488
I6
tp5489
a(I8
S'mod'
p5490
I7
tp5491
a(I9
S'spec'
p5492
I10
tp5493
a(I10
S'comp'
p5494
I8
tp5495
a(I11
S'adjt'
p5496
I3
tp5497
a(I12
S'comp'
p5498
I11
tp5499
a(I13
S'spec'
p5500
I14
tp5501
a(I14
S'dobj'
p5502
I12
tp5503
a(I15
S'punc'
p5504
I3
tp5505
aa(lp5506
(I0
S'subj'
p5507
I2
tp5508
a(I1
S'punc'
p5509
I0
tp5510
a(I2
S'top'
p5511
I0
tp5512
a(I3
S'spec'
p5513
I4
tp5514
a(I4
S'dobj'
p5515
I2
tp5516
a(I5
S'adjt'
p5517
I2
tp5518
a(I6
S'spec'
p5519
I7
tp5520
a(I7
S'comp'
p5521
I5
tp5522
a(I8
S'punc'
p5523
I2
tp5524
aa(lp5525
(I0
S'mphes'
p5526
I2
tp5527
a(I1
S'aux'
p5528
I2
tp5529
a(I2
S'top'
p5530
I0
tp5531
a(I3
S'dobj'
p5532
I2
tp5533
a(I4
S'adjt'
p5534
I10
tp5535
a(I5
S'mod'
p5536
I6
tp5537
a(I6
S'subj'
p5538
I10
tp5539
a(I7
S'mod'
p5540
I6
tp5541
a(I8
S'spec'
p5542
I9
tp5543
a(I9
S'comp'
p5544
I7
tp5545
a(I10
S'comp'
p5546
I3
tp5547
a(I11
S'adjt'
p5548
I10
tp5549
a(I12
S'spec'
p5550
I13
tp5551
a(I13
S'dobj'
p5552
I10
tp5553
a(I14
S'mod'
p5554
I13
tp5555
a(I15
S'spec'
p5556
I16
tp5557
a(I16
S'comp'
p5558
I14
tp5559
a(I17
S'mod'
p5560
I13
tp5561
a(I18
S'spec'
p5562
I19
tp5563
a(I19
S'comp'
p5564
I17
tp5565
a(I20
S'mod'
p5566
I13
tp5567
a(I21
S'spec'
p5568
I22
tp5569
a(I22
S'comp'
p5570
I20
tp5571
a(I23
S'punc'
p5572
I2
tp5573
a(I24
S'adjt'
p5574
I2
tp5575
a(I25
S'adjt'
p5576
I32
tp5577
a(I26
S'spec'
p5578
I27
tp5579
a(I27
S'comp'
p5580
I25
tp5581
a(I28
S'mod'
p5582
I27
tp5583
a(I29
S'adjt'
p5584
I32
tp5585
a(I30
S'spec'
p5586
I31
tp5587
a(I31
S'comp'
p5588
I29
tp5589
a(I32
S'comp'
p5590
I24
tp5591
a(I33
S'spec'
p5592
I34
tp5593
a(I34
S'modnomatch'
p5594
I32
tp5595
a(I35
S'mod'
p5596
I34
tp5597
a(I36
S'spec'
p5598
I37
tp5599
a(I37
S'comp'
p5600
I35
tp5601
a(I38
S'mod'
p5602
I34
tp5603
a(I39
S'comp'
p5604
I38
tp5605
a(I40
S'mod'
p5606
I39
tp5607
a(I41
S'adjt'
p5608
I32
tp5609
a(I42
S'comp'
p5610
I41
tp5611
a(I43
S'mod'
p5612
I42
tp5613
a(I44
S'spec'
p5614
I45
tp5615
a(I45
S'comp'
p5616
I43
tp5617
a(I46
S'mod'
p5618
I45
tp5619
a(I47
S'spec'
p5620
I48
tp5621
a(I48
S'comp'
p5622
I46
tp5623
a(I49
S'punc'
p5624
I2
tp5625
aa(lp5626
(I0
S'top'
p5627
I0
tp5628
a(I1
S'dobj'
p5629
I0
tp5630
a(I2
S'spec'
p5631
I3
tp5632
a(I3
S'subj'
p5633
I4
tp5634
a(I4
S'comp'
p5635
I1
tp5636
a(I5
S'attr'
p5637
I4
tp5638
a(I6
S'punc'
p5639
I7
tp5640
a(I7
S'modnomatch'
p5641
I0
tp5642
a(I8
S'coor'
p5643
I7
tp5644
a(I9
S'adjt'
p5645
I0
tp5646
a(I10
S'comp'
p5647
I9
tp5648
a(I11
S'punc'
p5649
I0
tp5650
a(I12
S'subj'
p5651
I13
tp5652
a(I13
S'modnomatch'
p5653
I0
tp5654
a(I14
S'adjt'
p5655
I13
tp5656
a(I15
S'spec'
p5657
I16
tp5658
a(I16
S'comp'
p5659
I14
tp5660
a(I17
S'subj'
p5661
I19
tp5662
a(I18
S'mphes'
p5663
I19
tp5664
a(I19
S'mod'
p5665
I16
tp5666
a(I20
S'spec'
p5667
I21
tp5668
a(I21
S'dobj'
p5669
I19
tp5670
a(I22
S'punc'
p5671
I13
tp5672
a(I23
S'dobj'
p5673
I13
tp5674
a(I24
S'spec'
p5675
I25
tp5676
a(I25
S'subj'
p5677
I28
tp5678
a(I26
S'mphes'
p5679
I28
tp5680
a(I27
S'aux'
p5681
I28
tp5682
a(I28
S'comp'
p5683
I23
tp5684
a(I29
S'adjt'
p5685
I28
tp5686
a(I30
S'mod'
p5687
I31
tp5688
a(I31
S'adjt'
p5689
I28
tp5690
a(I32
S'mod'
p5691
I31
tp5692
a(I33
S'spec'
p5693
I34
tp5694
a(I34
S'comp'
p5695
I32
tp5696
a(I35
S'punc'
p5697
I13
tp5698
aa(lp5699
(I0
S'adjt'
p5700
I1
tp5701
a(I1
S'top'
p5702
I0
tp5703
a(I2
S'subj'
p5704
I1
tp5705
a(I3
S'adjt'
p5706
I1
tp5707
a(I4
S'spec'
p5708
I5
tp5709
a(I5
S'comp'
p5710
I3
tp5711
a(I6
S'punc'
p5712
I1
tp5713
aa.