(lp1
(lp2
(I7
S'vocative'
p3
I0
tp4
a(I0
S'compound'
p5
I1
tp6
a(I0
S'punct'
p7
I2
tp8
a(I7
S'nsubj'
p9
I3
tp10
a(I3
S'amod'
p11
I4
tp12
a(I3
S'punct'
p13
I5
tp14
a(I7
S'advmod'
p15
I6
tp16
a(I7
S'ROOT'
p17
I7
tp18
a(I9
S'mark'
p19
I8
tp20
a(I7
S'xcomp'
p21
I9
tp22
a(I17
S'mark'
p23
I10
tp24
a(I12
S'det'
p25
I11
tp26
a(I17
S'nsubj'
p27
I12
tp28
a(I12
S'nmod'
p29
I13
tp30
a(I15
S'case'
p31
I14
tp32
a(I13
S'nmod'
p33
I15
tp34
a(I15
S'name'
p35
I15
tp36
a(I17
S'aux'
p37
I16
tp38
a(I9
S'advcl'
p39
I17
tp40
a(I19
S'det'
p41
I18
tp42
a(I17
S'dobj'
p43
I19
tp44
a(I21
S'advmod'
p45
I20
tp46
a(I19
S'amod'
p47
I21
tp48
a(I23
S'case'
p49
I22
tp50
a(I19
S'nmod'
p51
I23
tp52
a(I25
S'case'
p53
I24
tp54
a(I23
S'nmod'
p55
I25
tp56
a(I27
S'case'
p57
I26
tp58
a(I23
S'nummod'
p59
I27
tp60
a(I19
S'cc'
p61
I28
tp62
a(I30
S'case'
p63
I29
tp64
a(I19
S'conj'
p65
I30
tp66
a(I33
S'case'
p67
I31
tp68
a(I33
S'amod'
p69
I32
tp70
a(I30
S'nmod'
p71
I33
tp72
a(I35
S'case'
p73
I34
tp74
a(I33
S'nmod'
p75
I35
tp76
a(I7
S'punct'
p77
I36
tp78
aa(lp79
(I1
S'case'
p80
I0
tp81
a(I16
S'nmod'
p82
I1
tp83
a(I3
S'case'
p84
I2
tp85
a(I1
S'nmod'
p86
I3
tp87
a(I6
S'case'
p88
I4
tp89
a(I6
S'det'
p90
I5
tp91
a(I3
S'nmod'
p92
I6
tp93
a(I8
S'det'
p94
I7
tp95
a(I16
S'nsubj'
p96
I8
tp97
a(I8
S'amod'
p98
I9
tp99
a(I8
S'cc'
p100
I10
tp101
a(I12
S'det'
p102
I11
tp103
a(I8
S'conj'
p104
I12
tp105
a(I12
S'compound'
p106
I13
tp107
a(I16
S'expl'
p108
I14
tp109
a(I16
S'aux'
p110
I15
tp111
a(I16
g17
I16
tp112
a(I16
S'advmod'
p113
I17
tp114
a(I20
S'case'
p115
I18
tp116
a(I20
S'det:poss'
p117
I19
tp118
a(I16
S'nmod'
p119
I20
tp120
a(I16
S'advcl'
p121
I21
tp122
a(I23
S'case'
p123
I22
tp124
a(I21
S'nmod'
p125
I23
tp126
a(I23
S'amod'
p127
I24
tp128
a(I23
S'nmod'
p129
I25
tp130
a(I27
S'case'
p131
I26
tp132
a(I25
S'nmod'
p133
I27
tp134
a(I29
S'case'
p135
I28
tp136
a(I27
S'nmod'
p137
I29
tp138
a(I29
S'amod'
p139
I29
tp140
a(I16
S'punct'
p141
I30
tp142
aa(lp143
(I2
S'case'
p144
I0
tp145
a(I0
S'mwe'
p146
I1
tp147
a(I22
S'nmod'
p148
I2
tp149
a(I2
S'amod'
p150
I3
tp151
a(I5
S'case'
p152
I4
tp153
a(I2
S'nmod'
p154
I5
tp155
a(I7
S'case'
p156
I6
tp157
a(I5
S'nmod'
p158
I7
tp159
a(I2
S'punct'
p160
I8
tp161
a(I2
S'acl'
p162
I9
tp163
a(I11
S'case'
p164
I10
tp165
a(I9
S'nmod'
p166
I11
tp167
a(I13
S'case'
p168
I12
tp169
a(I11
S'nmod'
p170
I13
tp171
a(I16
S'case'
p172
I14
tp173
a(I16
S'det'
p174
I15
tp175
a(I13
S'nmod'
p176
I16
tp177
a(I2
S'punct'
p178
I17
tp179
a(I19
S'det'
p180
I18
tp181
a(I22
S'nsubj'
p182
I19
tp183
a(I22
S'cop'
p184
I20
tp185
a(I22
S'advmod'
p186
I21
tp187
a(I22
g17
I22
tp188
a(I22
S'punct'
p189
I23
tp190
aa(lp191
(I1
S'det'
p192
I0
tp193
a(I23
S'nsubj'
p194
I1
tp195
a(I22
S'dobj'
p196
I2
tp197
a(I4
S'det'
p198
I3
tp199
a(I22
S'nsubj'
p200
I4
tp201
a(I4
S'cc'
p202
I5
tp203
a(I7
S'det'
p204
I6
tp205
a(I4
S'conj'
p206
I7
tp207
a(I7
S'amod'
p208
I8
tp209
a(I8
S'cc'
p210
I9
tp211
a(I8
S'conj'
p212
I10
tp213
a(I12
S'case'
p214
I11
tp215
a(I7
S'nmod'
p216
I12
tp217
a(I14
S'case'
p218
I13
tp219
a(I12
S'nmod'
p220
I14
tp221
a(I12
S'punct'
p222
I15
tp223
a(I17
S'case'
p224
I16
tp225
a(I12
S'conj'
p226
I17
tp227
a(I12
S'cc'
p228
I18
tp229
a(I20
S'case'
p230
I19
tp231
a(I12
S'conj'
p232
I20
tp233
a(I22
S'aux'
p234
I21
tp235
a(I1
S'acl:relcl'
p236
I22
tp237
a(I23
g17
I23
tp238
a(I26
S'case'
p239
I24
tp240
a(I26
S'amod'
p241
I25
tp242
a(I23
S'nmod'
p243
I26
tp244
a(I23
S'cc'
p245
I27
tp246
a(I29
S'nsubj'
p247
I28
tp248
a(I23
S'conj'
p249
I29
tp250
a(I29
S'advmod'
p251
I30
tp252
a(I29
S'punct'
p253
I31
tp254
a(I33
S'case'
p255
I32
tp256
a(I29
S'nmod'
p257
I33
tp258
a(I35
S'case'
p259
I34
tp260
a(I33
S'nmod'
p261
I35
tp262
a(I38
S'case'
p263
I36
tp264
a(I38
S'amod'
p265
I37
tp266
a(I35
S'nmod'
p267
I38
tp268
a(I29
S'punct'
p269
I39
tp270
a(I41
S'mark'
p271
I40
tp272
a(I29
S'advcl'
p273
I41
tp274
a(I43
S'det'
p275
I42
tp276
a(I41
S'dobj'
p277
I43
tp278
a(I46
S'case'
p279
I44
tp280
a(I46
S'det'
p281
I45
tp282
a(I41
S'nmod'
p283
I46
tp284
a(I48
S'case'
p285
I47
tp286
a(I46
S'nmod'
p287
I48
tp288
a(I48
S'cc'
p289
I49
tp290
a(I51
S'case'
p291
I50
tp292
a(I48
S'conj'
p293
I51
tp294
a(I53
S'case'
p295
I52
tp296
a(I51
S'nmod'
p297
I53
tp298
a(I55
S'case'
p299
I54
tp300
a(I51
S'nmod'
p301
I55
tp302
a(I23
S'punct'
p303
I56
tp304
aa(lp305
(I2
S'aux'
p306
I0
tp307
a(I2
S'cop'
p308
I1
tp309
a(I2
g17
I2
tp310
a(I4
S'case'
p311
I3
tp312
a(I2
S'nmod'
p313
I4
tp314
a(I9
S'mark'
p315
I5
tp316
a(I7
S'det'
p317
I6
tp318
a(I9
S'nsubj'
p319
I7
tp320
a(I9
S'aux'
p321
I8
tp322
a(I4
S'acl'
p323
I9
tp324
a(I11
S'det'
p325
I10
tp326
a(I9
S'dobj'
p327
I11
tp328
a(I13
S'advmod'
p329
I12
tp330
a(I9
S'advmod'
p331
I13
tp332
a(I13
S'cc'
p333
I14
tp334
a(I16
S'advmod'
p335
I15
tp336
a(I19
S'aux'
p337
I16
tp338
a(I19
S'advmod'
p339
I17
tp340
a(I19
S'auxpass'
p341
I18
tp342
a(I13
S'conj'
p343
I19
tp344
a(I21
S'det'
p345
I20
tp346
a(I19
S'nsubjpass'
p347
I21
tp348
a(I21
S'acl'
p349
I22
tp350
a(I24
S'mark'
p351
I23
tp352
a(I22
S'xcomp'
p353
I24
tp354
a(I26
S'det'
p355
I25
tp356
a(I24
S'dobj'
p357
I26
tp358
a(I26
S'punct'
p359
I27
tp360
a(I29
S'nsubj'
p361
I28
tp362
a(I26
S'acl:relcl'
p363
I29
tp364
a(I31
S'mark'
p365
I30
tp366
a(I29
S'acl'
p367
I31
tp368
a(I33
S'case'
p369
I32
tp370
a(I31
S'nmod'
p371
I33
tp372
a(I35
S'advmod'
p373
I34
tp374
a(I33
S'amod'
p375
I35
tp376
a(I33
S'amod'
p377
I36
tp378
a(I2
S'punct'
p379
I37
tp380
aa(lp381
(I2
S'case'
p382
I0
tp383
a(I2
S'amod'
p384
I1
tp385
a(I4
S'nmod'
p386
I2
tp387
a(I4
S'aux'
p388
I3
tp389
a(I4
g17
I4
tp390
a(I19
S'mark'
p391
I5
tp392
a(I8
S'advmod'
p393
I6
tp394
a(I8
S'case'
p395
I7
tp396
a(I19
S'nmod'
p397
I8
tp398
a(I8
S'nummod'
p399
I9
tp400
a(I11
S'det'
p401
I10
tp402
a(I19
S'nsubj'
p403
I11
tp404
a(I13
S'punct'
p405
I12
tp406
a(I11
S'compound'
p407
I13
tp408
a(I13
S'cc'
p409
I14
tp410
a(I13
S'conj'
p411
I15
tp412
a(I15
S'amod'
p413
I16
tp414
a(I13
S'punct'
p415
I17
tp416
a(I19
S'aux'
p417
I18
tp418
a(I4
S'advcl'
p419
I19
tp420
a(I21
S'case'
p421
I20
tp422
a(I19
S'nmod'
p423
I21
tp424
a(I23
S'det'
p425
I22
tp426
a(I19
S'dobj'
p427
I23
tp428
a(I25
S'case'
p429
I24
tp430
a(I23
S'nmod'
p431
I25
tp432
a(I27
S'case'
p433
I26
tp434
a(I25
S'nmod'
p435
I27
tp436
a(I29
S'case'
p437
I28
tp438
a(I27
S'nmod'
p439
I29
tp440
a(I29
S'amod'
p441
I30
tp442
a(I32
S'case'
p443
I31
tp444
a(I25
S'nmod'
p445
I32
tp446
a(I34
S'case'
p447
I33
tp448
a(I32
S'nmod'
p449
I34
tp450
a(I25
S'punct'
p451
I35
tp452
a(I25
S'nmod'
p453
I36
tp454
a(I38
S'mark'
p455
I37
tp456
a(I36
S'acl'
p457
I38
tp458
a(I40
S'det'
p459
I39
tp460
a(I38
S'dobj'
p461
I40
tp462
a(I4
S'punct'
p463
I41
tp464
aa(lp465
(I1
S'nummod'
p466
I0
tp467
a(I8
S'nmod'
p468
I1
tp469
a(I3
S'advmod'
p470
I2
tp471
a(I1
S'advmod'
p472
I3
tp473
a(I1
S'punct'
p474
I4
tp475
a(I6
S'det'
p476
I5
tp477
a(I8
S'nsubj'
p478
I6
tp479
a(I8
S'aux'
p480
I7
tp481
a(I8
g17
I8
tp482
a(I11
S'det:poss'
p483
I9
tp484
a(I11
S'det'
p485
I10
tp486
a(I8
S'dobj'
p487
I11
tp488
a(I8
S'punct'
p489
I12
tp490
a(I16
S'mark'
p491
I13
tp492
a(I13
S'mwe'
p493
I14
tp494
a(I16
S'aux'
p495
I15
tp496
a(I25
S'advcl'
p497
I16
tp498
a(I19
S'det'
p499
I17
tp500
a(I19
S'amod'
p501
I18
tp502
a(I16
S'dobj'
p503
I19
tp504
a(I21
S'case'
p505
I20
tp506
a(I19
S'nmod'
p507
I21
tp508
a(I16
S'punct'
p509
I22
tp510
a(I25
S'aux'
p511
I23
tp512
a(I25
S'advmod'
p513
I24
tp514
a(I8
S'advcl'
p515
I25
tp516
a(I27
S'det'
p517
I26
tp518
a(I25
S'dobj'
p519
I27
tp520
a(I27
S'cc'
p521
I28
tp522
a(I30
S'det'
p523
I29
tp524
a(I27
S'conj'
p525
I30
tp526
a(I30
S'acl'
p527
I31
tp528
a(I34
S'advmod'
p529
I32
tp530
a(I34
S'det'
p531
I33
tp532
a(I31
S'dobj'
p533
I34
tp534
a(I36
S'case'
p535
I35
tp536
a(I34
S'nmod'
p537
I36
tp538
a(I36
S'amod'
p539
I37
tp540
a(I8
S'punct'
p541
I38
tp542
aa(lp543
(I2
S'case'
p544
I0
tp545
a(I2
S'det:poss'
p546
I1
tp547
a(I9
S'nmod'
p548
I2
tp549
a(I4
S'det'
p550
I3
tp551
a(I9
S'nsubj'
p552
I4
tp553
a(I4
S'punct'
p554
I5
tp555
a(I7
S'case'
p556
I6
tp557
a(I4
S'nummod'
p558
I7
tp559
a(I4
S'punct'
p560
I8
tp561
a(I9
g17
I9
tp562
a(I11
S'mark'
p563
I10
tp564
a(I9
S'xcomp'
p565
I11
tp566
a(I11
S'advmod'
p567
I12
tp568
a(I14
S'det'
p569
I13
tp570
a(I11
S'dobj'
p571
I14
tp572
a(I17
S'case'
p573
I15
tp574
a(I17
S'det'
p575
I16
tp576
a(I14
S'nmod'
p577
I17
tp578
a(I19
S'case'
p579
I18
tp580
a(I17
S'nmod'
p581
I19
tp582
a(I21
S'case'
p583
I20
tp584
a(I19
S'nmod'
p585
I21
tp586
a(I11
S'punct'
p587
I22
tp588
a(I24
S'aux'
p589
I23
tp590
a(I11
S'conj'
p591
I24
tp592
a(I28
S'det'
p593
I25
tp594
a(I28
S'det:poss'
p595
I26
tp596
a(I28
S'amod'
p597
I27
tp598
a(I24
S'dobj'
p599
I28
tp600
a(I30
S'case'
p601
I29
tp602
a(I28
S'nmod'
p603
I30
tp604
a(I32
S'case'
p605
I31
tp606
a(I30
S'nmod'
p607
I32
tp608
a(I34
S'case'
p609
I33
tp610
a(I32
S'nmod'
p611
I34
tp612
a(I11
S'cc'
p613
I35
tp614
a(I11
S'conj'
p615
I36
tp616
a(I39
S'det'
p617
I37
tp618
a(I39
S'amod'
p619
I38
tp620
a(I36
S'dobj'
p621
I39
tp622
a(I39
S'nmod'
p623
I40
tp624
a(I39
S'punct'
p625
I41
tp626
a(I44
S'case'
p627
I42
tp628
a(I44
S'det'
p629
I43
tp630
a(I39
S'nmod'
p631
I44
tp632
a(I44
S'amod'
p633
I45
tp634
a(I48
S'case'
p635
I46
tp636
a(I48
S'nummod'
p637
I47
tp638
a(I44
S'nmod'
p639
I48
tp640
a(I50
S'case'
p641
I49
tp642
a(I48
S'nmod'
p643
I50
tp644
a(I9
S'punct'
p645
I51
tp646
aa(lp647
(I0
g17
I0
tp648
a(I4
S'neg'
p649
I1
tp650
a(I4
S'expl:impers'
p651
I2
tp652
a(I4
S'aux'
p653
I3
tp654
a(I0
S'ccomp'
p655
I4
tp656
a(I6
S'det'
p657
I5
tp658
a(I4
S'dobj'
p659
I6
tp660
a(I9
S'case'
p661
I7
tp662
a(I9
S'det'
p663
I8
tp664
a(I6
S'nmod'
p665
I9
tp666
a(I9
S'punct'
p667
I10
tp668
a(I9
S'appos'
p669
I11
tp670
a(I14
S'nsubj'
p671
I12
tp672
a(I14
S'aux'
p673
I13
tp674
a(I11
S'acl:relcl'
p675
I14
tp676
a(I16
S'mark'
p677
I15
tp678
a(I14
S'xcomp'
p679
I16
tp680
a(I18
S'det'
p681
I17
tp682
a(I16
S'dobj'
p683
I18
tp684
a(I0
S'punct'
p685
I19
tp686
a(I0
S'advcl'
p687
I20
tp688
a(I22
S'advmod'
p689
I21
tp690
a(I20
S'xcomp'
p691
I22
tp692
a(I0
S'punct'
p693
I23
tp694
aa(lp695
(I2
S'case'
p696
I0
tp697
a(I2
S'amod'
p698
I1
tp699
a(I14
S'nmod'
p700
I2
tp701
a(I2
S'punct'
p702
I3
tp703
a(I5
S'det'
p704
I4
tp705
a(I14
S'nsubj'
p706
I5
tp707
a(I5
S'cc'
p708
I6
tp709
a(I8
S'det'
p710
I7
tp711
a(I5
S'conj'
p712
I8
tp713
a(I8
S'amod'
p714
I9
tp715
a(I12
S'case'
p716
I10
tp717
a(I12
S'det'
p718
I11
tp719
a(I5
S'nmod'
p720
I12
tp721
a(I14
S'aux'
p722
I13
tp723
a(I14
g17
I14
tp724
a(I16
S'case'
p725
I15
tp726
a(I14
S'nmod'
p727
I16
tp728
a(I14
S'punct'
p729
I17
tp730
a(I20
S'advmod'
p731
I18
tp732
a(I20
S'case'
p733
I19
tp734
a(I26
S'nummod'
p735
I20
tp736
a(I20
S'punct'
p737
I21
tp738
a(I23
S'det'
p739
I22
tp740
a(I26
S'nsubj'
p741
I23
tp742
a(I25
S'case'
p743
I24
tp744
a(I23
S'nmod'
p745
I25
tp746
a(I14
S'conj'
p747
I26
tp748
a(I29
S'case'
p749
I27
tp750
a(I29
S'det'
p751
I28
tp752
a(I26
S'nmod'
p753
I29
tp754
a(I26
S'punct'
p755
I30
tp756
a(I26
S'advcl'
p757
I31
tp758
a(I31
S'dobj'
p759
I32
tp760
a(I34
S'case'
p761
I33
tp762
a(I32
S'nmod'
p763
I34
tp764
a(I34
S'compound'
p765
I35
tp766
a(I31
S'punct'
p767
I36
tp768
a(I38
S'case'
p769
I37
tp770
a(I31
S'nmod'
p771
I38
tp772
a(I38
S'punct'
p773
I39
tp774
a(I41
S'case'
p775
I40
tp776
a(I38
S'nmod'
p777
I41
tp778
a(I41
S'name'
p779
I41
tp780
a(I41
S'punct'
p781
I42
tp782
a(I44
S'case'
p783
I43
tp784
a(I41
S'nmod'
p785
I44
tp786
a(I44
S'amod'
p787
I45
tp788
a(I44
S'cc'
p789
I46
tp790
a(I49
S'case'
p791
I47
tp792
a(I49
S'amod'
p793
I48
tp794
a(I44
S'conj'
p795
I49
tp796
a(I51
S'neg'
p797
I50
tp798
a(I49
S'amod'
p799
I51
tp800
a(I14
S'punct'
p801
I52
tp802
aa(lp803
(I0
g17
I0
tp804
a(I2
S'det'
p805
I1
tp806
a(I0
S'dobj'
p807
I2
tp808
a(I4
S'case'
p809
I3
tp810
a(I2
S'nmod'
p811
I4
tp812
a(I4
S'amod'
p813
I5
tp814
a(I4
S'nmod'
p815
I6
tp816
a(I9
S'case'
p817
I7
tp818
a(I9
S'det'
p819
I8
tp820
a(I6
S'nmod'
p821
I9
tp822
a(I0
S'punct'
p823
I10
tp824
aa(lp825
(I9
S'advmod'
p826
I0
tp827
a(I0
S'punct'
p828
I1
tp829
a(I4
S'advmod'
p830
I2
tp831
a(I4
S'case'
p832
I3
tp833
a(I9
S'nummod'
p834
I4
tp835
a(I4
S'punct'
p836
I5
tp837
a(I7
S'det'
p838
I6
tp839
a(I9
S'nsubj'
p840
I7
tp841
a(I9
S'aux'
p842
I8
tp843
a(I9
g17
I9
tp844
a(I11
S'det'
p845
I10
tp846
a(I9
S'dobj'
p847
I11
tp848
a(I11
S'amod'
p849
I12
tp850
a(I11
S'acl'
p851
I13
tp852
a(I15
S'mark'
p853
I14
tp854
a(I13
S'xcomp'
p855
I15
tp856
a(I17
S'det'
p857
I16
tp858
a(I15
S'dobj'
p859
I17
tp860
a(I19
S'case'
p861
I18
tp862
a(I17
S'nmod'
p863
I19
tp864
a(I19
S'amod'
p865
I20
tp866
a(I15
S'cc'
p867
I21
tp868
a(I23
S'det'
p869
I22
tp870
a(I15
S'conj'
p871
I23
tp872
a(I23
S'amod'
p873
I24
tp874
a(I26
S'case'
p875
I25
tp876
a(I23
S'nmod'
p877
I26
tp878
a(I9
S'punct'
p879
I27
tp880
aa(lp881
(I1
S'case'
p882
I0
tp883
a(I8
S'nummod'
p884
I1
tp885
a(I1
S'punct'
p886
I2
tp887
a(I4
S'det'
p888
I3
tp889
a(I8
S'nsubj'
p890
I4
tp891
a(I4
S'amod'
p892
I4
tp893
a(I6
S'case'
p894
I5
tp895
a(I4
S'nmod'
p896
I6
tp897
a(I8
S'aux'
p898
I7
tp899
a(I8
g17
I8
tp900
a(I10
S'det'
p901
I9
tp902
a(I8
S'dobj'
p903
I10
tp904
a(I10
S'amod'
p905
I11
tp906
a(I13
S'case'
p907
I12
tp908
a(I11
S'nmod'
p909
I13
tp910
a(I13
S'amod'
p911
I14
tp912
a(I16
S'case'
p913
I15
tp914
a(I13
S'nmod'
p915
I16
tp916
a(I18
S'case'
p917
I17
tp918
a(I16
S'nmod'
p919
I18
tp920
a(I18
S'acl'
p921
I19
tp922
a(I21
S'mark'
p923
I20
tp924
a(I19
S'xcomp'
p925
I21
tp926
a(I21
S'cc'
p927
I22
tp928
a(I21
S'conj'
p929
I23
tp930
a(I25
S'case'
p931
I24
tp932
a(I23
S'nmod'
p933
I25
tp934
a(I25
S'amod'
p935
I26
tp936
a(I28
S'det'
p937
I27
tp938
a(I23
S'dobj'
p939
I28
tp940
a(I30
S'case'
p941
I29
tp942
a(I28
S'nmod'
p943
I30
tp944
a(I32
S'case'
p945
I31
tp946
a(I28
S'nmod'
p947
I32
tp948
a(I34
S'case'
p949
I33
tp950
a(I32
S'nmod'
p951
I34
tp952
a(I34
S'amod'
p953
I35
tp954
a(I8
S'punct'
p955
I36
tp956
aa(lp957
(I8
S'advmod'
p958
I0
tp959
a(I0
S'punct'
p960
I1
tp961
a(I3
S'case'
p962
I2
tp963
a(I8
S'nummod'
p964
I3
tp965
a(I3
S'punct'
p966
I4
tp967
a(I6
S'det'
p968
I5
tp969
a(I8
S'nsubj'
p970
I6
tp971
a(I8
S'aux'
p972
I7
tp973
a(I8
g17
I8
tp974
a(I11
S'det'
p975
I9
tp976
a(I11
S'amod'
p977
I10
tp978
a(I8
S'nsubjpass'
p979
I11
tp980
a(I11
S'amod'
p981
I12
tp982
a(I15
S'case'
p983
I13
tp984
a(I15
S'amod'
p985
I14
tp986
a(I12
S'nmod'
p987
I15
tp988
a(I17
S'case'
p989
I16
tp990
a(I15
S'nmod'
p991
I17
tp992
a(I20
S'case'
p993
I18
tp994
a(I20
S'det'
p995
I19
tp996
a(I17
S'nmod'
p997
I20
tp998
a(I8
S'punct'
p999
I21
tp1000
aa(lp1001
(I0
g17
I0
tp1002
a(I2
S'advmod'
p1003
I1
tp1004
a(I7
S'cc'
p1005
I2
tp1006
a(I5
S'case'
p1007
I3
tp1008
a(I5
S'det'
p1009
I4
tp1010
a(I7
S'nmod'
p1011
I5
tp1012
a(I7
S'auxpass'
p1013
I6
tp1014
a(I0
S'advcl'
p1015
I7
tp1016
a(I9
S'case'
p1017
I8
tp1018
a(I7
S'nmod'
p1019
I9
tp1020
a(I7
S'advmod'
p1021
I10
tp1022
a(I12
S'case'
p1023
I11
tp1024
a(I10
S'nmod'
p1025
I12
tp1026
a(I14
S'case'
p1027
I13
tp1028
a(I12
S'nmod'
p1029
I14
tp1030
a(I14
S'amod'
p1031
I15
tp1032
a(I7
S'punct'
p1033
I16
tp1034
a(I21
S'mark'
p1035
I17
tp1036
a(I17
S'mwe'
p1037
I18
tp1038
a(I20
S'det'
p1039
I19
tp1040
a(I21
S'nsubj'
p1041
I20
tp1042
a(I7
S'advcl'
p1043
I21
tp1044
a(I24
S'case'
p1045
I22
tp1046
a(I24
S'amod'
p1047
I23
tp1048
a(I21
S'nmod'
p1049
I24
tp1050
a(I24
S'nmod'
p1051
I25
tp1052
a(I28
S'case'
p1053
I26
tp1054
a(I28
S'det'
p1055
I27
tp1056
a(I25
S'nmod'
p1057
I28
tp1058
a(I28
S'cc'
p1059
I29
tp1060
a(I31
S'det'
p1061
I30
tp1062
a(I28
S'conj'
p1063
I31
tp1064
a(I31
S'name'
p1065
I31
tp1066
a(I25
S'cc'
p1067
I32
tp1068
a(I35
S'neg'
p1069
I33
tp1070
a(I35
S'auxpass'
p1071
I34
tp1072
a(I25
S'conj'
p1073
I35
tp1074
a(I37
S'case'
p1075
I36
tp1076
a(I35
S'nmod'
p1077
I37
tp1078
a(I37
S'acl'
p1079
I38
tp1080
a(I40
S'case'
p1081
I39
tp1082
a(I38
S'nmod'
p1083
I40
tp1084
a(I42
S'case'
p1085
I41
tp1086
a(I40
S'nmod'
p1087
I42
tp1088
a(I42
S'name'
p1089
I42
tp1090
a(I0
S'punct'
p1091
I43
tp1092
aa(lp1093
(I0
g17
I0
tp1094
a(I3
S'case'
p1095
I1
tp1096
a(I3
S'det'
p1097
I2
tp1098
a(I0
S'nmod'
p1099
I3
tp1100
a(I5
S'case'
p1101
I4
tp1102
a(I3
S'nmod'
p1103
I5
tp1104
a(I8
S'case'
p1105
I6
tp1106
a(I8
S'det'
p1107
I7
tp1108
a(I3
S'nmod'
p1109
I8
tp1110
a(I10
S'case'
p1111
I9
tp1112
a(I8
S'nmod'
p1113
I10
tp1114
a(I8
S'acl'
p1115
I11
tp1116
a(I13
S'advmod'
p1117
I12
tp1118
a(I14
S'amod'
p1119
I13
tp1120
a(I11
S'dobj'
p1121
I14
tp1122
a(I8
S'punct'
p1123
I15
tp1124
a(I17
S'case'
p1125
I16
tp1126
a(I8
S'nmod'
p1127
I17
tp1128
a(I19
S'mark'
p1129
I18
tp1130
a(I17
S'acl'
p1131
I19
tp1132
a(I22
S'case'
p1133
I20
tp1134
a(I22
S'det'
p1135
I21
tp1136
a(I19
S'nmod'
p1137
I22
tp1138
a(I22
S'cc'
p1139
I23
tp1140
a(I26
S'case'
p1141
I24
tp1142
a(I26
S'det'
p1143
I25
tp1144
a(I22
S'conj'
p1145
I26
tp1146
a(I28
S'case'
p1147
I27
tp1148
a(I26
S'nmod'
p1149
I28
tp1150
a(I17
S'punct'
p1151
I29
tp1152
a(I17
S'cc'
p1153
I30
tp1154
a(I33
S'case'
p1155
I31
tp1156
a(I33
S'det'
p1157
I32
tp1158
a(I17
S'conj'
p1159
I33
tp1160
a(I35
S'case'
p1161
I34
tp1162
a(I33
S'nmod'
p1163
I35
tp1164
a(I37
S'case'
p1165
I36
tp1166
a(I35
S'nmod'
p1167
I37
tp1168
a(I3
S'punct'
p1169
I38
tp1170
aa(lp1171
(I2
S'mark'
p1172
I0
tp1173
a(I2
S'cop'
p1174
I1
tp1175
a(I7
S'advcl'
p1176
I2
tp1177
a(I2
S'punct'
p1178
I3
tp1179
a(I5
S'det'
p1180
I4
tp1181
a(I7
S'nsubj'
p1182
I5
tp1183
a(I7
S'aux'
p1184
I6
tp1185
a(I7
g17
I7
tp1186
a(I7
S'advmod'
p1187
I8
tp1188
a(I10
S'mark'
p1189
I9
tp1190
a(I7
S'xcomp'
p1191
I10
tp1192
a(I10
S'dobj'
p1193
I11
tp1194
a(I13
S'case'
p1195
I12
tp1196
a(I11
S'nmod'
p1197
I13
tp1198
a(I13
S'amod'
p1199
I14
tp1200
a(I16
S'case'
p1201
I15
tp1202
a(I14
S'nmod'
p1203
I16
tp1204
a(I19
S'case'
p1205
I17
tp1206
a(I19
S'det'
p1207
I18
tp1208
a(I16
S'nmod'
p1209
I19
tp1210
a(I21
S'case'
p1211
I20
tp1212
a(I19
S'nmod'
p1213
I21
tp1214
a(I21
S'amod'
p1215
I22
tp1216
a(I22
S'cc'
p1217
I23
tp1218
a(I22
S'conj'
p1219
I24
tp1220
a(I13
S'punct'
p1221
I25
tp1222
a(I29
S'nsubj'
p1223
I26
tp1224
a(I29
S'cop'
p1225
I27
tp1226
a(I29
S'cop'
p1227
I28
tp1228
a(I13
S'acl:relcl'
p1229
I29
tp1230
a(I31
S'case'
p1231
I30
tp1232
a(I29
S'nmod'
p1233
I31
tp1234
a(I31
S'nmod'
p1235
I32
tp1236
a(I34
S'case'
p1237
I33
tp1238
a(I32
S'nmod'
p1239
I34
tp1240
a(I37
S'case'
p1241
I35
tp1242
a(I37
S'amod'
p1243
I36
tp1244
a(I34
S'nmod'
p1245
I37
tp1246
a(I40
S'case'
p1247
I38
tp1248
a(I40
S'det'
p1249
I39
tp1250
a(I37
S'nmod'
p1251
I40
tp1252
a(I7
S'punct'
p1253
I41
tp1254
aa(lp1255
(I2
S'case'
p1256
I0
tp1257
a(I2
S'det'
p1258
I1
tp1259
a(I3
S'nmod'
p1260
I2
tp1261
a(I3
g17
I3
tp1262
a(I3
S'nsubj'
p1263
I4
tp1264
a(I4
S'acl'
p1265
I5
tp1266
a(I7
S'case'
p1267
I6
tp1268
a(I5
S'nmod'
p1269
I7
tp1270
a(I7
S'nmod'
p1271
I8
tp1272
a(I3
S'punct'
p1273
I9
tp1274
a(I12
S'det'
p1275
I10
tp1276
a(I12
S'case'
p1277
I11
tp1278
a(I3
S'nmod'
p1279
I12
tp1280
a(I15
S'case'
p1281
I13
tp1282
a(I15
S'det'
p1283
I14
tp1284
a(I12
S'nmod'
p1285
I15
tp1286
a(I17
S'case'
p1287
I16
tp1288
a(I15
S'nmod'
p1289
I17
tp1290
a(I17
S'amod'
p1291
I18
tp1292
a(I21
S'case'
p1293
I19
tp1294
a(I21
S'det'
p1295
I20
tp1296
a(I15
S'nmod'
p1297
I21
tp1298
a(I3
S'punct'
p1299
I22
tp1300
aa(lp1301
(I0
g17
I0
tp1302
a(I2
S'mark'
p1303
I1
tp1304
a(I0
S'xcomp'
p1305
I2
tp1306
a(I4
S'case'
p1307
I3
tp1308
a(I2
S'nmod'
p1309
I4
tp1310
a(I10
S'mark'
p1311
I5
tp1312
a(I7
S'det'
p1313
I6
tp1314
a(I10
S'nsubj'
p1315
I7
tp1316
a(I10
S'neg'
p1317
I8
tp1318
a(I10
S'aux'
p1319
I9
tp1320
a(I2
S'ccomp'
p1321
I10
tp1322
a(I10
S'dobj'
p1323
I11
tp1324
a(I13
S'case'
p1325
I12
tp1326
a(I11
S'nmod'
p1327
I13
tp1328
a(I13
S'acl'
p1329
I14
tp1330
a(I16
S'case'
p1331
I15
tp1332
a(I14
S'nmod'
p1333
I16
tp1334
a(I16
S'case'
p1335
I16
tp1336
a(I16
S'nmod'
p1337
I16
tp1338
a(I18
S'case'
p1339
I17
tp1340
a(I16
S'nmod'
p1341
I18
tp1342
a(I11
S'punct'
p1343
I19
tp1344
a(I21
S'nsubj'
p1345
I20
tp1346
a(I11
S'acl:relcl'
p1347
I21
tp1348
a(I24
S'case'
p1349
I22
tp1350
a(I24
S'nummod'
p1351
I23
tp1352
a(I21
S'nmod'
p1353
I24
tp1354
a(I24
S'nmod'
p1355
I25
tp1356
a(I27
S'case'
p1357
I26
tp1358
a(I25
S'nmod'
p1359
I27
tp1360
a(I29
S'case'
p1361
I28
tp1362
a(I25
S'nmod'
p1363
I29
tp1364
a(I0
S'punct'
p1365
I30
tp1366
aa(lp1367
(I2
S'neg'
p1368
I0
tp1369
a(I2
S'expl'
p1370
I1
tp1371
a(I2
g17
I2
tp1372
a(I2
S'nsubj'
p1373
I3
tp1374
a(I3
S'amod'
p1375
I4
tp1376
a(I3
S'amod'
p1377
I5
tp1378
a(I7
S'case'
p1379
I6
tp1380
a(I5
S'nmod'
p1381
I7
tp1382
a(I2
S'punct'
p1383
I8
tp1384
a(I12
S'mark'
p1385
I9
tp1386
a(I9
S'mwe'
p1387
I10
tp1388
a(I12
S'expl:impers'
p1389
I11
tp1390
a(I2
S'conj'
p1391
I12
tp1392
a(I14
S'case'
p1393
I13
tp1394
a(I12
S'nmod'
p1395
I14
tp1396
a(I16
S'case'
p1397
I15
tp1398
a(I14
S'nmod'
p1399
I16
tp1400
a(I16
S'amod'
p1401
I17
tp1402
a(I19
S'mark'
p1403
I18
tp1404
a(I16
S'acl'
p1405
I19
tp1406
a(I12
S'punct'
p1407
I20
tp1408
a(I12
S'advcl'
p1409
I21
tp1410
a(I21
S'xcomp'
p1411
I22
tp1412
a(I24
S'case'
p1413
I23
tp1414
a(I22
S'nmod'
p1415
I24
tp1416
a(I26
S'case'
p1417
I25
tp1418
a(I24
S'nmod'
p1419
I26
tp1420
a(I26
S'amod'
p1421
I27
tp1422
a(I24
S'punct'
p1423
I28
tp1424
a(I31
S'case'
p1425
I29
tp1426
a(I31
S'det'
p1427
I30
tp1428
a(I24
S'nmod'
p1429
I31
tp1430
a(I31
S'punct'
p1431
I32
tp1432
a(I31
S'cc'
p1433
I33
tp1434
a(I35
S'case'
p1435
I34
tp1436
a(I31
S'conj'
p1437
I35
tp1438
a(I35
S'amod'
p1439
I36
tp1440
a(I35
S'punct'
p1441
I37
tp1442
a(I39
S'case'
p1443
I38
tp1444
a(I35
S'nmod'
p1445
I39
tp1446
a(I2
S'punct'
p1447
I40
tp1448
aa(lp1449
(I2
S'mark'
p1450
I0
tp1451
a(I2
S'advmod'
p1452
I1
tp1453
a(I6
S'advcl'
p1454
I2
tp1455
a(I4
S'det'
p1456
I3
tp1457
a(I2
S'dobj'
p1458
I4
tp1459
a(I6
S'advmod'
p1460
I5
tp1461
a(I6
g17
I6
tp1462
a(I8
S'advmod'
p1463
I7
tp1464
a(I6
S'xcomp'
p1465
I8
tp1466
a(I6
S'punct'
p1467
I9
tp1468
a(I6
S'parataxis'
p1469
I10
tp1470
a(I12
S'cop'
p1471
I11
tp1472
a(I10
S'ccomp'
p1473
I12
tp1474
a(I12
S'csubj'
p1475
I13
tp1476
a(I15
S'det'
p1477
I14
tp1478
a(I13
S'dobj'
p1479
I15
tp1480
a(I17
S'mark'
p1481
I16
tp1482
a(I13
S'advcl'
p1483
I17
tp1484
a(I21
S'det'
p1485
I18
tp1486
a(I20
S'advmod'
p1487
I19
tp1488
a(I21
S'acl'
p1489
I20
tp1490
a(I17
S'dobj'
p1491
I21
tp1492
a(I24
S'case'
p1493
I22
tp1494
a(I24
S'det'
p1495
I23
tp1496
a(I21
S'nmod'
p1497
I24
tp1498
a(I17
S'cc'
p1499
I25
tp1500
a(I31
S'mark'
p1501
I26
tp1502
a(I31
S'neg'
p1503
I27
tp1504
a(I31
S'advmod'
p1505
I28
tp1506
a(I31
S'expl:impers'
p1507
I29
tp1508
a(I31
S'aux'
p1509
I30
tp1510
a(I17
S'conj'
p1511
I31
tp1512
a(I31
S'punct'
p1513
I32
tp1514
a(I34
S'case'
p1515
I33
tp1516
a(I31
S'nmod'
p1517
I34
tp1518
a(I31
S'punct'
p1519
I35
tp1520
a(I38
S'case'
p1521
I36
tp1522
a(I38
S'det'
p1523
I37
tp1524
a(I31
S'nmod'
p1525
I38
tp1526
a(I40
S'case'
p1527
I39
tp1528
a(I38
S'nmod'
p1529
I40
tp1530
a(I40
S'punct'
p1531
I41
tp1532
a(I45
S'nsubj'
p1533
I42
tp1534
a(I44
S'case'
p1535
I43
tp1536
a(I45
S'nmod'
p1537
I44
tp1538
a(I40
S'acl:relcl'
p1539
I45
tp1540
a(I47
S'advmod'
p1541
I46
tp1542
a(I45
S'xcomp'
p1543
I47
tp1544
a(I49
S'case'
p1545
I48
tp1546
a(I47
S'nmod'
p1547
I49
tp1548
a(I6
S'punct'
p1549
I50
tp1550
aa(lp1551
(I2
S'case'
p1552
I0
tp1553
a(I2
S'det'
p1554
I1
tp1555
a(I6
S'nmod'
p1556
I2
tp1557
a(I2
S'punct'
p1558
I3
tp1559
a(I5
S'det'
p1560
I4
tp1561
a(I6
S'nsubj'
p1562
I5
tp1563
a(I6
g17
I6
tp1564
a(I6
S'advcl'
p1565
I7
tp1566
a(I9
S'advmod'
p1567
I8
tp1568
a(I7
S'advmod'
p1569
I9
tp1570
a(I7
S'punct'
p1571
I10
tp1572
a(I12
S'neg'
p1573
I11
tp1574
a(I14
S'advmod'
p1575
I12
tp1576
a(I14
S'case'
p1577
I13
tp1578
a(I7
S'nmod'
p1579
I14
tp1580
a(I16
S'case'
p1581
I15
tp1582
a(I14
S'nmod'
p1583
I16
tp1584
a(I18
S'case'
p1585
I17
tp1586
a(I16
S'nmod'
p1587
I18
tp1588
a(I18
S'acl'
p1589
I19
tp1590
a(I7
S'punct'
p1591
I20
tp1592
a(I7
S'cc'
p1593
I21
tp1594
a(I30
S'advmod'
p1595
I22
tp1596
a(I30
S'mark'
p1597
I23
tp1598
a(I25
S'det'
p1599
I24
tp1600
a(I30
S'nsubj'
p1601
I25
tp1602
a(I27
S'case'
p1603
I26
tp1604
a(I25
S'nmod'
p1605
I27
tp1606
a(I30
S'cop'
p1607
I28
tp1608
a(I30
S'det'
p1609
I29
tp1610
a(I7
S'conj'
p1611
I30
tp1612
a(I32
S'case'
p1613
I31
tp1614
a(I30
S'nmod'
p1615
I32
tp1616
a(I39
S'nsubj'
p1617
I33
tp1618
a(I33
S'punct'
p1619
I34
tp1620
a(I36
S'case'
p1621
I35
tp1622
a(I39
S'nmod'
p1623
I36
tp1624
a(I36
S'acl:relcl'
p1625
I37
tp1626
a(I36
S'punct'
p1627
I38
tp1628
a(I32
S'acl:relcl'
p1629
I39
tp1630
a(I41
S'case'
p1631
I40
tp1632
a(I39
S'nmod'
p1633
I41
tp1634
a(I43
S'case'
p1635
I42
tp1636
a(I41
S'nmod'
p1637
I43
tp1638
a(I47
S'case'
p1639
I44
tp1640
a(I47
S'det:predet'
p1641
I45
tp1642
a(I47
S'det'
p1643
I46
tp1644
a(I43
S'nmod'
p1645
I47
tp1646
a(I6
S'punct'
p1647
I48
tp1648
a(I50
S'mark'
p1649
I49
tp1650
a(I6
S'advcl'
p1651
I50
tp1652
a(I52
S'case'
p1653
I51
tp1654
a(I50
S'nmod'
p1655
I52
tp1656
a(I54
S'mark'
p1657
I53
tp1658
a(I52
S'acl'
p1659
I54
tp1660
a(I54
S'dobj'
p1661
I55
tp1662
a(I55
S'amod'
p1663
I56
tp1664
a(I58
S'case'
p1665
I57
tp1666
a(I54
S'nmod'
p1667
I58
tp1668
a(I60
S'advmod'
p1669
I59
tp1670
a(I58
S'amod'
p1671
I60
tp1672
a(I63
S'case'
p1673
I61
tp1674
a(I63
S'det'
p1675
I62
tp1676
a(I50
S'nmod'
p1677
I63
tp1678
a(I6
S'punct'
p1679
I64
tp1680
aa(lp1681
(I0
g17
I0
tp1682
a(I2
S'det'
p1683
I1
tp1684
a(I0
S'dobj'
p1685
I2
tp1686
a(I4
S'case'
p1687
I3
tp1688
a(I2
S'nmod'
p1689
I4
tp1690
a(I4
S'amod'
p1691
I5
tp1692
a(I0
S'punct'
p1693
I6
tp1694
a(I0
S'cc'
p1695
I7
tp1696
a(I9
S'expl'
p1697
I8
tp1698
a(I0
S'conj'
p1699
I9
tp1700
a(I11
S'advmod'
p1701
I10
tp1702
a(I12
S'amod'
p1703
I11
tp1704
a(I9
S'nsubj'
p1705
I12
tp1706
a(I12
S'cc'
p1707
I13
tp1708
a(I12
S'conj'
p1709
I14
tp1710
a(I14
S'amod'
p1711
I15
tp1712
a(I17
S'nsubj'
p1713
I16
tp1714
a(I14
S'acl:relcl'
p1715
I17
tp1716
a(I17
S'dobj'
p1717
I18
tp1718
a(I21
S'case'
p1719
I19
tp1720
a(I21
S'det'
p1721
I20
tp1722
a(I17
S'nmod'
p1723
I21
tp1724
a(I21
S'amod'
p1725
I22
tp1726
a(I21
S'cc'
p1727
I23
tp1728
a(I25
S'advmod'
p1729
I24
tp1730
a(I21
S'conj'
p1731
I25
tp1732
a(I21
S'punct'
p1733
I26
tp1734
a(I29
S'nsubj'
p1735
I27
tp1736
a(I29
S'expl'
p1737
I28
tp1738
a(I21
S'acl:relcl'
p1739
I29
tp1740
a(I31
S'case'
p1741
I30
tp1742
a(I29
S'nmod'
p1743
I31
tp1744
a(I31
S'amod'
p1745
I32
tp1746
a(I29
S'cc'
p1747
I33
tp1748
a(I29
S'conj'
p1749
I34
tp1750
a(I34
S'amod'
p1751
I35
tp1752
a(I37
S'case'
p1753
I36
tp1754
a(I34
S'nmod'
p1755
I37
tp1756
a(I39
S'case'
p1757
I38
tp1758
a(I37
S'nmod'
p1759
I39
tp1760
a(I37
S'punct'
p1761
I40
tp1762
a(I42
S'case'
p1763
I41
tp1764
a(I37
S'conj'
p1765
I42
tp1766
a(I37
S'cc'
p1767
I43
tp1768
a(I45
S'case'
p1769
I44
tp1770
a(I37
S'conj'
p1771
I45
tp1772
a(I0
S'punct'
p1773
I46
tp1774
aa(lp1775
(I0
g17
I0
tp1776
a(I3
S'case'
p1777
I1
tp1778
a(I3
S'det'
p1779
I2
tp1780
a(I0
S'nmod'
p1781
I3
tp1782
a(I9
S'mark'
p1783
I4
tp1784
a(I6
S'det'
p1785
I5
tp1786
a(I9
S'nsubjpass'
p1787
I6
tp1788
a(I9
S'aux'
p1789
I7
tp1790
a(I9
S'auxpass'
p1791
I8
tp1792
a(I3
S'advcl'
p1793
I9
tp1794
a(I12
S'case'
p1795
I10
tp1796
a(I12
S'amod'
p1797
I11
tp1798
a(I9
S'nmod'
p1799
I12
tp1800
a(I9
S'punct'
p1801
I13
tp1802
a(I9
S'cc'
p1803
I14
tp1804
a(I16
S'case'
p1805
I15
tp1806
a(I9
S'conj'
p1807
I16
tp1808
a(I19
S'case'
p1809
I17
tp1810
a(I19
S'det'
p1811
I18
tp1812
a(I16
S'nmod'
p1813
I19
tp1814
a(I19
S'name'
p1815
I19
tp1816
a(I0
S'punct'
p1817
I20
tp1818
aa(lp1819
(I1
S'nsubj'
p1820
I0
tp1821
a(I1
g17
I1
tp1822
a(I3
S'case'
p1823
I2
tp1824
a(I1
S'nmod'
p1825
I3
tp1826
a(I10
S'nsubj'
p1827
I4
tp1828
a(I10
S'cop'
p1829
I5
tp1830
a(I8
S'advmod'
p1831
I6
tp1832
a(I8
S'case'
p1833
I7
tp1834
a(I10
S'nmod'
p1835
I8
tp1836
a(I10
S'det'
p1837
I9
tp1838
a(I3
S'acl:relcl'
p1839
I10
tp1840
a(I12
S'case'
p1841
I11
tp1842
a(I10
S'nmod'
p1843
I12
tp1844
a(I10
S'acl'
p1845
I13
tp1846
a(I15
S'mark'
p1847
I14
tp1848
a(I13
S'xcomp'
p1849
I15
tp1850
a(I15
S'punct'
p1851
I16
tp1852
a(I15
S'conj'
p1853
I17
tp1854
a(I15
S'cc'
p1855
I18
tp1856
a(I15
S'conj'
p1857
I19
tp1858
a(I21
S'det'
p1859
I20
tp1860
a(I19
S'dobj'
p1861
I21
tp1862
a(I23
S'case'
p1863
I22
tp1864
a(I21
S'nmod'
p1865
I23
tp1866
a(I19
S'punct'
p1867
I24
tp1868
a(I26
S'case'
p1869
I25
tp1870
a(I19
S'nmod'
p1871
I26
tp1872
a(I28
S'case'
p1873
I27
tp1874
a(I26
S'nmod'
p1875
I28
tp1876
a(I28
S'cc'
p1877
I29
tp1878
a(I28
S'conj'
p1879
I30
tp1880
a(I19
S'punct'
p1881
I31
tp1882
a(I33
S'det'
p1883
I32
tp1884
a(I34
S'nsubj'
p1885
I33
tp1886
a(I19
S'acl:relcl'
p1887
I34
tp1888
a(I36
S'case'
p1889
I35
tp1890
a(I34
S'nmod'
p1891
I36
tp1892
a(I38
S'case'
p1893
I37
tp1894
a(I34
S'nmod'
p1895
I38
tp1896
a(I38
S'case'
p1897
I38
tp1898
a(I38
S'nmod'
p1899
I38
tp1900
a(I38
S'name'
p1901
I38
tp1902
a(I41
S'case'
p1903
I39
tp1904
a(I41
S'det'
p1905
I40
tp1906
a(I38
S'nmod'
p1907
I41
tp1908
a(I41
S'amod'
p1909
I42
tp1910
a(I1
S'punct'
p1911
I43
tp1912
aa(lp1913
(I2
S'case'
p1914
I0
tp1915
a(I2
S'det'
p1916
I1
tp1917
a(I6
S'nmod'
p1918
I2
tp1919
a(I4
S'det'
p1920
I3
tp1921
a(I6
S'nsubj'
p1922
I4
tp1923
a(I6
S'aux'
p1924
I5
tp1925
a(I6
g17
I6
tp1926
a(I8
S'case'
p1927
I7
tp1928
a(I6
S'nmod'
p1929
I8
tp1930
a(I10
S'det'
p1931
I9
tp1932
a(I6
S'dobj'
p1933
I10
tp1934
a(I13
S'advmod'
p1935
I11
tp1936
a(I13
S'mark'
p1937
I12
tp1938
a(I10
S'acl'
p1939
I13
tp1940
a(I15
S'det'
p1941
I14
tp1942
a(I13
S'dobj'
p1943
I15
tp1944
a(I17
S'mark'
p1945
I16
tp1946
a(I13
S'advcl'
p1947
I17
tp1948
a(I19
S'det'
p1949
I18
tp1950
a(I17
S'dobj'
p1951
I19
tp1952
a(I6
S'punct'
p1953
I20
tp1954
aa(lp1955
(I1
S'det'
p1956
I0
tp1957
a(I6
S'nsubj'
p1958
I1
tp1959
a(I1
S'nmod'
p1960
I2
tp1961
a(I4
S'case'
p1962
I3
tp1963
a(I2
S'nmod'
p1964
I4
tp1965
a(I4
S'name'
p1966
I4
tp1967
a(I6
S'aux'
p1968
I5
tp1969
a(I6
g17
I6
tp1970
a(I6
S'advmod'
p1971
I7
tp1972
a(I6
S'dobj'
p1973
I8
tp1974
a(I10
S'det'
p1975
I9
tp1976
a(I8
S'appos'
p1977
I10
tp1978
a(I12
S'advmod'
p1979
I11
tp1980
a(I10
S'amod'
p1981
I12
tp1982
a(I14
S'case'
p1983
I13
tp1984
a(I10
S'nmod'
p1985
I14
tp1986
a(I16
S'case'
p1987
I15
tp1988
a(I14
S'nmod'
p1989
I16
tp1990
a(I16
S'case'
p1991
I16
tp1992
a(I16
S'nmod'
p1993
I16
tp1994
a(I16
S'name'
p1995
I16
tp1996
a(I18
S'case'
p1997
I17
tp1998
a(I16
S'nmod'
p1999
I18
tp2000
a(I20
S'case'
p2001
I19
tp2002
a(I18
S'nmod'
p2003
I20
tp2004
a(I10
S'punct'
p2005
I21
tp2006
a(I24
S'nsubj'
p2007
I22
tp2008
a(I24
S'aux'
p2009
I23
tp2010
a(I10
S'acl:relcl'
p2011
I24
tp2012
a(I26
S'det'
p2013
I25
tp2014
a(I24
S'dobj'
p2015
I26
tp2016
a(I26
S'amod'
p2017
I27
tp2018
a(I29
S'case'
p2019
I28
tp2020
a(I26
S'nmod'
p2021
I29
tp2022
a(I29
S'amod'
p2023
I29
tp2024
a(I29
S'case'
p2025
I29
tp2026
a(I29
S'nmod'
p2027
I29
tp2028
a(I29
S'name'
p2029
I29
tp2030
a(I29
S'acl'
p2031
I30
tp2032
a(I24
S'punct'
p2033
I31
tp2034
a(I34
S'case'
p2035
I32
tp2036
a(I34
S'det'
p2037
I33
tp2038
a(I24
S'nmod'
p2039
I34
tp2040
a(I34
S'punct'
p2041
I35
tp2042
a(I37
S'case'
p2043
I36
tp2044
a(I34
S'nmod'
p2045
I37
tp2046
a(I6
S'punct'
p2047
I38
tp2048
aa(lp2049
(I1
S'mark'
p2050
I0
tp2051
a(I3
S'advcl'
p2052
I1
tp2053
a(I3
S'aux'
p2054
I2
tp2055
a(I3
g17
I3
tp2056
a(I5
S'det'
p2057
I4
tp2058
a(I3
S'dobj'
p2059
I5
tp2060
a(I8
S'dobj'
p2061
I6
tp2062
a(I8
S'det'
p2063
I7
tp2064
a(I8
S'nsubj'
p2065
I8
tp2066
a(I5
S'acl:relcl'
p2067
I8
tp2068
a(I10
S'mark'
p2069
I9
tp2070
a(I8
S'xcomp'
p2071
I10
tp2072
a(I12
S'case'
p2073
I11
tp2074
a(I10
S'nmod'
p2075
I12
tp2076
a(I14
S'case'
p2077
I13
tp2078
a(I12
S'nmod'
p2079
I14
tp2080
a(I16
S'case'
p2081
I15
tp2082
a(I14
S'nmod'
p2083
I16
tp2084
a(I16
S'cc'
p2085
I17
tp2086
a(I19
S'case'
p2087
I18
tp2088
a(I16
S'conj'
p2089
I19
tp2090
a(I3
S'cc'
p2091
I20
tp2092
a(I3
S'conj'
p2093
I21
tp2094
a(I24
S'mark'
p2095
I22
tp2096
a(I24
S'aux'
p2097
I23
tp2098
a(I21
S'xcomp'
p2099
I24
tp2100
a(I21
S'punct'
p2101
I25
tp2102
a(I28
S'case'
p2103
I26
tp2104
a(I28
S'det:poss'
p2105
I27
tp2106
a(I21
S'nmod'
p2107
I28
tp2108
a(I28
S'punct'
p2109
I29
tp2110
a(I31
S'mark'
p2111
I30
tp2112
a(I28
S'acl'
p2113
I31
tp2114
a(I33
S'case'
p2115
I32
tp2116
a(I31
S'nmod'
p2117
I33
tp2118
a(I35
S'det'
p2119
I34
tp2120
a(I31
S'dobj'
p2121
I35
tp2122
a(I35
S'amod'
p2123
I36
tp2124
a(I31
S'punct'
p2125
I37
tp2126
a(I41
S'advmod'
p2127
I38
tp2128
a(I41
S'case'
p2129
I39
tp2130
a(I39
S'mwe'
p2131
I40
tp2132
a(I31
S'nmod'
p2133
I41
tp2134
a(I43
S'case'
p2135
I42
tp2136
a(I48
S'nmod'
p2137
I43
tp2138
a(I45
S'det'
p2139
I44
tp2140
a(I48
S'nsubj'
p2141
I45
tp2142
a(I48
S'expl'
p2143
I46
tp2144
a(I48
S'aux'
p2145
I47
tp2146
a(I41
S'acl:relcl'
p2147
I48
tp2148
a(I50
S'case'
p2149
I49
tp2150
a(I48
S'nmod'
p2151
I50
tp2152
a(I3
S'punct'
p2153
I51
tp2154
aa(lp2155
(I8
S'nsubj'
p2156
I0
tp2157
a(I0
S'compound'
p2158
I1
tp2159
a(I3
S'case'
p2160
I2
tp2161
a(I0
S'nmod'
p2162
I3
tp2163
a(I5
S'case'
p2164
I4
tp2165
a(I3
S'nmod'
p2166
I5
tp2167
a(I0
S'punct'
p2168
I6
tp2169
a(I8
S'dobj'
p2170
I7
tp2171
a(I8
g17
I8
tp2172
a(I8
S'advmod'
p2173
I9
tp2174
a(I12
S'case'
p2175
I10
tp2176
a(I12
S'det'
p2177
I11
tp2178
a(I8
S'nmod'
p2179
I12
tp2180
a(I14
S'advmod'
p2181
I13
tp2182
a(I12
S'amod'
p2183
I14
tp2184
a(I17
S'nsubj'
p2185
I15
tp2186
a(I17
S'aux'
p2187
I16
tp2188
a(I12
S'acl:relcl'
p2189
I17
tp2190
a(I20
S'case'
p2191
I18
tp2192
a(I20
S'det'
p2193
I19
tp2194
a(I17
S'nmod'
p2195
I20
tp2196
a(I17
S'advcl'
p2197
I21
tp2198
a(I23
S'det'
p2199
I22
tp2200
a(I21
S'dobj'
p2201
I23
tp2202
a(I33
S'mark'
p2203
I24
tp2204
a(I33
S'punct'
p2205
I25
tp2206
a(I29
S'mark'
p2207
I26
tp2208
a(I29
S'advmod'
p2209
I27
tp2210
a(I29
S'aux'
p2211
I28
tp2212
a(I33
S'advcl'
p2213
I29
tp2214
a(I29
S'punct'
p2215
I30
tp2216
a(I33
S'aux'
p2217
I31
tp2218
a(I33
S'auxpass'
p2219
I32
tp2220
a(I23
S'acl'
p2221
I33
tp2222
a(I8
S'punct'
p2223
I34
tp2224
aa(lp2225
(I1
S'expl'
p2226
I0
tp2227
a(I1
g17
I1
tp2228
a(I1
S'dobj'
p2229
I2
tp2230
a(I4
S'case'
p2231
I3
tp2232
a(I2
S'nmod'
p2233
I4
tp2234
a(I4
S'acl'
p2235
I5
tp2236
a(I7
S'case'
p2237
I6
tp2238
a(I5
S'nmod'
p2239
I7
tp2240
a(I10
S'case'
p2241
I8
tp2242
a(I10
S'amod'
p2243
I9
tp2244
a(I7
S'nmod'
p2245
I10
tp2246
a(I1
S'punct'
p2247
I11
tp2248
a(I1
S'cc'
p2249
I12
tp2250
a(I14
S'aux'
p2251
I13
tp2252
a(I1
S'conj'
p2253
I14
tp2254
a(I16
S'case'
p2255
I15
tp2256
a(I14
S'nmod'
p2257
I16
tp2258
a(I21
S'mark'
p2259
I17
tp2260
a(I20
S'case'
p2261
I18
tp2262
a(I20
S'det'
p2263
I19
tp2264
a(I21
S'nmod'
p2265
I20
tp2266
a(I16
S'advcl'
p2267
I21
tp2268
a(I21
S'csubj'
p2269
I22
tp2270
a(I22
S'advmod'
p2271
I23
tp2272
a(I26
S'det'
p2273
I24
tp2274
a(I26
S'amod'
p2275
I25
tp2276
a(I22
S'dobj'
p2277
I26
tp2278
a(I22
S'cc'
p2279
I27
tp2280
a(I22
S'conj'
p2281
I28
tp2282
a(I30
S'mark'
p2283
I29
tp2284
a(I28
S'xcomp'
p2285
I30
tp2286
a(I33
S'case'
p2287
I31
tp2288
a(I33
S'det'
p2289
I32
tp2290
a(I30
S'nmod'
p2291
I33
tp2292
a(I21
S'punct'
p2293
I34
tp2294
a(I39
S'mark'
p2295
I35
tp2296
a(I39
S'neg'
p2297
I36
tp2298
a(I39
S'aux'
p2299
I37
tp2300
a(I39
S'dobj'
p2301
I38
tp2302
a(I21
S'advcl'
p2303
I39
tp2304
a(I41
S'mark'
p2305
I40
tp2306
a(I39
S'xcomp'
p2307
I41
tp2308
a(I1
S'punct'
p2309
I42
tp2310
aa(lp2311
(I5
S'vocative'
p2312
I0
tp2313
a(I0
S'compound'
p2314
I1
tp2315
a(I0
S'punct'
p2316
I2
tp2317
a(I5
S'aux'
p2318
I3
tp2319
a(I5
S'advmod'
p2320
I4
tp2321
a(I5
g17
I5
tp2322
a(I10
S'mark'
p2323
I6
tp2324
a(I10
S'cop'
p2325
I7
tp2326
a(I10
S'advmod'
p2327
I8
tp2328
a(I10
S'case'
p2329
I9
tp2330
a(I5
S'ccomp'
p2331
I10
tp2332
a(I12
S'case'
p2333
I11
tp2334
a(I10
S'nmod'
p2335
I12
tp2336
a(I14
S'case'
p2337
I13
tp2338
a(I12
S'nmod'
p2339
I14
tp2340
a(I14
S'amod'
p2341
I15
tp2342
a(I14
S'cc'
p2343
I16
tp2344
a(I21
S'nsubj'
p2345
I17
tp2346
a(I19
S'det'
p2347
I18
tp2348
a(I21
S'nsubj'
p2349
I19
tp2350
a(I21
S'expl'
p2351
I20
tp2352
a(I14
S'conj'
p2353
I21
tp2354
a(I21
S'punct'
p2355
I22
tp2356
a(I24
S'case'
p2357
I23
tp2358
a(I21
S'nmod'
p2359
I24
tp2360
a(I26
S'case'
p2361
I25
tp2362
a(I24
S'nmod'
p2363
I26
tp2364
a(I29
S'case'
p2365
I27
tp2366
a(I29
S'det'
p2367
I28
tp2368
a(I26
S'nmod'
p2369
I29
tp2370
a(I29
S'cc'
p2371
I30
tp2372
a(I32
S'case'
p2373
I31
tp2374
a(I29
S'conj'
p2375
I32
tp2376
a(I34
S'case'
p2377
I33
tp2378
a(I32
S'nmod'
p2379
I34
tp2380
a(I36
S'case'
p2381
I35
tp2382
a(I34
S'nmod'
p2383
I36
tp2384
a(I36
S'amod'
p2385
I37
tp2386
a(I39
S'case'
p2387
I38
tp2388
a(I36
S'nmod'
p2389
I39
tp2390
a(I41
S'case'
p2391
I40
tp2392
a(I39
S'nmod'
p2393
I41
tp2394
a(I41
S'cc'
p2395
I42
tp2396
a(I41
S'conj'
p2397
I43
tp2398
a(I43
S'amod'
p2399
I44
tp2400
a(I21
S'punct'
p2401
I45
tp2402
a(I47
S'mark'
p2403
I46
tp2404
a(I21
S'advcl'
p2405
I47
tp2406
a(I47
S'advmod'
p2407
I48
tp2408
a(I51
S'case'
p2409
I49
tp2410
a(I51
S'det'
p2411
I50
tp2412
a(I47
S'nmod'
p2413
I51
tp2414
a(I51
S'acl'
p2415
I52
tp2416
a(I54
S'det'
p2417
I53
tp2418
a(I52
S'dobj'
p2419
I54
tp2420
a(I56
S'case'
p2421
I55
tp2422
a(I54
S'nmod'
p2423
I56
tp2424
a(I56
S'amod'
p2425
I57
tp2426
a(I54
S'acl'
p2427
I58
tp2428
a(I61
S'det'
p2429
I59
tp2430
a(I61
S'amod'
p2431
I60
tp2432
a(I58
S'dobj'
p2433
I61
tp2434
a(I63
S'case'
p2435
I62
tp2436
a(I61
S'nmod'
p2437
I63
tp2438
a(I58
S'cc'
p2439
I64
tp2440
a(I66
S'case'
p2441
I65
tp2442
a(I58
S'conj'
p2443
I66
tp2444
a(I68
S'det'
p2445
I67
tp2446
a(I66
S'dobj'
p2447
I68
tp2448
a(I68
S'amod'
p2449
I69
tp2450
a(I5
S'punct'
p2451
I70
tp2452
aa(lp2453
(I0
g17
I0
tp2454
a(I36
S'mark'
p2455
I1
tp2456
a(I36
S'punct'
p2457
I2
tp2458
a(I5
S'advmod'
p2459
I3
tp2460
a(I5
S'mark'
p2461
I4
tp2462
a(I36
S'advcl'
p2463
I5
tp2464
a(I7
S'case'
p2465
I6
tp2466
a(I5
S'nmod'
p2467
I7
tp2468
a(I9
S'det'
p2469
I8
tp2470
a(I5
S'dobj'
p2471
I9
tp2472
a(I11
S'mark'
p2473
I10
tp2474
a(I9
S'acl'
p2475
I11
tp2476
a(I13
S'case'
p2477
I12
tp2478
a(I11
S'nmod'
p2479
I13
tp2480
a(I15
S'case'
p2481
I14
tp2482
a(I13
S'nmod'
p2483
I15
tp2484
a(I15
S'name'
p2485
I15
tp2486
a(I17
S'det'
p2487
I16
tp2488
a(I11
S'dobj'
p2489
I17
tp2490
a(I19
S'case'
p2491
I18
tp2492
a(I17
S'nmod'
p2493
I19
tp2494
a(I21
S'case'
p2495
I20
tp2496
a(I17
S'nmod'
p2497
I21
tp2498
a(I23
S'case'
p2499
I22
tp2500
a(I21
S'nmod'
p2501
I23
tp2502
a(I23
S'cc'
p2503
I24
tp2504
a(I26
S'case'
p2505
I25
tp2506
a(I23
S'conj'
p2507
I26
tp2508
a(I28
S'case'
p2509
I27
tp2510
a(I17
S'nmod'
p2511
I28
tp2512
a(I30
S'case'
p2513
I29
tp2514
a(I28
S'nmod'
p2515
I30
tp2516
a(I32
S'case'
p2517
I31
tp2518
a(I28
S'nmod'
p2519
I32
tp2520
a(I32
S'amod'
p2521
I33
tp2522
a(I5
S'punct'
p2523
I34
tp2524
a(I36
S'aux'
p2525
I35
tp2526
a(I0
S'ccomp'
p2527
I36
tp2528
a(I38
S'mark'
p2529
I37
tp2530
a(I36
S'xcomp'
p2531
I38
tp2532
a(I42
S'mark'
p2533
I39
tp2534
a(I42
S'auxpass'
p2535
I40
tp2536
a(I42
S'mark'
p2537
I41
tp2538
a(I38
S'ccomp'
p2539
I42
tp2540
a(I42
S'punct'
p2541
I43
tp2542
a(I46
S'case'
p2543
I44
tp2544
a(I46
S'det'
p2545
I45
tp2546
a(I42
S'nmod'
p2547
I46
tp2548
a(I42
S'punct'
p2549
I47
tp2550
a(I42
S'nsubjpass'
p2551
I48
tp2552
a(I48
S'amod'
p2553
I49
tp2554
a(I51
S'mark'
p2555
I50
tp2556
a(I48
S'acl'
p2557
I51
tp2558
a(I48
S'punct'
p2559
I52
tp2560
a(I54
S'case'
p2561
I53
tp2562
a(I48
S'nmod'
p2563
I54
tp2564
a(I54
S'punct'
p2565
I55
tp2566
a(I57
S'det'
p2567
I56
tp2568
a(I54
S'conj'
p2569
I57
tp2570
a(I59
S'case'
p2571
I58
tp2572
a(I57
S'nmod'
p2573
I59
tp2574
a(I54
S'cc'
p2575
I60
tp2576
a(I62
S'det'
p2577
I61
tp2578
a(I54
S'conj'
p2579
I62
tp2580
a(I64
S'case'
p2581
I63
tp2582
a(I62
S'nmod'
p2583
I64
tp2584
a(I66
S'case'
p2585
I65
tp2586
a(I64
S'nmod'
p2587
I66
tp2588
a(I54
S'acl'
p2589
I67
tp2590
a(I54
S'punct'
p2591
I68
tp2592
a(I71
S'case'
p2593
I69
tp2594
a(I71
S'det'
p2595
I70
tp2596
a(I54
S'conj'
p2597
I71
tp2598
a(I54
S'punct'
p2599
I72
tp2600
a(I75
S'case'
p2601
I73
tp2602
a(I75
S'amod'
p2603
I74
tp2604
a(I54
S'conj'
p2605
I75
tp2606
a(I77
S'case'
p2607
I76
tp2608
a(I75
S'nmod'
p2609
I77
tp2610
a(I0
S'punct'
p2611
I78
tp2612
aa(lp2613
(I0
g17
I0
tp2614
a(I5
S'mark'
p2615
I1
tp2616
a(I5
S'nsubj'
p2617
I2
tp2618
a(I2
S'amod'
p2619
I3
tp2620
a(I5
S'aux'
p2621
I4
tp2622
a(I0
S'ccomp'
p2623
I5
tp2624
a(I7
S'case'
p2625
I6
tp2626
a(I5
S'nmod'
p2627
I7
tp2628
a(I7
S'acl'
p2629
I8
tp2630
a(I8
S'cc'
p2631
I9
tp2632
a(I11
S'case'
p2633
I10
tp2634
a(I8
S'conj'
p2635
I11
tp2636
a(I11
S'acl'
p2637
I12
tp2638
a(I14
S'case'
p2639
I13
tp2640
a(I12
S'nmod'
p2641
I14
tp2642
a(I14
S'acl'
p2643
I15
tp2644
a(I17
S'case'
p2645
I16
tp2646
a(I15
S'nmod'
p2647
I17
tp2648
a(I19
S'case'
p2649
I18
tp2650
a(I15
S'nmod'
p2651
I19
tp2652
a(I21
S'mark'
p2653
I20
tp2654
a(I19
S'acl'
p2655
I21
tp2656
a(I21
S'advmod'
p2657
I22
tp2658
a(I25
S'case'
p2659
I23
tp2660
a(I23
S'mwe'
p2661
I24
tp2662
a(I21
S'nmod'
p2663
I25
tp2664
a(I25
S'amod'
p2665
I25
tp2666
a(I25
S'punct'
p2667
I26
tp2668
a(I28
S'case'
p2669
I27
tp2670
a(I25
S'nmod'
p2671
I28
tp2672
a(I28
S'amod'
p2673
I29
tp2674
a(I31
S'det'
p2675
I30
tp2676
a(I28
S'nmod'
p2677
I31
tp2678
a(I31
S'punct'
p2679
I32
tp2680
a(I34
S'det'
p2681
I33
tp2682
a(I31
S'conj'
p2683
I34
tp2684
a(I36
S'case'
p2685
I35
tp2686
a(I34
S'nmod'
p2687
I36
tp2688
a(I38
S'case'
p2689
I37
tp2690
a(I36
S'nmod'
p2691
I38
tp2692
a(I36
S'cc'
p2693
I39
tp2694
a(I41
S'case'
p2695
I40
tp2696
a(I36
S'conj'
p2697
I41
tp2698
a(I41
S'acl'
p2699
I42
tp2700
a(I44
S'case'
p2701
I43
tp2702
a(I42
S'nmod'
p2703
I44
tp2704
a(I0
S'punct'
p2705
I45
tp2706
aa(lp2707
(I0
g17
I0
tp2708
a(I5
S'mark'
p2709
I1
tp2710
a(I3
S'det'
p2711
I2
tp2712
a(I5
S'nsubj'
p2713
I3
tp2714
a(I5
S'aux'
p2715
I4
tp2716
a(I0
S'ccomp'
p2717
I5
tp2718
a(I7
S'det'
p2719
I6
tp2720
a(I5
S'dobj'
p2721
I7
tp2722
a(I7
S'amod'
p2723
I8
tp2724
a(I10
S'case'
p2725
I9
tp2726
a(I5
S'nmod'
p2727
I10
tp2728
a(I5
S'cc'
p2729
I11
tp2730
a(I61
S'mark'
p2731
I12
tp2732
a(I14
S'det'
p2733
I13
tp2734
a(I61
S'nsubj'
p2735
I14
tp2736
a(I24
S'mark'
p2737
I15
tp2738
a(I24
S'punct'
p2739
I16
tp2740
a(I19
S'advmod'
p2741
I17
tp2742
a(I19
S'case'
p2743
I18
tp2744
a(I24
S'nmod'
p2745
I19
tp2746
a(I21
S'case'
p2747
I20
tp2748
a(I19
S'nmod'
p2749
I21
tp2750
a(I21
S'amod'
p2751
I21
tp2752
a(I19
S'punct'
p2753
I22
tp2754
a(I24
S'expl'
p2755
I23
tp2756
a(I61
S'advcl'
p2757
I24
tp2758
a(I24
S'punct'
p2759
I25
tp2760
a(I28
S'case'
p2761
I26
tp2762
a(I28
S'det'
p2763
I27
tp2764
a(I24
S'nmod'
p2765
I28
tp2766
a(I28
S'nmod'
p2767
I29
tp2768
a(I32
S'case'
p2769
I30
tp2770
a(I32
S'amod'
p2771
I31
tp2772
a(I29
S'nmod'
p2773
I32
tp2774
a(I34
S'case'
p2775
I33
tp2776
a(I32
S'nmod'
p2777
I34
tp2778
a(I24
S'punct'
p2779
I35
tp2780
a(I37
S'det'
p2781
I36
tp2782
a(I24
S'dobj'
p2783
I37
tp2784
a(I39
S'case'
p2785
I38
tp2786
a(I37
S'nmod'
p2787
I39
tp2788
a(I37
S'acl'
p2789
I40
tp2790
a(I42
S'case'
p2791
I41
tp2792
a(I40
S'nmod'
p2793
I42
tp2794
a(I44
S'det'
p2795
I43
tp2796
a(I40
S'dobj'
p2797
I44
tp2798
a(I40
S'punct'
p2799
I45
tp2800
a(I47
S'case'
p2801
I46
tp2802
a(I40
S'nmod'
p2803
I47
tp2804
a(I49
S'case'
p2805
I48
tp2806
a(I47
S'nmod'
p2807
I49
tp2808
a(I51
S'case'
p2809
I50
tp2810
a(I49
S'nmod'
p2811
I51
tp2812
a(I51
S'cc'
p2813
I52
tp2814
a(I51
S'conj'
p2815
I53
tp2816
a(I53
S'amod'
p2817
I54
tp2818
a(I49
S'cc'
p2819
I55
tp2820
a(I58
S'case'
p2821
I56
tp2822
a(I58
S'amod'
p2823
I57
tp2824
a(I49
S'conj'
p2825
I58
tp2826
a(I24
S'punct'
p2827
I59
tp2828
a(I61
S'aux'
p2829
I60
tp2830
a(I5
S'conj'
p2831
I61
tp2832
a(I64
S'advmod'
p2833
I62
tp2834
a(I64
S'case'
p2835
I63
tp2836
a(I61
S'advmod'
p2837
I64
tp2838
a(I66
S'mark'
p2839
I65
tp2840
a(I61
S'xcomp'
p2841
I66
tp2842
a(I68
S'det'
p2843
I67
tp2844
a(I66
S'dobj'
p2845
I68
tp2846
a(I68
S'amod'
p2847
I69
tp2848
a(I66
S'punct'
p2849
I70
tp2850
a(I72
S'case'
p2851
I71
tp2852
a(I66
S'nmod'
p2853
I72
tp2854
a(I74
S'case'
p2855
I73
tp2856
a(I72
S'nmod'
p2857
I74
tp2858
a(I76
S'case'
p2859
I75
tp2860
a(I74
S'nmod'
p2861
I76
tp2862
a(I76
S'amod'
p2863
I77
tp2864
a(I72
S'punct'
p2865
I78
tp2866
a(I86
S'mark'
p2867
I79
tp2868
a(I81
S'det'
p2869
I80
tp2870
a(I86
S'nsubjpass'
p2871
I81
tp2872
a(I81
S'compound'
p2873
I82
tp2874
a(I84
S'case'
p2875
I83
tp2876
a(I81
S'nmod'
p2877
I84
tp2878
a(I86
S'auxpass'
p2879
I85
tp2880
a(I72
S'advcl'
p2881
I86
tp2882
a(I88
S'mark'
p2883
I87
tp2884
a(I86
S'xcomp'
p2885
I88
tp2886
a(I0
S'punct'
p2887
I89
tp2888
aa(lp2889
(I1
S'case'
p2890
I0
tp2891
a(I13
S'nmod'
p2892
I1
tp2893
a(I3
S'case'
p2894
I2
tp2895
a(I1
S'nmod'
p2896
I3
tp2897
a(I3
S'acl'
p2898
I4
tp2899
a(I6
S'case'
p2900
I5
tp2901
a(I4
S'nmod'
p2902
I6
tp2903
a(I9
S'case'
p2904
I7
tp2905
a(I9
S'det'
p2906
I8
tp2907
a(I1
S'nmod'
p2908
I9
tp2909
a(I9
S'amod'
p2910
I10
tp2911
a(I1
S'punct'
p2912
I11
tp2913
a(I13
S'aux'
p2914
I12
tp2915
a(I13
g17
I13
tp2916
a(I16
S'case'
p2917
I14
tp2918
a(I16
S'det'
p2919
I15
tp2920
a(I13
S'nmod'
p2921
I16
tp2922
a(I16
S'acl'
p2923
I17
tp2924
a(I13
S'punct'
p2925
I18
tp2926
aa(lp2927
(I1
S'case'
p2928
I0
tp2929
a(I6
S'nmod'
p2930
I1
tp2931
a(I1
S'punct'
p2932
I2
tp2933
a(I4
S'det'
p2934
I3
tp2935
a(I6
S'nsubj'
p2936
I4
tp2937
a(I6
S'aux'
p2938
I5
tp2939
a(I6
g17
I6
tp2940
a(I6
S'dobj'
p2941
I7
tp2942
a(I7
S'nmod'
p2943
I8
tp2944
a(I10
S'case'
p2945
I9
tp2946
a(I8
S'nmod'
p2947
I10
tp2948
a(I10
S'punct'
p2949
I11
tp2950
a(I15
S'mark'
p2951
I12
tp2952
a(I15
S'expl'
p2953
I13
tp2954
a(I15
S'aux'
p2955
I14
tp2956
a(I10
S'advcl'
p2957
I15
tp2958
a(I15
S'punct'
p2959
I16
tp2960
a(I15
S'conj'
p2961
I17
tp2962
a(I19
S'case'
p2963
I18
tp2964
a(I17
S'nmod'
p2965
I19
tp2966
a(I21
S'punct'
p2967
I20
tp2968
a(I19
S'amod'
p2969
I21
tp2970
a(I21
S'punct'
p2971
I22
tp2972
a(I15
S'punct'
p2973
I23
tp2974
a(I15
S'cc'
p2975
I24
tp2976
a(I26
S'expl'
p2977
I25
tp2978
a(I15
S'conj'
p2979
I26
tp2980
a(I26
S'dobj'
p2981
I27
tp2982
a(I29
S'mark'
p2983
I28
tp2984
a(I26
S'advcl'
p2985
I29
tp2986
a(I31
S'case'
p2987
I30
tp2988
a(I29
S'nmod'
p2989
I31
tp2990
a(I31
S'compound'
p2991
I32
tp2992
a(I34
S'mark'
p2993
I33
tp2994
a(I29
S'advcl'
p2995
I34
tp2996
a(I37
S'case'
p2997
I35
tp2998
a(I37
S'det'
p2999
I36
tp3000
a(I34
S'nmod'
p3001
I37
tp3002
a(I37
S'compound'
p3003
I38
tp3004
a(I40
S'case'
p3005
I39
tp3006
a(I38
S'nmod'
p3007
I40
tp3008
a(I6
S'punct'
p3009
I41
tp3010
aa(lp3011
(I5
S'advmod'
p3012
I0
tp3013
a(I0
S'punct'
p3014
I1
tp3015
a(I3
S'det'
p3016
I2
tp3017
a(I5
S'nsubj'
p3018
I3
tp3019
a(I5
S'aux'
p3020
I4
tp3021
a(I5
g17
I5
tp3022
a(I8
S'mark'
p3023
I6
tp3024
a(I8
S'nsubj'
p3025
I7
tp3026
a(I5
S'ccomp'
p3027
I8
tp3028
a(I10
S'case'
p3029
I9
tp3030
a(I8
S'nmod'
p3031
I10
tp3032
a(I10
S'amod'
p3033
I11
tp3034
a(I13
S'case'
p3035
I12
tp3036
a(I10
S'nmod'
p3037
I13
tp3038
a(I13
S'amod'
p3039
I14
tp3040
a(I5
S'punct'
p3041
I15
tp3042
a(I17
S'case'
p3043
I16
tp3044
a(I18
S'mark'
p3045
I17
tp3046
a(I5
S'advcl'
p3047
I18
tp3048
a(I18
S'ccomp'
p3049
I19
tp3050
a(I19
S'dobj'
p3051
I20
tp3052
a(I20
S'amod'
p3053
I21
tp3054
a(I23
S'case'
p3055
I22
tp3056
a(I19
S'nmod'
p3057
I23
tp3058
a(I5
S'punct'
p3059
I24
tp3060
aa(lp3061
(I1
S'det'
p3062
I0
tp3063
a(I2
S'nsubj'
p3064
I1
tp3065
a(I2
g17
I2
tp3066
a(I4
S'det'
p3067
I3
tp3068
a(I2
S'dobj'
p3069
I4
tp3070
a(I7
S'case'
p3071
I5
tp3072
a(I7
S'det:poss'
p3073
I6
tp3074
a(I2
S'nmod'
p3075
I7
tp3076
a(I10
S'case'
p3077
I8
tp3078
a(I10
S'det'
p3079
I9
tp3080
a(I7
S'nmod'
p3081
I10
tp3082
a(I12
S'case'
p3083
I11
tp3084
a(I2
S'nmod'
p3085
I12
tp3086
a(I14
S'case'
p3087
I13
tp3088
a(I12
S'nmod'
p3089
I14
tp3090
a(I16
S'case'
p3091
I15
tp3092
a(I14
S'nmod'
p3093
I16
tp3094
a(I18
S'case'
p3095
I17
tp3096
a(I16
S'nmod'
p3097
I18
tp3098
a(I20
S'case'
p3099
I19
tp3100
a(I21
S'nmod'
p3101
I20
tp3102
a(I12
S'acl'
p3103
I21
tp3104
a(I2
S'punct'
p3105
I22
tp3106
aa(lp3107
(I1
S'dobj'
p3108
I0
tp3109
a(I1
g17
I1
tp3110
a(I4
S'case'
p3111
I2
tp3112
a(I4
S'det'
p3113
I3
tp3114
a(I1
S'nmod'
p3115
I4
tp3116
a(I1
S'punct'
p3117
I5
tp3118
a(I1
S'nsubj'
p3119
I6
tp3120
a(I6
S'amod'
p3121
I7
tp3122
a(I1
S'punct'
p3123
I8
tp3124
a(I1
S'cc'
p3125
I9
tp3126
a(I11
S'advmod'
p3127
I10
tp3128
a(I1
S'conj'
p3129
I11
tp3130
a(I13
S'mark'
p3131
I12
tp3132
a(I11
S'advcl'
p3133
I13
tp3134
a(I15
S'det'
p3135
I14
tp3136
a(I13
S'dobj'
p3137
I15
tp3138
a(I18
S'case'
p3139
I16
tp3140
a(I18
S'det'
p3141
I17
tp3142
a(I15
S'nmod'
p3143
I18
tp3144
a(I18
S'acl'
p3145
I19
tp3146
a(I21
S'case'
p3147
I20
tp3148
a(I19
S'nmod'
p3149
I21
tp3150
a(I23
S'case'
p3151
I22
tp3152
a(I19
S'nmod'
p3153
I23
tp3154
a(I23
S'amod'
p3155
I23
tp3156
a(I25
S'case'
p3157
I24
tp3158
a(I23
S'nmod'
p3159
I25
tp3160
a(I1
S'punct'
p3161
I26
tp3162
aa(lp3163
(I1
S'aux'
p3164
I0
tp3165
a(I1
g17
I1
tp3166
a(I3
S'det'
p3167
I2
tp3168
a(I1
S'dobj'
p3169
I3
tp3170
a(I5
S'case'
p3171
I4
tp3172
a(I3
S'nmod'
p3173
I5
tp3174
a(I8
S'case'
p3175
I6
tp3176
a(I8
S'det'
p3177
I7
tp3178
a(I3
S'nmod'
p3179
I8
tp3180
a(I8
S'amod'
p3181
I9
tp3182
a(I13
S'advmod'
p3183
I10
tp3184
a(I13
S'case'
p3185
I11
tp3186
a(I13
S'nummod'
p3187
I12
tp3188
a(I3
S'nmod'
p3189
I13
tp3190
a(I13
S'advmod'
p3191
I14
tp3192
a(I1
S'punct'
p3193
I15
tp3194
a(I17
S'neg'
p3195
I16
tp3196
a(I19
S'advmod'
p3197
I17
tp3198
a(I19
S'case'
p3199
I18
tp3200
a(I1
S'nmod'
p3201
I19
tp3202
a(I21
S'case'
p3203
I20
tp3204
a(I19
S'nmod'
p3205
I21
tp3206
a(I23
S'case'
p3207
I22
tp3208
a(I21
S'nmod'
p3209
I23
tp3210
a(I1
S'punct'
p3211
I24
tp3212
a(I1
S'conj'
p3213
I25
tp3214
a(I28
S'advmod'
p3215
I26
tp3216
a(I28
S'case'
p3217
I27
tp3218
a(I25
S'nmod'
p3219
I28
tp3220
a(I30
S'case'
p3221
I29
tp3222
a(I28
S'nmod'
p3223
I30
tp3224
a(I30
S'acl'
p3225
I31
tp3226
a(I1
S'punct'
p3227
I32
tp3228
aa(lp3229
(I1
S'cop'
p3230
I0
tp3231
a(I1
g17
I1
tp3232
a(I6
S'dobj'
p3233
I2
tp3234
a(I4
S'det'
p3235
I3
tp3236
a(I6
S'nsubj'
p3237
I4
tp3238
a(I4
S'amod'
p3239
I5
tp3240
a(I1
S'acl:relcl'
p3241
I6
tp3242
a(I8
S'mark'
p3243
I7
tp3244
a(I6
S'ccomp'
p3245
I8
tp3246
a(I12
S'case'
p3247
I9
tp3248
a(I12
S'det'
p3249
I10
tp3250
a(I12
S'amod'
p3251
I11
tp3252
a(I8
S'nmod'
p3253
I12
tp3254
a(I12
S'cc'
p3255
I13
tp3256
a(I20
S'mark'
p3257
I14
tp3258
a(I20
S'punct'
p3259
I15
tp3260
a(I17
S'case'
p3261
I16
tp3262
a(I20
S'nmod'
p3263
I17
tp3264
a(I20
S'aux'
p3265
I18
tp3266
a(I20
S'aux'
p3267
I19
tp3268
a(I12
S'conj'
p3269
I20
tp3270
a(I20
S'punct'
p3271
I21
tp3272
a(I24
S'case'
p3273
I22
tp3274
a(I24
S'det:poss'
p3275
I23
tp3276
a(I20
S'nmod'
p3277
I24
tp3278
a(I24
S'acl'
p3279
I25
tp3280
a(I28
S'case'
p3281
I26
tp3282
a(I28
S'det'
p3283
I27
tp3284
a(I25
S'nmod'
p3285
I28
tp3286
a(I30
S'case'
p3287
I29
tp3288
a(I28
S'nmod'
p3289
I30
tp3290
a(I30
S'amod'
p3291
I31
tp3292
a(I33
S'nsubj'
p3293
I32
tp3294
a(I30
S'acl:relcl'
p3295
I33
tp3296
a(I35
S'det'
p3297
I34
tp3298
a(I33
S'dobj'
p3299
I35
tp3300
a(I37
S'case'
p3301
I36
tp3302
a(I35
S'nmod'
p3303
I37
tp3304
a(I1
S'punct'
p3305
I38
tp3306
aa(lp3307
(I1
S'det'
p3308
I0
tp3309
a(I1
g17
I1
tp3310
a(I3
S'case'
p3311
I2
tp3312
a(I1
S'nmod'
p3313
I3
tp3314
a(I3
S'amod'
p3315
I4
tp3316
a(I6
S'mark'
p3317
I5
tp3318
a(I1
S'acl'
p3319
I6
tp3320
a(I8
S'det'
p3321
I7
tp3322
a(I6
S'dobj'
p3323
I8
tp3324
a(I6
S'punct'
p3325
I9
tp3326
a(I15
S'mark'
p3327
I10
tp3328
a(I15
S'punct'
p3329
I11
tp3330
a(I13
S'case'
p3331
I12
tp3332
a(I15
S'nmod'
p3333
I13
tp3334
a(I15
S'advmod'
p3335
I14
tp3336
a(I6
S'advcl'
p3337
I15
tp3338
a(I15
S'punct'
p3339
I16
tp3340
a(I18
S'neg'
p3341
I17
tp3342
a(I15
S'conj'
p3343
I18
tp3344
a(I20
S'mark'
p3345
I19
tp3346
a(I18
S'xcomp'
p3347
I20
tp3348
a(I20
S'advmod'
p3349
I21
tp3350
a(I23
S'case'
p3351
I22
tp3352
a(I20
S'nmod'
p3353
I23
tp3354
a(I25
S'case'
p3355
I24
tp3356
a(I23
S'nmod'
p3357
I25
tp3358
a(I28
S'case'
p3359
I26
tp3360
a(I28
S'det:poss'
p3361
I27
tp3362
a(I25
S'nmod'
p3363
I28
tp3364
a(I30
S'case'
p3365
I29
tp3366
a(I20
S'nmod'
p3367
I30
tp3368
a(I32
S'case'
p3369
I31
tp3370
a(I30
S'nummod'
p3371
I32
tp3372
a(I15
S'punct'
p3373
I33
tp3374
a(I36
S'iobj'
p3375
I34
tp3376
a(I36
S'aux'
p3377
I35
tp3378
a(I15
S'conj'
p3379
I36
tp3380
a(I36
S'amod'
p3381
I37
tp3382
a(I1
S'punct'
p3383
I38
tp3384
aa(lp3385
(I0
g17
I0
tp3386
a(I0
S'xcomp'
p3387
I1
tp3388
a(I4
S'det'
p3389
I2
tp3390
a(I4
S'amod'
p3391
I3
tp3392
a(I1
S'dobj'
p3393
I4
tp3394
a(I6
S'case'
p3395
I5
tp3396
a(I4
S'nmod'
p3397
I6
tp3398
a(I6
S'det:poss'
p3399
I7
tp3400
a(I9
S'mark'
p3401
I8
tp3402
a(I7
S'advcl'
p3403
I9
tp3404
a(I11
S'case'
p3405
I10
tp3406
a(I9
S'nmod'
p3407
I11
tp3408
a(I13
S'det'
p3409
I12
tp3410
a(I9
S'dobj'
p3411
I13
tp3412
a(I15
S'case'
p3413
I14
tp3414
a(I13
S'nmod'
p3415
I15
tp3416
a(I0
S'punct'
p3417
I16
tp3418
aa(lp3419
(I0
g17
I0
tp3420
a(I0
S'compound'
p3421
I1
tp3422
a(I1
S'punct'
p3423
I2
tp3424
a(I1
S'conj'
p3425
I3
tp3426
a(I1
S'punct'
p3427
I4
tp3428
a(I6
S'case'
p3429
I5
tp3430
a(I1
S'nmod'
p3431
I6
tp3432
a(I8
S'punct'
p3433
I7
tp3434
a(I6
S'nmod'
p3435
I8
tp3436
a(I8
S'punct'
p3437
I9
tp3438
a(I8
S'nummod'
p3439
I10
tp3440
a(I8
S'punct'
p3441
I11
tp3442
a(I0
S'punct'
p3443
I12
tp3444
aa(lp3445
(I9
S'nmod'
p3446
I0
tp3447
a(I0
S'punct'
p3448
I1
tp3449
a(I9
S'nmod'
p3450
I2
tp3451
a(I2
S'name'
p3452
I3
tp3453
a(I2
S'cc'
p3454
I4
tp3455
a(I2
S'conj'
p3456
I5
tp3457
a(I7
S'case'
p3458
I6
tp3459
a(I9
S'nmod'
p3460
I7
tp3461
a(I7
S'det'
p3462
I7
tp3463
a(I9
S'nsubj'
p3464
I7
tp3465
a(I9
S'aux'
p3466
I8
tp3467
a(I9
g17
I9
tp3468
a(I9
S'punct'
p3469
I10
tp3470
a(I12
S'det'
p3471
I11
tp3472
a(I9
S'nummod'
p3473
I12
tp3474
a(I12
S'nmod'
p3475
I13
tp3476
a(I13
S'amod'
p3477
I14
tp3478
a(I9
S'punct'
p3479
I15
tp3480
a(I17
S'nsubj'
p3481
I16
tp3482
a(I9
S'acl:relcl'
p3483
I17
tp3484
a(I17
S'xcomp'
p3485
I18
tp3486
a(I20
S'det'
p3487
I19
tp3488
a(I18
S'dobj'
p3489
I20
tp3490
a(I22
S'case'
p3491
I21
tp3492
a(I18
S'nmod'
p3493
I22
tp3494
a(I24
S'case'
p3495
I23
tp3496
a(I22
S'nmod'
p3497
I24
tp3498
a(I26
S'case'
p3499
I25
tp3500
a(I18
S'nmod'
p3501
I26
tp3502
a(I28
S'case'
p3503
I27
tp3504
a(I26
S'nmod'
p3505
I28
tp3506
a(I26
S'punct'
p3507
I29
tp3508
a(I31
S'case'
p3509
I30
tp3510
a(I26
S'nmod'
p3511
I31
tp3512
a(I33
S'case'
p3513
I32
tp3514
a(I31
S'nmod'
p3515
I33
tp3516
a(I33
S'nummod'
p3517
I34
tp3518
a(I34
S'cc'
p3519
I35
tp3520
a(I34
S'conj'
p3521
I36
tp3522
a(I38
S'case'
p3523
I37
tp3524
a(I33
S'nmod'
p3525
I38
tp3526
a(I9
S'punct'
p3527
I39
tp3528
aa(lp3529
(I1
S'det'
p3530
I0
tp3531
a(I1
g17
I1
tp3532
a(I1
S'amod'
p3533
I1
tp3534
a(I1
S'punct'
p3535
I2
tp3536
a(I5
S'case'
p3537
I3
tp3538
a(I5
S'det:poss'
p3539
I4
tp3540
a(I1
S'conj'
p3541
I5
tp3542
a(I7
S'case'
p3543
I6
tp3544
a(I5
S'nummod'
p3545
I7
tp3546
a(I7
S'nmod'
p3547
I8
tp3548
a(I8
S'nummod'
p3549
I9
tp3550
a(I11
S'punct'
p3551
I10
tp3552
a(I5
S'acl'
p3553
I11
tp3554
a(I11
S'dobj'
p3555
I12
tp3556
a(I12
S'cc'
p3557
I12
tp3558
a(I12
S'conj'
p3559
I12
tp3560
a(I15
S'mark'
p3561
I13
tp3562
a(I15
S'cop'
p3563
I14
tp3564
a(I11
S'xcomp'
p3565
I15
tp3566
a(I15
S'punct'
p3567
I16
tp3568
a(I18
S'case'
p3569
I17
tp3570
a(I15
S'nmod'
p3571
I18
tp3572
a(I20
S'case'
p3573
I19
tp3574
a(I18
S'nmod'
p3575
I20
tp3576
a(I20
S'amod'
p3577
I21
tp3578
a(I21
S'cc'
p3579
I22
tp3580
a(I21
S'conj'
p3581
I23
tp3582
a(I25
S'case'
p3583
I24
tp3584
a(I20
S'nmod'
p3585
I25
tp3586
a(I28
S'case'
p3587
I26
tp3588
a(I28
S'det'
p3589
I27
tp3590
a(I25
S'nmod'
p3591
I28
tp3592
a(I28
S'compound'
p3593
I29
tp3594
a(I31
S'case'
p3595
I30
tp3596
a(I28
S'nmod'
p3597
I31
tp3598
a(I33
S'case'
p3599
I32
tp3600
a(I35
S'nmod'
p3601
I33
tp3602
a(I35
S'case'
p3603
I34
tp3604
a(I31
S'nmod'
p3605
I35
tp3606
a(I35
S'nummod'
p3607
I36
tp3608
a(I35
S'punct'
p3609
I37
tp3610
a(I35
S'nmod'
p3611
I38
tp3612
a(I38
S'nummod'
p3613
I39
tp3614
a(I41
S'case'
p3615
I40
tp3616
a(I38
S'nmod'
p3617
I41
tp3618
a(I15
S'punct'
p3619
I42
tp3620
a(I44
S'mark'
p3621
I43
tp3622
a(I15
S'advcl'
p3623
I44
tp3624
a(I46
S'det'
p3625
I45
tp3626
a(I44
S'dobj'
p3627
I46
tp3628
a(I48
S'case'
p3629
I47
tp3630
a(I44
S'nmod'
p3631
I48
tp3632
a(I50
S'case'
p3633
I49
tp3634
a(I48
S'nmod'
p3635
I50
tp3636
a(I50
S'nummod'
p3637
I51
tp3638
a(I53
S'case'
p3639
I52
tp3640
a(I50
S'nmod'
p3641
I53
tp3642
a(I55
S'punct'
p3643
I54
tp3644
a(I53
S'punct'
p3645
I55
tp3646
a(I53
S'punct'
p3647
I56
tp3648
a(I56
S'punct'
p3649
I57
tp3650
a(I1
S'punct'
p3651
I58
tp3652
aa(lp3653
(I1
S'case'
p3654
I0
tp3655
a(I7
S'nmod'
p3656
I1
tp3657
a(I1
S'det:poss'
p3658
I2
tp3659
a(I1
S'punct'
p3660
I3
tp3661
a(I5
S'det'
p3662
I4
tp3663
a(I7
S'nsubj'
p3664
I5
tp3665
a(I7
S'aux'
p3666
I6
tp3667
a(I7
g17
I7
tp3668
a(I9
S'case'
p3669
I8
tp3670
a(I7
S'nmod'
p3671
I9
tp3672
a(I9
S'nmod'
p3673
I10
tp3674
a(I10
S'punct'
p3675
I11
tp3676
a(I10
S'nummod'
p3677
I12
tp3678
a(I7
S'punct'
p3679
I13
tp3680
a(I15
S'case'
p3681
I14
tp3682
a(I7
S'nmod'
p3683
I15
tp3684
a(I21
S'mark'
p3685
I16
tp3686
a(I18
S'det'
p3687
I17
tp3688
a(I21
S'nsubj'
p3689
I18
tp3690
a(I21
S'cop'
p3691
I19
tp3692
a(I21
S'det'
p3693
I20
tp3694
a(I15
S'advcl'
p3695
I21
tp3696
a(I23
S'advmod'
p3697
I22
tp3698
a(I21
S'acl'
p3699
I23
tp3700
a(I25
S'case'
p3701
I24
tp3702
a(I23
S'nmod'
p3703
I25
tp3704
a(I27
S'case'
p3705
I26
tp3706
a(I25
S'nmod'
p3707
I27
tp3708
a(I29
S'case'
p3709
I28
tp3710
a(I27
S'nmod'
p3711
I29
tp3712
a(I32
S'case'
p3713
I30
tp3714
a(I32
S'det'
p3715
I31
tp3716
a(I23
S'nmod'
p3717
I32
tp3718
a(I32
S'cc'
p3719
I33
tp3720
a(I35
S'det'
p3721
I34
tp3722
a(I32
S'conj'
p3723
I35
tp3724
a(I38
S'case'
p3725
I36
tp3726
a(I38
S'det:poss'
p3727
I37
tp3728
a(I35
S'nmod'
p3729
I38
tp3730
a(I38
S'amod'
p3731
I39
tp3732
a(I38
S'cc'
p3733
I40
tp3734
a(I38
S'conj'
p3735
I41
tp3736
a(I43
S'case'
p3737
I42
tp3738
a(I41
S'nmod'
p3739
I43
tp3740
a(I45
S'det'
p3741
I44
tp3742
a(I43
S'nmod'
p3743
I45
tp3744
a(I45
S'acl'
p3745
I46
tp3746
a(I48
S'case'
p3747
I47
tp3748
a(I46
S'nmod'
p3749
I48
tp3750
a(I48
S'acl'
p3751
I49
tp3752
a(I52
S'case'
p3753
I50
tp3754
a(I52
S'det'
p3755
I51
tp3756
a(I49
S'nmod'
p3757
I52
tp3758
a(I52
S'cc'
p3759
I53
tp3760
a(I55
S'case'
p3761
I54
tp3762
a(I52
S'conj'
p3763
I55
tp3764
a(I57
S'case'
p3765
I56
tp3766
a(I55
S'nmod'
p3767
I57
tp3768
a(I55
S'amod'
p3769
I58
tp3770
a(I65
S'punct'
p3771
I59
tp3772
a(I65
S'mark'
p3773
I60
tp3774
a(I65
S'punct'
p3775
I61
tp3776
a(I65
S'neg'
p3777
I62
tp3778
a(I65
S'cop'
p3779
I63
tp3780
a(I65
S'det:poss'
p3781
I64
tp3782
a(I45
S'advcl'
p3783
I65
tp3784
a(I65
S'csubj'
p3785
I66
tp3786
a(I69
S'case'
p3787
I67
tp3788
a(I69
S'det'
p3789
I68
tp3790
a(I66
S'nmod'
p3791
I69
tp3792
a(I71
S'case'
p3793
I70
tp3794
a(I69
S'nmod'
p3795
I71
tp3796
a(I73
S'case'
p3797
I72
tp3798
a(I66
S'nmod'
p3799
I73
tp3800
a(I73
S'compound'
p3801
I74
tp3802
a(I65
S'punct'
p3803
I75
tp3804
a(I65
S'punct'
p3805
I76
tp3806
a(I80
S'nsubj'
p3807
I77
tp3808
a(I80
S'punct'
p3809
I78
tp3810
a(I80
S'aux'
p3811
I79
tp3812
a(I65
S'acl:relcl'
p3813
I80
tp3814
a(I82
S'det'
p3815
I81
tp3816
a(I80
S'dobj'
p3817
I82
tp3818
a(I82
S'amod'
p3819
I83
tp3820
a(I85
S'punct'
p3821
I84
tp3822
a(I82
S'nmod'
p3823
I85
tp3824
a(I91
S'punct'
p3825
I86
tp3826
a(I91
S'nsubj'
p3827
I87
tp3828
a(I87
S'amod'
p3829
I88
tp3830
a(I87
S'punct'
p3831
I89
tp3832
a(I91
S'cop'
p3833
I90
tp3834
a(I85
S'acl:relcl'
p3835
I91
tp3836
a(I93
S'case'
p3837
I92
tp3838
a(I91
S'nmod'
p3839
I93
tp3840
a(I95
S'case'
p3841
I94
tp3842
a(I93
S'nmod'
p3843
I95
tp3844
a(I97
S'case'
p3845
I96
tp3846
a(I95
S'nmod'
p3847
I97
tp3848
a(I97
S'amod'
p3849
I98
tp3850
a(I98
S'cc'
p3851
I99
tp3852
a(I98
S'conj'
p3853
I100
tp3854
a(I102
S'case'
p3855
I101
tp3856
a(I97
S'nmod'
p3857
I102
tp3858
a(I105
S'case'
p3859
I103
tp3860
a(I105
S'det'
p3861
I104
tp3862
a(I102
S'nmod'
p3863
I105
tp3864
a(I105
S'nmod'
p3865
I106
tp3866
a(I108
S'case'
p3867
I107
tp3868
a(I106
S'nmod'
p3869
I108
tp3870
a(I108
S'amod'
p3871
I109
tp3872
a(I111
S'punct'
p3873
I110
tp3874
a(I91
S'acl'
p3875
I111
tp3876
a(I111
S'punct'
p3877
I112
tp3878
a(I114
S'det'
p3879
I113
tp3880
a(I111
S'dobj'
p3881
I114
tp3882
a(I114
S'cc'
p3883
I115
tp3884
a(I117
S'det'
p3885
I116
tp3886
a(I114
S'conj'
p3887
I117
tp3888
a(I119
S'advmod'
p3889
I118
tp3890
a(I117
S'acl'
p3891
I119
tp3892
a(I121
S'case'
p3893
I120
tp3894
a(I119
S'nmod'
p3895
I121
tp3896
a(I121
S'amod'
p3897
I121
tp3898
a(I123
S'case'
p3899
I122
tp3900
a(I121
S'nmod'
p3901
I123
tp3902
a(I125
S'case'
p3903
I124
tp3904
a(I123
S'nmod'
p3905
I125
tp3906
a(I123
S'cc'
p3907
I126
tp3908
a(I128
S'case'
p3909
I127
tp3910
a(I123
S'conj'
p3911
I128
tp3912
a(I128
S'case'
p3913
I128
tp3914
a(I128
S'nmod'
p3915
I128
tp3916
a(I128
S'case'
p3917
I128
tp3918
a(I128
S'nmod'
p3919
I128
tp3920
a(I111
S'punct'
p3921
I129
tp3922
a(I91
S'cc'
p3923
I130
tp3924
a(I91
S'conj'
p3925
I131
tp3926
a(I134
S'punct'
p3927
I132
tp3928
a(I134
S'case'
p3929
I133
tp3930
a(I131
S'nmod'
p3931
I134
tp3932
a(I134
S'punct'
p3933
I135
tp3934
a(I137
S'det'
p3935
I136
tp3936
a(I134
S'conj'
p3937
I137
tp3938
a(I139
S'case'
p3939
I138
tp3940
a(I137
S'nmod'
p3941
I139
tp3942
a(I141
S'case'
p3943
I140
tp3944
a(I139
S'nmod'
p3945
I141
tp3946
a(I141
S'amod'
p3947
I142
tp3948
a(I142
S'cc'
p3949
I143
tp3950
a(I142
S'conj'
p3951
I144
tp3952
a(I146
S'case'
p3953
I145
tp3954
a(I141
S'nmod'
p3955
I146
tp3956
a(I148
S'case'
p3957
I147
tp3958
a(I146
S'nmod'
p3959
I148
tp3960
a(I150
S'case'
p3961
I149
tp3962
a(I146
S'nmod'
p3963
I150
tp3964
a(I153
S'case'
p3965
I151
tp3966
a(I153
S'det'
p3967
I152
tp3968
a(I150
S'nmod'
p3969
I153
tp3970
a(I153
S'nmod'
p3971
I154
tp3972
a(I137
S'acl:relcl'
p3973
I155
tp3974
a(I157
S'case'
p3975
I156
tp3976
a(I155
S'nmod'
p3977
I157
tp3978
a(I155
S'punct'
p3979
I158
tp3980
a(I65
S'punct'
p3981
I159
tp3982
aa(lp3983
(I2
S'aux'
p3984
I0
tp3985
a(I2
S'det'
p3986
I1
tp3987
a(I2
S'nsubj'
p3988
I2
tp3989
a(I2
g17
I2
tp3990
a(I8
S'mark'
p3991
I3
tp3992
a(I5
S'det'
p3993
I4
tp3994
a(I8
S'nsubj'
p3995
I5
tp3996
a(I7
S'mark'
p3997
I6
tp3998
a(I8
S'advcl'
p3999
I7
tp4000
a(I2
S'ccomp'
p4001
I8
tp4002
a(I12
S'amod'
p4003
I9
tp4004
a(I9
S'cc'
p4005
I10
tp4006
a(I9
S'conj'
p4007
I11
tp4008
a(I8
S'dobj'
p4009
I12
tp4010
a(I14
S'case'
p4011
I13
tp4012
a(I12
S'nmod'
p4013
I14
tp4014
a(I14
S'amod'
p4015
I15
tp4016
a(I17
S'mark'
p4017
I16
tp4018
a(I14
S'acl'
p4019
I17
tp4020
a(I19
S'case'
p4021
I18
tp4022
a(I17
S'nmod'
p4023
I19
tp4024
a(I19
S'nummod'
p4025
I20
tp4026
a(I22
S'case'
p4027
I21
tp4028
a(I19
S'nmod'
p4029
I22
tp4030
a(I17
S'cc'
p4031
I23
tp4032
a(I17
S'punct'
p4033
I24
tp4034
a(I26
S'case'
p4035
I25
tp4036
a(I17
S'nmod'
p4037
I26
tp4038
a(I26
S'amod'
p4039
I27
tp4040
a(I26
S'punct'
p4041
I28
tp4042
a(I31
S'case'
p4043
I29
tp4044
a(I31
S'det'
p4045
I30
tp4046
a(I26
S'nmod'
p4047
I31
tp4048
a(I2
S'punct'
p4049
I32
tp4050
aa(lp4051
(I1
S'case'
p4052
I0
tp4053
a(I4
S'nmod'
p4054
I1
tp4055
a(I1
S'amod'
p4056
I2
tp4057
a(I1
S'punct'
p4058
I3
tp4059
a(I4
g17
I4
tp4060
a(I4
S'nsubj'
p4061
I5
tp4062
a(I4
S'csubj'
p4063
I6
tp4064
a(I8
S'det'
p4065
I7
tp4066
a(I6
S'dobj'
p4067
I8
tp4068
a(I8
S'acl'
p4069
I9
tp4070
a(I11
S'case'
p4071
I10
tp4072
a(I9
S'nmod'
p4073
I11
tp4074
a(I11
S'nummod'
p4075
I12
tp4076
a(I14
S'case'
p4077
I13
tp4078
a(I11
S'nmod'
p4079
I14
tp4080
a(I4
S'punct'
p4081
I15
tp4082
aa(lp4083
(I1
S'det'
p4084
I0
tp4085
a(I9
S'nsubjpass'
p4086
I1
tp4087
a(I1
S'punct'
p4088
I2
tp4089
a(I1
S'appos'
p4090
I3
tp4091
a(I3
S'compound'
p4092
I4
tp4093
a(I1
S'punct'
p4094
I5
tp4095
a(I9
S'auxpass'
p4096
I6
tp4097
a(I9
S'advmod'
p4098
I7
tp4099
a(I9
S'auxpass'
p4100
I8
tp4101
a(I9
g17
I9
tp4102
a(I12
S'case'
p4103
I10
tp4104
a(I12
S'det'
p4105
I11
tp4106
a(I9
S'nmod'
p4107
I12
tp4108
a(I16
S'advmod'
p4109
I13
tp4110
a(I16
S'case'
p4111
I14
tp4112
a(I16
S'det'
p4113
I15
tp4114
a(I12
S'nmod'
p4115
I16
tp4116
a(I19
S'case'
p4117
I17
tp4118
a(I19
S'det'
p4119
I18
tp4120
a(I9
S'nmod'
p4121
I19
tp4122
a(I19
S'amod'
p4123
I20
tp4124
a(I9
S'punct'
p4125
I21
tp4126
aa(lp4127
(I1
S'aux'
p4128
I0
tp4129
a(I1
g17
I1
tp4130
a(I1
S'dobj'
p4131
I2
tp4132
a(I24
S'mark'
p4133
I3
tp4134
a(I5
S'det'
p4135
I4
tp4136
a(I24
S'nsubj'
p4137
I5
tp4138
a(I5
S'amod'
p4139
I6
tp4140
a(I5
S'punct'
p4141
I7
tp4142
a(I9
S'case'
p4143
I8
tp4144
a(I24
S'nmod'
p4145
I9
tp4146
a(I9
S'punct'
p4147
I10
tp4148
a(I9
S'cc'
p4149
I11
tp4150
a(I9
S'conj'
p4151
I12
tp4152
a(I12
S'amod'
p4153
I13
tp4154
a(I15
S'case'
p4155
I14
tp4156
a(I13
S'nmod'
p4157
I15
tp4158
a(I15
S'cc'
p4159
I16
tp4160
a(I18
S'case'
p4161
I17
tp4162
a(I15
S'conj'
p4163
I18
tp4164
a(I12
S'punct'
p4165
I19
tp4166
a(I12
S'acl'
p4167
I20
tp4168
a(I22
S'case'
p4169
I21
tp4170
a(I20
S'nmod'
p4171
I22
tp4172
a(I9
S'punct'
p4173
I23
tp4174
a(I2
S'advcl'
p4175
I24
tp4176
a(I24
S'punct'
p4177
I25
tp4178
a(I27
S'mark'
p4179
I26
tp4180
a(I24
S'advcl'
p4181
I27
tp4182
a(I27
S'punct'
p4183
I28
tp4184
a(I30
S'case'
p4185
I29
tp4186
a(I27
S'nmod'
p4187
I30
tp4188
a(I30
S'acl:relcl'
p4189
I31
tp4190
a(I33
S'case'
p4191
I32
tp4192
a(I31
S'nmod'
p4193
I33
tp4194
a(I33
S'nummod'
p4195
I34
tp4196
a(I34
S'cc'
p4197
I35
tp4198
a(I34
S'conj'
p4199
I36
tp4200
a(I38
S'case'
p4201
I37
tp4202
a(I33
S'nmod'
p4203
I38
tp4204
a(I40
S'case'
p4205
I39
tp4206
a(I38
S'nmod'
p4207
I40
tp4208
a(I27
S'punct'
p4209
I41
tp4210
aa(lp4211
(I1
S'det'
p4212
I0
tp4213
a(I8
S'nmod'
p4214
I1
tp4215
a(I1
S'nummod'
p4216
I2
tp4217
a(I5
S'case'
p4218
I3
tp4219
a(I5
S'amod'
p4220
I4
tp4221
a(I1
S'nmod'
p4222
I5
tp4223
a(I1
S'punct'
p4224
I6
tp4225
a(I8
S'cop'
p4226
I7
tp4227
a(I8
g17
I8
tp4228
a(I8
S'csubj'
p4229
I9
tp4230
a(I11
S'case'
p4231
I10
tp4232
a(I9
S'advmod'
p4233
I11
tp4234
a(I13
S'expl'
p4235
I12
tp4236
a(I8
S'parataxis'
p4237
I13
tp4238
a(I15
S'case'
p4239
I14
tp4240
a(I13
S'nmod'
p4241
I15
tp4242
a(I15
S'amod'
p4243
I16
tp4244
a(I18
S'case'
p4245
I17
tp4246
a(I15
S'nmod'
p4247
I18
tp4248
a(I20
S'case'
p4249
I19
tp4250
a(I18
S'nmod'
p4251
I20
tp4252
a(I22
S'case'
p4253
I21
tp4254
a(I20
S'nmod'
p4255
I22
tp4256
a(I13
S'punct'
p4257
I23
tp4258
a(I13
S'parataxis'
p4259
I24
tp4260
a(I29
S'mark'
p4261
I25
tp4262
a(I27
S'det'
p4263
I26
tp4264
a(I29
S'nsubj'
p4265
I27
tp4266
a(I29
S'expl'
p4267
I28
tp4268
a(I24
S'ccomp'
p4269
I29
tp4270
a(I31
S'case'
p4271
I30
tp4272
a(I29
S'nmod'
p4273
I31
tp4274
a(I33
S'case'
p4275
I32
tp4276
a(I31
S'nmod'
p4277
I33
tp4278
a(I33
S'punct'
p4279
I34
tp4280
a(I33
S'conj'
p4281
I35
tp4282
a(I33
S'cc'
p4283
I36
tp4284
a(I33
S'conj'
p4285
I37
tp4286
a(I39
S'case'
p4287
I38
tp4288
a(I37
S'nmod'
p4289
I39
tp4290
a(I39
S'amod'
p4291
I40
tp4292
a(I39
S'cc'
p4293
I41
tp4294
a(I43
S'case'
p4295
I42
tp4296
a(I39
S'conj'
p4297
I43
tp4298
a(I43
S'amod'
p4299
I44
tp4300
a(I29
S'punct'
p4301
I45
tp4302
a(I29
S'cc'
p4303
I46
tp4304
a(I48
S'case'
p4305
I47
tp4306
a(I29
S'conj'
p4307
I48
tp4308
a(I50
S'case'
p4309
I49
tp4310
a(I48
S'nmod'
p4311
I50
tp4312
a(I8
S'punct'
p4313
I51
tp4314
aa(lp4315
(I9
S'mark'
p4316
I0
tp4317
a(I9
S'punct'
p4318
I1
tp4319
a(I6
S'case'
p4320
I2
tp4321
a(I6
S'amod'
p4322
I3
tp4323
a(I3
S'punct'
p4324
I4
tp4325
a(I6
S'det'
p4326
I5
tp4327
a(I9
S'nmod'
p4328
I6
tp4329
a(I6
S'amod'
p4330
I6
tp4331
a(I9
S'neg'
p4332
I7
tp4333
a(I9
S'cop'
p4334
I8
tp4335
a(I20
S'advcl'
p4336
I9
tp4337
a(I11
S'case'
p4338
I10
tp4339
a(I9
S'nmod'
p4340
I11
tp4341
a(I11
S'amod'
p4342
I12
tp4343
a(I14
S'case'
p4344
I13
tp4345
a(I11
S'nmod'
p4346
I14
tp4347
a(I14
S'amod'
p4348
I15
tp4349
a(I9
S'punct'
p4350
I16
tp4351
a(I19
S'det'
p4352
I17
tp4353
a(I19
S'amod'
p4354
I18
tp4355
a(I20
S'nsubj'
p4356
I19
tp4357
a(I20
g17
I20
tp4358
a(I20
S'punct'
p4359
I21
tp4360
a(I23
S'case'
p4361
I22
tp4362
a(I20
S'nmod'
p4363
I23
tp4364
a(I23
S'compound'
p4365
I24
tp4366
a(I23
S'punct'
p4367
I25
tp4368
a(I29
S'nsubj'
p4369
I26
tp4370
a(I28
S'det'
p4371
I27
tp4372
a(I29
S'nsubj'
p4373
I28
tp4374
a(I28
S'amod'
p4375
I28
tp4376
a(I23
S'acl:relcl'
p4377
I29
tp4378
a(I31
S'det'
p4379
I30
tp4380
a(I29
S'dobj'
p4381
I31
tp4382
a(I31
S'amod'
p4383
I32
tp4384
a(I20
S'punct'
p4385
I33
tp4386
a(I36
S'case'
p4387
I34
tp4388
a(I36
S'amod'
p4389
I35
tp4390
a(I20
S'nmod'
p4391
I36
tp4392
a(I38
S'case'
p4393
I37
tp4394
a(I40
S'nmod'
p4395
I38
tp4396
a(I40
S'iobj'
p4397
I39
tp4398
a(I36
S'acl:relcl'
p4399
I40
tp4400
a(I42
S'det'
p4401
I41
tp4402
a(I40
S'nsubj'
p4403
I42
tp4404
a(I42
S'amod'
p4405
I42
tp4406
a(I45
S'case'
p4407
I43
tp4408
a(I45
S'det'
p4409
I44
tp4410
a(I42
S'nmod'
p4411
I45
tp4412
a(I47
S'case'
p4413
I46
tp4414
a(I45
S'nmod'
p4415
I47
tp4416
a(I49
S'case'
p4417
I48
tp4418
a(I47
S'nmod'
p4419
I49
tp4420
a(I49
S'cc'
p4421
I50
tp4422
a(I52
S'case'
p4423
I51
tp4424
a(I49
S'conj'
p4425
I52
tp4426
a(I52
S'amod'
p4427
I53
tp4428
a(I20
S'punct'
p4429
I54
tp4430
aa(lp4431
(I6
S'advmod'
p4432
I0
tp4433
a(I2
S'case'
p4434
I1
tp4435
a(I0
S'nmod'
p4436
I2
tp4437
a(I2
S'nummod'
p4438
I3
tp4439
a(I0
S'punct'
p4440
I4
tp4441
a(I6
S'expl'
p4442
I5
tp4443
a(I6
g17
I6
tp4444
a(I9
S'case'
p4445
I7
tp4446
a(I9
S'det'
p4447
I8
tp4448
a(I6
S'nmod'
p4449
I9
tp4450
a(I12
S'case'
p4451
I10
tp4452
a(I12
S'det'
p4453
I11
tp4454
a(I9
S'nmod'
p4455
I12
tp4456
a(I12
S'amod'
p4457
I13
tp4458
a(I16
S'nsubj'
p4459
I14
tp4460
a(I16
S'aux'
p4461
I15
tp4462
a(I12
S'acl:relcl'
p4463
I16
tp4464
a(I16
S'dobj'
p4465
I17
tp4466
a(I19
S'mark'
p4467
I18
tp4468
a(I17
S'acl'
p4469
I19
tp4470
a(I21
S'case'
p4471
I20
tp4472
a(I19
S'nmod'
p4473
I21
tp4474
a(I23
S'case'
p4475
I22
tp4476
a(I19
S'nmod'
p4477
I23
tp4478
a(I25
S'case'
p4479
I24
tp4480
a(I23
S'nmod'
p4481
I25
tp4482
a(I28
S'case'
p4483
I26
tp4484
a(I28
S'amod'
p4485
I27
tp4486
a(I25
S'nmod'
p4487
I28
tp4488
a(I28
S'amod'
p4489
I28
tp4490
a(I6
S'punct'
p4491
I29
tp4492
a(I32
S'nsubj'
p4493
I30
tp4494
a(I32
S'aux'
p4495
I31
tp4496
a(I6
S'ccomp'
p4497
I32
tp4498
a(I34
S'det'
p4499
I33
tp4500
a(I32
S'dobj'
p4501
I34
tp4502
a(I34
S'amod'
p4503
I35
tp4504
a(I32
S'punct'
p4505
I36
tp4506
a(I32
S'cc'
p4507
I37
tp4508
a(I41
S'cop'
p4509
I38
tp4510
a(I41
S'nmod'
p4511
I39
tp4512
a(I41
S'det'
p4513
I40
tp4514
a(I32
S'conj'
p4515
I41
tp4516
a(I44
S'nsubj'
p4517
I42
tp4518
a(I44
S'expl'
p4519
I43
tp4520
a(I41
S'acl:relcl'
p4521
I44
tp4522
a(I46
S'det'
p4523
I45
tp4524
a(I44
S'nsubj'
p4525
I46
tp4526
a(I50
S'punct'
p4527
I47
tp4528
a(I50
S'nsubj'
p4529
I48
tp4530
a(I50
S'cop'
p4531
I49
tp4532
a(I46
S'acl:relcl'
p4533
I50
tp4534
a(I52
S'case'
p4535
I51
tp4536
a(I50
S'nmod'
p4537
I52
tp4538
a(I55
S'case'
p4539
I53
tp4540
a(I55
S'det'
p4541
I54
tp4542
a(I52
S'nmod'
p4543
I55
tp4544
a(I55
S'nmod'
p4545
I56
tp4546
a(I58
S'nsubj'
p4547
I57
tp4548
a(I52
S'acl:relcl'
p4549
I58
tp4550
a(I60
S'case'
p4551
I59
tp4552
a(I58
S'nmod'
p4553
I60
tp4554
a(I60
S'amod'
p4555
I61
tp4556
a(I61
S'cc'
p4557
I62
tp4558
a(I61
S'conj'
p4559
I63
tp4560
a(I58
S'dobj'
p4561
I64
tp4562
a(I66
S'case'
p4563
I65
tp4564
a(I64
S'nmod'
p4565
I66
tp4566
a(I66
S'acl'
p4567
I67
tp4568
a(I70
S'case'
p4569
I68
tp4570
a(I70
S'acl'
p4571
I69
tp4572
a(I67
S'nmod'
p4573
I70
tp4574
a(I70
S'nummod'
p4575
I71
tp4576
a(I6
S'punct'
p4577
I72
tp4578
aa(lp4579
(I2
S'case'
p4580
I0
tp4581
a(I2
S'det'
p4582
I1
tp4583
a(I4
S'nmod'
p4584
I2
tp4585
a(I4
S'aux'
p4586
I3
tp4587
a(I4
g17
I4
tp4588
a(I6
S'iobj'
p4589
I5
tp4590
a(I4
S'ccomp'
p4591
I6
tp4592
a(I8
S'det'
p4593
I7
tp4594
a(I6
S'dobj'
p4595
I8
tp4596
a(I10
S'case'
p4597
I9
tp4598
a(I8
S'nmod'
p4599
I10
tp4600
a(I12
S'case'
p4601
I11
tp4602
a(I10
S'nmod'
p4603
I12
tp4604
a(I14
S'case'
p4605
I13
tp4606
a(I6
S'nmod'
p4607
I14
tp4608
a(I17
S'case'
p4609
I15
tp4610
a(I17
S'advmod'
p4611
I16
tp4612
a(I14
S'nmod'
p4613
I17
tp4614
a(I19
S'case'
p4615
I18
tp4616
a(I17
S'nmod'
p4617
I19
tp4618
a(I4
S'punct'
p4619
I20
tp4620
aa(lp4621
(I1
S'det'
p4622
I0
tp4623
a(I2
S'nsubj'
p4624
I1
tp4625
a(I2
g17
I2
tp4626
a(I5
S'case'
p4627
I3
tp4628
a(I5
S'det'
p4629
I4
tp4630
a(I2
S'nmod'
p4631
I5
tp4632
a(I5
S'amod'
p4633
I6
tp4634
a(I8
S'case'
p4635
I7
tp4636
a(I6
S'nmod'
p4637
I8
tp4638
a(I8
S'nmod'
p4639
I9
tp4640
a(I11
S'case'
p4641
I10
tp4642
a(I8
S'nummod'
p4643
I11
tp4644
a(I5
S'punct'
p4645
I12
tp4646
a(I5
S'acl'
p4647
I13
tp4648
a(I15
S'case'
p4649
I14
tp4650
a(I13
S'nmod'
p4651
I15
tp4652
a(I17
S'mark'
p4653
I16
tp4654
a(I15
S'acl'
p4655
I17
tp4656
a(I17
S'dobj'
p4657
I18
tp4658
a(I20
S'case'
p4659
I19
tp4660
a(I17
S'nmod'
p4661
I20
tp4662
a(I20
S'amod'
p4663
I21
tp4664
a(I23
S'case'
p4665
I22
tp4666
a(I20
S'nmod'
p4667
I23
tp4668
a(I26
S'case'
p4669
I24
tp4670
a(I26
S'det'
p4671
I25
tp4672
a(I23
S'nmod'
p4673
I26
tp4674
a(I26
S'nmod'
p4675
I27
tp4676
a(I26
S'cc'
p4677
I28
tp4678
a(I26
S'punct'
p4679
I29
tp4680
a(I31
S'case'
p4681
I30
tp4682
a(I33
S'nmod'
p4683
I31
tp4684
a(I31
S'punct'
p4685
I32
tp4686
a(I26
S'appos'
p4687
I33
tp4688
a(I35
S'case'
p4689
I34
tp4690
a(I33
S'nmod'
p4691
I35
tp4692
a(I37
S'mark'
p4693
I36
tp4694
a(I35
S'acl'
p4695
I37
tp4696
a(I39
S'case'
p4697
I38
tp4698
a(I37
S'nmod'
p4699
I39
tp4700
a(I41
S'case'
p4701
I40
tp4702
a(I39
S'nmod'
p4703
I41
tp4704
a(I43
S'case'
p4705
I42
tp4706
a(I41
S'nmod'
p4707
I43
tp4708
a(I2
S'punct'
p4709
I44
tp4710
aa(lp4711
(I1
S'cop'
p4712
I0
tp4713
a(I1
g17
I1
tp4714
a(I1
S'csubj'
p4715
I2
tp4716
a(I17
S'mark'
p4717
I3
tp4718
a(I5
S'det'
p4719
I4
tp4720
a(I17
S'nmod'
p4721
I5
tp4722
a(I7
S'case'
p4723
I6
tp4724
a(I8
S'nmod'
p4725
I7
tp4726
a(I5
S'acl:relcl'
p4727
I8
tp4728
a(I8
S'dobj'
p4729
I9
tp4730
a(I11
S'det'
p4731
I10
tp4732
a(I17
S'nsubj'
p4733
I11
tp4734
a(I11
S'nmod'
p4735
I12
tp4736
a(I15
S'case'
p4737
I13
tp4738
a(I15
S'det:poss'
p4739
I14
tp4740
a(I11
S'nmod'
p4741
I15
tp4742
a(I17
S'neg'
p4743
I16
tp4744
a(I2
S'ccomp'
p4745
I17
tp4746
a(I19
S'det'
p4747
I18
tp4748
a(I17
S'dobj'
p4749
I19
tp4750
a(I21
S'case'
p4751
I20
tp4752
a(I19
S'nmod'
p4753
I21
tp4754
a(I21
S'acl'
p4755
I22
tp4756
a(I24
S'case'
p4757
I23
tp4758
a(I22
S'nmod'
p4759
I24
tp4760
a(I24
S'nummod'
p4761
I25
tp4762
a(I27
S'case'
p4763
I26
tp4764
a(I24
S'nmod'
p4765
I27
tp4766
a(I1
S'punct'
p4767
I28
tp4768
aa(lp4769
(I3
S'neg'
p4770
I0
tp4771
a(I3
S'expl:impers'
p4772
I1
tp4773
a(I3
S'aux'
p4774
I2
tp4775
a(I3
g17
I3
tp4776
a(I5
S'det'
p4777
I4
tp4778
a(I3
S'dobj'
p4779
I5
tp4780
a(I8
S'case'
p4781
I6
tp4782
a(I8
S'det'
p4783
I7
tp4784
a(I5
S'nmod'
p4785
I8
tp4786
a(I10
S'mark'
p4787
I9
tp4788
a(I3
S'advcl'
p4789
I10
tp4790
a(I12
S'det'
p4791
I11
tp4792
a(I10
S'dobj'
p4793
I12
tp4794
a(I14
S'case'
p4795
I13
tp4796
a(I12
S'nmod'
p4797
I14
tp4798
a(I16
S'case'
p4799
I15
tp4800
a(I14
S'nmod'
p4801
I16
tp4802
a(I16
S'amod'
p4803
I17
tp4804
a(I19
S'case'
p4805
I18
tp4806
a(I16
S'nmod'
p4807
I19
tp4808
a(I19
S'nmod'
p4809
I20
tp4810
a(I3
S'punct'
p4811
I21
tp4812
a(I23
S'case'
p4813
I22
tp4814
a(I3
S'nmod'
p4815
I23
tp4816
a(I25
S'case'
p4817
I24
tp4818
a(I23
S'nmod'
p4819
I25
tp4820
a(I27
S'case'
p4821
I26
tp4822
a(I25
S'nmod'
p4823
I27
tp4824
a(I3
S'punct'
p4825
I28
tp4826
aa(lp4827
(I2
S'det'
p4828
I0
tp4829
a(I2
S'amod'
p4830
I1
tp4831
a(I12
S'nsubjpass'
p4832
I2
tp4833
a(I5
S'case'
p4834
I3
tp4835
a(I5
S'det'
p4836
I4
tp4837
a(I2
S'nmod'
p4838
I5
tp4839
a(I5
S'acl'
p4840
I6
tp4841
a(I8
S'case'
p4842
I7
tp4843
a(I6
S'nmod'
p4844
I8
tp4845
a(I8
S'nummod'
p4846
I9
tp4847
a(I12
S'aux'
p4848
I10
tp4849
a(I12
S'auxpass'
p4850
I11
tp4851
a(I12
g17
I12
tp4852
a(I14
S'case'
p4853
I13
tp4854
a(I12
S'nmod'
p4855
I14
tp4856
a(I20
S'punct'
p4857
I15
tp4858
a(I17
S'advmod'
p4859
I16
tp4860
a(I20
S'nsubj'
p4861
I17
tp4862
a(I20
S'cop'
p4863
I18
tp4864
a(I20
S'det'
p4865
I19
tp4866
a(I12
S'nmod'
p4867
I20
tp4868
a(I20
S'amod'
p4869
I21
tp4870
a(I20
S'cc'
p4871
I22
tp4872
a(I25
S'cop'
p4873
I23
tp4874
a(I25
S'det'
p4875
I24
tp4876
a(I20
S'conj'
p4877
I25
tp4878
a(I27
S'case'
p4879
I26
tp4880
a(I31
S'nmod'
p4881
I27
tp4882
a(I31
S'neg'
p4883
I28
tp4884
a(I31
S'aux'
p4885
I29
tp4886
a(I31
S'auxpass'
p4887
I30
tp4888
a(I25
S'acl:relcl'
p4889
I31
tp4890
a(I33
S'det'
p4891
I32
tp4892
a(I31
S'nsubjpass'
p4893
I33
tp4894
a(I36
S'punct'
p4895
I34
tp4896
a(I36
S'case'
p4897
I35
tp4898
a(I33
S'nmod'
p4899
I36
tp4900
a(I38
S'case'
p4901
I37
tp4902
a(I36
S'nmod'
p4903
I38
tp4904
a(I41
S'case'
p4905
I39
tp4906
a(I41
S'det'
p4907
I40
tp4908
a(I38
S'nmod'
p4909
I41
tp4910
a(I43
S'case'
p4911
I42
tp4912
a(I41
S'nmod'
p4913
I43
tp4914
a(I43
S'nmod'
p4915
I44
tp4916
a(I41
S'cc'
p4917
I45
tp4918
a(I47
S'case'
p4919
I46
tp4920
a(I41
S'conj'
p4921
I47
tp4922
a(I49
S'case'
p4923
I48
tp4924
a(I47
S'nmod'
p4925
I49
tp4926
a(I49
S'amod'
p4927
I49
tp4928
a(I20
S'punct'
p4929
I50
tp4930
a(I52
S'amod'
p4931
I51
tp4932
a(I20
S'conj'
p4933
I52
tp4934
a(I52
S'amod'
p4935
I53
tp4936
a(I55
S'case'
p4937
I54
tp4938
a(I52
S'nmod'
p4939
I55
tp4940
a(I20
S'punct'
p4941
I56
tp4942
aa(lp4943
(I10
S'mark'
p4944
I0
tp4945
a(I10
S'punct'
p4946
I1
tp4947
a(I10
S'nsubj'
p4948
I2
tp4949
a(I4
S'case'
p4950
I3
tp4951
a(I2
S'nmod'
p4952
I4
tp4953
a(I6
S'case'
p4954
I5
tp4955
a(I4
S'nmod'
p4956
I6
tp4957
a(I8
S'case'
p4958
I7
tp4959
a(I6
S'nmod'
p4960
I8
tp4961
a(I10
S'aux'
p4962
I9
tp4963
a(I22
S'advcl'
p4964
I10
tp4965
a(I12
S'det'
p4966
I11
tp4967
a(I22
S'nmod'
p4968
I12
tp4969
a(I12
S'cc'
p4970
I13
tp4971
a(I12
S'punct'
p4972
I14
tp4973
a(I17
S'case'
p4974
I15
tp4975
a(I17
S'det:poss'
p4976
I16
tp4977
a(I22
S'nmod'
p4978
I17
tp4979
a(I17
S'punct'
p4980
I18
tp4981
a(I20
S'det'
p4982
I19
tp4983
a(I22
S'nsubj'
p4984
I20
tp4985
a(I22
S'neg'
p4986
I21
tp4987
a(I22
g17
I22
tp4988
a(I22
S'dobj'
p4989
I23
tp4990
a(I23
S'nmod'
p4991
I24
tp4992
a(I26
S'mark'
p4993
I25
tp4994
a(I24
S'acl'
p4995
I26
tp4996
a(I28
S'det'
p4997
I27
tp4998
a(I26
S'dobj'
p4999
I28
tp5000
a(I30
S'case'
p5001
I29
tp5002
a(I28
S'nmod'
p5003
I30
tp5004
a(I30
S'nummod'
p5005
I31
tp5006
a(I22
S'punct'
p5007
I32
tp5008
aa(lp5009
(I0
g17
I0
tp5010
a(I2
S'case'
p5011
I1
tp5012
a(I0
S'nmod'
p5013
I2
tp5014
a(I4
S'case'
p5015
I3
tp5016
a(I2
S'nmod'
p5017
I4
tp5018
a(I6
S'case'
p5019
I5
tp5020
a(I4
S'nmod'
p5021
I6
tp5022
a(I6
S'nummod'
p5023
I7
tp5024
a(I6
S'amod'
p5025
I8
tp5026
a(I0
S'punct'
p5027
I9
tp5028
a(I0
S'acl'
p5029
I10
tp5030
a(I12
S'mark'
p5031
I11
tp5032
a(I10
S'xcomp'
p5033
I12
tp5034
a(I10
S'punct'
p5035
I13
tp5036
a(I15
S'case'
p5037
I14
tp5038
a(I10
S'nmod'
p5039
I15
tp5040
a(I19
S'mark'
p5041
I16
tp5042
a(I19
S'aux'
p5043
I17
tp5044
a(I19
S'cop'
p5045
I18
tp5046
a(I15
S'nmod'
p5047
I19
tp5048
a(I21
S'mark'
p5049
I20
tp5050
a(I19
S'acl'
p5051
I21
tp5052
a(I24
S'case'
p5053
I22
tp5054
a(I22
S'mwe'
p5055
I23
tp5056
a(I21
S'nmod'
p5057
I24
tp5058
a(I19
S'punct'
p5059
I25
tp5060
a(I29
S'nsubjpass'
p5061
I26
tp5062
a(I29
S'aux'
p5063
I27
tp5064
a(I29
S'auxpass'
p5065
I28
tp5066
a(I19
S'acl:relcl'
p5067
I29
tp5068
a(I29
S'advmod'
p5069
I30
tp5070
a(I32
S'case'
p5071
I31
tp5072
a(I29
S'nmod'
p5073
I32
tp5074
a(I32
S'case'
p5075
I32
tp5076
a(I32
S'nmod'
p5077
I32
tp5078
a(I29
S'punct'
p5079
I33
tp5080
a(I29
S'cc'
p5081
I34
tp5082
a(I36
S'case'
p5083
I35
tp5084
a(I29
S'conj'
p5085
I36
tp5086
a(I39
S'case'
p5087
I37
tp5088
a(I39
S'amod'
p5089
I38
tp5090
a(I36
S'nmod'
p5091
I39
tp5092
a(I39
S'compound'
p5093
I40
tp5094
a(I36
S'cc'
p5095
I41
tp5096
a(I36
S'conj'
p5097
I42
tp5098
a(I42
S'punct'
p5099
I43
tp5100
a(I43
S'advmod'
p5101
I44
tp5102
a(I44
S'punct'
p5103
I45
tp5104
a(I47
S'det'
p5105
I46
tp5106
a(I44
S'nsubj'
p5107
I47
tp5108
a(I50
S'case'
p5109
I48
tp5110
a(I50
S'det'
p5111
I49
tp5112
a(I47
S'nmod'
p5113
I50
tp5114
a(I50
S'cc'
p5115
I51
tp5116
a(I53
S'case'
p5117
I52
tp5118
a(I50
S'conj'
p5119
I53
tp5120
a(I55
S'case'
p5121
I54
tp5122
a(I60
S'nmod'
p5123
I55
tp5124
a(I60
S'nsubj'
p5125
I56
tp5126
a(I59
S'advmod'
p5127
I57
tp5128
a(I59
S'case'
p5129
I58
tp5130
a(I56
S'nmod'
p5131
I59
tp5132
a(I53
S'acl'
p5133
I60
tp5134
a(I63
S'det'
p5135
I61
tp5136
a(I63
S'amod'
p5137
I62
tp5138
a(I60
S'dobj'
p5139
I63
tp5140
a(I63
S'compound'
p5141
I64
tp5142
a(I67
S'advmod'
p5143
I65
tp5144
a(I67
S'case'
p5145
I66
tp5146
a(I60
S'nmod'
p5147
I67
tp5148
a(I67
S'amod'
p5149
I68
tp5150
a(I42
S'punct'
p5151
I69
tp5152
aa(lp5153
(I1
S'neg'
p5154
I0
tp5155
a(I1
g17
I1
tp5156
a(I3
S'det'
p5157
I2
tp5158
a(I1
S'dobj'
p5159
I3
tp5160
a(I1
S'cc'
p5161
I4
tp5162
a(I6
S'neg'
p5163
I5
tp5164
a(I1
S'conj'
p5165
I6
tp5166
a(I11
S'det'
p5167
I7
tp5168
a(I11
S'amod'
p5169
I8
tp5170
a(I8
S'cc'
p5171
I9
tp5172
a(I8
S'conj'
p5173
I10
tp5174
a(I6
S'dobj'
p5175
I11
tp5176
a(I13
S'case'
p5177
I12
tp5178
a(I11
S'nmod'
p5179
I13
tp5180
a(I13
S'amod'
p5181
I14
tp5182
a(I13
S'punct'
p5183
I15
tp5184
a(I17
S'case'
p5185
I16
tp5186
a(I24
S'advmod'
p5187
I17
tp5188
a(I19
S'det'
p5189
I18
tp5190
a(I24
S'nsubj'
p5191
I19
tp5192
a(I19
S'punct'
p5193
I20
tp5194
a(I22
S'case'
p5195
I21
tp5196
a(I19
S'nmod'
p5197
I22
tp5198
a(I19
S'punct'
p5199
I23
tp5200
a(I13
S'acl:relcl'
p5201
I24
tp5202
a(I26
S'mark'
p5203
I25
tp5204
a(I24
S'xcomp'
p5205
I26
tp5206
a(I26
S'dobj'
p5207
I27
tp5208
a(I29
S'case'
p5209
I28
tp5210
a(I26
S'nmod'
p5211
I29
tp5212
a(I29
S'compound'
p5213
I30
tp5214
a(I1
S'punct'
p5215
I31
tp5216
aa(lp5217
(I0
g17
I0
tp5218
a(I0
S'dobj'
p5219
I1
tp5220
a(I3
S'case'
p5221
I2
tp5222
a(I1
S'nmod'
p5223
I3
tp5224
a(I0
S'punct'
p5225
I4
tp5226
a(I0
S'conj'
p5227
I5
tp5228
a(I7
S'aux'
p5229
I6
tp5230
a(I5
S'ccomp'
p5231
I7
tp5232
a(I9
S'case'
p5233
I8
tp5234
a(I7
S'nmod'
p5235
I9
tp5236
a(I9
S'amod'
p5237
I10
tp5238
a(I10
S'cc'
p5239
I11
tp5240
a(I10
S'conj'
p5241
I12
tp5242
a(I14
S'det'
p5243
I13
tp5244
a(I7
S'nsubj'
p5245
I14
tp5246
a(I14
S'amod'
p5247
I15
tp5248
a(I14
S'amod'
p5249
I16
tp5250
a(I18
S'case'
p5251
I17
tp5252
a(I16
S'nmod'
p5253
I18
tp5254
a(I18
S'nummod'
p5255
I19
tp5256
a(I19
S'cc'
p5257
I20
tp5258
a(I19
S'conj'
p5259
I21
tp5260
a(I0
S'punct'
p5261
I22
tp5262
aa(lp5263
(I0
g17
I0
tp5264
a(I2
S'mark'
p5265
I1
tp5266
a(I0
S'xcomp'
p5267
I2
tp5268
a(I4
S'det'
p5269
I3
tp5270
a(I2
S'dobj'
p5271
I4
tp5272
a(I6
S'advmod'
p5273
I5
tp5274
a(I7
S'advmod'
p5275
I6
tp5276
a(I4
S'amod'
p5277
I7
tp5278
a(I9
S'case'
p5279
I8
tp5280
a(I4
S'nmod'
p5281
I9
tp5282
a(I9
S'cc'
p5283
I10
tp5284
a(I12
S'case'
p5285
I11
tp5286
a(I9
S'conj'
p5287
I12
tp5288
a(I14
S'case'
p5289
I13
tp5290
a(I12
S'nmod'
p5291
I14
tp5292
a(I16
S'case'
p5293
I15
tp5294
a(I14
S'nmod'
p5295
I16
tp5296
a(I18
S'nsubj'
p5297
I17
tp5298
a(I16
S'acl:relcl'
p5299
I18
tp5300
a(I20
S'case'
p5301
I19
tp5302
a(I18
S'nmod'
p5303
I20
tp5304
a(I20
S'amod'
p5305
I21
tp5306
a(I0
S'punct'
p5307
I22
tp5308
aa(lp5309
(I1
S'expl'
p5310
I0
tp5311
a(I1
g17
I1
tp5312
a(I1
S'advmod'
p5313
I2
tp5314
a(I4
S'mark'
p5315
I3
tp5316
a(I1
S'xcomp'
p5317
I4
tp5318
a(I6
S'det'
p5319
I5
tp5320
a(I4
S'dobj'
p5321
I6
tp5322
a(I9
S'case'
p5323
I7
tp5324
a(I9
S'det'
p5325
I8
tp5326
a(I4
S'nmod'
p5327
I9
tp5328
a(I9
S'punct'
p5329
I10
tp5330
a(I12
S'case'
p5331
I11
tp5332
a(I9
S'nmod'
p5333
I12
tp5334
a(I14
S'case'
p5335
I13
tp5336
a(I12
S'nmod'
p5337
I14
tp5338
a(I14
S'acl:relcl'
p5339
I15
tp5340
a(I17
S'det'
p5341
I16
tp5342
a(I15
S'dobj'
p5343
I17
tp5344
a(I19
S'case'
p5345
I18
tp5346
a(I17
S'nmod'
p5347
I19
tp5348
a(I17
S'punct'
p5349
I20
tp5350
a(I17
S'conj'
p5351
I21
tp5352
a(I23
S'case'
p5353
I22
tp5354
a(I24
S'nmod'
p5355
I23
tp5356
a(I21
S'acl:relcl'
p5357
I24
tp5358
a(I24
S'nsubj'
p5359
I25
tp5360
a(I27
S'case'
p5361
I26
tp5362
a(I29
S'nmod'
p5363
I27
tp5364
a(I29
S'auxpass'
p5365
I28
tp5366
a(I25
S'acl:relcl'
p5367
I29
tp5368
a(I33
S'advmod'
p5369
I30
tp5370
a(I33
S'case'
p5371
I31
tp5372
a(I33
S'det'
p5373
I32
tp5374
a(I29
S'nmod'
p5375
I33
tp5376
a(I33
S'cc'
p5377
I34
tp5378
a(I37
S'det'
p5379
I35
tp5380
a(I37
S'det:poss'
p5381
I36
tp5382
a(I33
S'conj'
p5383
I37
tp5384
a(I17
S'punct'
p5385
I38
tp5386
a(I42
S'advmod'
p5387
I39
tp5388
a(I42
S'mark'
p5389
I40
tp5390
a(I42
S'neg'
p5391
I41
tp5392
a(I17
S'conj'
p5393
I42
tp5394
a(I44
S'det'
p5395
I43
tp5396
a(I42
S'dobj'
p5397
I44
tp5398
a(I46
S'case'
p5399
I45
tp5400
a(I44
S'nmod'
p5401
I46
tp5402
a(I48
S'case'
p5403
I47
tp5404
a(I50
S'nmod'
p5405
I48
tp5406
a(I50
S'auxpass'
p5407
I49
tp5408
a(I42
S'acl:relcl'
p5409
I50
tp5410
a(I52
S'det'
p5411
I51
tp5412
a(I50
S'nsubjpass'
p5413
I52
tp5414
a(I50
S'punct'
p5415
I53
tp5416
a(I55
S'neg'
p5417
I54
tp5418
a(I50
S'advcl'
p5419
I55
tp5420
a(I58
S'neg'
p5421
I56
tp5422
a(I58
S'case'
p5423
I57
tp5424
a(I55
S'nmod'
p5425
I58
tp5426
a(I60
S'case'
p5427
I59
tp5428
a(I55
S'nmod'
p5429
I60
tp5430
a(I60
S'amod'
p5431
I61
tp5432
a(I1
S'punct'
p5433
I62
tp5434
aa(lp5435
(I8
S'vocative'
p5436
I0
tp5437
a(I0
S'compound'
p5438
I1
tp5439
a(I3
S'case'
p5440
I2
tp5441
a(I0
S'nmod'
p5442
I3
tp5443
a(I5
S'case'
p5444
I4
tp5445
a(I3
S'nmod'
p5446
I5
tp5447
a(I0
S'punct'
p5448
I6
tp5449
a(I8
S'aux'
p5450
I7
tp5451
a(I8
g17
I8
tp5452
a(I8
S'advmod'
p5453
I9
tp5454
a(I12
S'mark'
p5455
I10
tp5456
a(I12
S'aux'
p5457
I11
tp5458
a(I8
S'ccomp'
p5459
I12
tp5460
a(I12
S'punct'
p5461
I13
tp5462
a(I16
S'case'
p5463
I14
tp5464
a(I16
S'det'
p5465
I15
tp5466
a(I12
S'nmod'
p5467
I16
tp5468
a(I18
S'case'
p5469
I17
tp5470
a(I16
S'nmod'
p5471
I18
tp5472
a(I21
S'case'
p5473
I19
tp5474
a(I21
S'amod'
p5475
I20
tp5476
a(I18
S'nmod'
p5477
I21
tp5478
a(I12
S'punct'
p5479
I22
tp5480
a(I29
S'nsubjpass'
p5481
I23
tp5482
a(I25
S'case'
p5483
I24
tp5484
a(I29
S'nmod'
p5485
I25
tp5486
a(I29
S'neg'
p5487
I26
tp5488
a(I29
S'aux'
p5489
I27
tp5490
a(I29
S'auxpass'
p5491
I28
tp5492
a(I12
S'acl:relcl'
p5493
I29
tp5494
a(I31
S'det'
p5495
I30
tp5496
a(I29
S'dobj'
p5497
I31
tp5498
a(I33
S'case'
p5499
I32
tp5500
a(I31
S'nmod'
p5501
I33
tp5502
a(I33
S'nummod'
p5503
I34
tp5504
a(I34
S'cc'
p5505
I35
tp5506
a(I34
S'conj'
p5507
I36
tp5508
a(I29
S'punct'
p5509
I37
tp5510
a(I29
S'cc'
p5511
I38
tp5512
a(I29
S'conj'
p5513
I39
tp5514
a(I41
S'det'
p5515
I40
tp5516
a(I45
S'nsubj'
p5517
I41
tp5518
a(I45
S'aux'
p5519
I42
tp5520
a(I45
S'cop'
p5521
I43
tp5522
a(I45
S'det'
p5523
I44
tp5524
a(I39
S'acl:relcl'
p5525
I45
tp5526
a(I45
S'amod'
p5527
I46
tp5528
a(I8
S'punct'
p5529
I47
tp5530
aa(lp5531
(I3
S'expl'
p5532
I0
tp5533
a(I3
S'aux'
p5534
I1
tp5535
a(I3
S'advmod'
p5536
I2
tp5537
a(I3
g17
I3
tp5538
a(I6
S'det:predet'
p5539
I4
tp5540
a(I6
S'det'
p5541
I5
tp5542
a(I3
S'nsubj'
p5543
I6
tp5544
a(I6
S'amod'
p5545
I7
tp5546
a(I6
S'punct'
p5547
I8
tp5548
a(I6
S'amod'
p5549
I9
tp5550
a(I12
S'case'
p5551
I10
tp5552
a(I10
S'mwe'
p5553
I11
tp5554
a(I9
S'nmod'
p5555
I12
tp5556
a(I12
S'amod'
p5557
I13
tp5558
a(I3
S'punct'
p5559
I14
tp5560
aa(lp5561
(I0
g17
I0
tp5562
a(I3
S'det'
p5563
I1
tp5564
a(I3
S'det:poss'
p5565
I2
tp5566
a(I0
S'dobj'
p5567
I3
tp5568
a(I0
S'punct'
p5569
I4
tp5570
a(I8
S'nsubj'
p5571
I5
tp5572
a(I8
S'cop'
p5573
I6
tp5574
a(I8
S'det'
p5575
I7
tp5576
a(I0
S'acl:relcl'
p5577
I8
tp5578
a(I10
S'case'
p5579
I9
tp5580
a(I8
S'nmod'
p5581
I10
tp5582
a(I8
S'punct'
p5583
I11
tp5584
a(I13
S'mark'
p5585
I12
tp5586
a(I8
S'acl'
p5587
I13
tp5588
a(I15
S'case'
p5589
I14
tp5590
a(I13
S'nmod'
p5591
I15
tp5592
a(I15
S'nmod'
p5593
I16
tp5594
a(I0
S'punct'
p5595
I17
tp5596
aa(lp5597
(I1
S'case'
p5598
I0
tp5599
a(I2
S'nmod'
p5600
I1
tp5601
a(I2
g17
I2
tp5602
a(I4
S'det'
p5603
I3
tp5604
a(I2
S'nsubj'
p5605
I4
tp5606
a(I4
S'appos'
p5607
I5
tp5608
a(I8
S'case'
p5609
I6
tp5610
a(I8
S'det'
p5611
I7
tp5612
a(I5
S'nmod'
p5613
I8
tp5614
a(I10
S'mark'
p5615
I9
tp5616
a(I5
S'acl'
p5617
I10
tp5618
a(I12
S'det'
p5619
I11
tp5620
a(I10
S'dobj'
p5621
I12
tp5622
a(I12
S'name'
p5623
I13
tp5624
a(I2
S'punct'
p5625
I14
tp5626
aa(lp5627
(I2
S'case'
p5628
I0
tp5629
a(I2
S'det'
p5630
I1
tp5631
a(I4
S'nmod'
p5632
I2
tp5633
a(I2
S'punct'
p5634
I3
tp5635
a(I4
g17
I4
tp5636
a(I6
S'det'
p5637
I5
tp5638
a(I4
S'nsubj'
p5639
I6
tp5640
a(I9
S'case'
p5641
I7
tp5642
a(I9
S'nummod'
p5643
I8
tp5644
a(I6
S'nmod'
p5645
I9
tp5646
a(I4
S'cc'
p5647
I10
tp5648
a(I13
S'advmod'
p5649
I11
tp5650
a(I13
S'cop'
p5651
I12
tp5652
a(I4
S'conj'
p5653
I13
tp5654
a(I15
S'det'
p5655
I14
tp5656
a(I13
S'amod'
p5657
I15
tp5658
a(I4
S'punct'
p5659
I16
tp5660
aa(lp5661
(I1
S'advmod'
p5662
I0
tp5663
a(I6
S'nsubj'
p5664
I1
tp5665
a(I1
S'cc'
p5666
I2
tp5667
a(I1
S'conj'
p5668
I3
tp5669
a(I5
S'case'
p5670
I4
tp5671
a(I3
S'nmod'
p5672
I5
tp5673
a(I6
g17
I6
tp5674
a(I8
S'case'
p5675
I7
tp5676
a(I6
S'nmod'
p5677
I8
tp5678
a(I10
S'det'
p5679
I9
tp5680
a(I6
S'dobj'
p5681
I10
tp5682
a(I10
S'case'
p5683
I10
tp5684
a(I10
S'nmod'
p5685
I10
tp5686
a(I10
S'cc'
p5687
I11
tp5688
a(I13
S'det'
p5689
I12
tp5690
a(I10
S'conj'
p5691
I13
tp5692
a(I13
S'amod'
p5693
I14
tp5694
a(I6
S'punct'
p5695
I15
tp5696
aa(lp5697
(I1
S'advmod'
p5698
I0
tp5699
a(I1
g17
I1
tp5700
a(I4
S'det'
p5701
I2
tp5702
a(I4
S'amod'
p5703
I3
tp5704
a(I1
S'nsubj'
p5705
I4
tp5706
a(I6
S'case'
p5707
I5
tp5708
a(I4
S'nmod'
p5709
I6
tp5710
a(I6
S'amod'
p5711
I7
tp5712
a(I6
S'cc'
p5713
I8
tp5714
a(I6
S'conj'
p5715
I9
tp5716
a(I9
S'amod'
p5717
I10
tp5718
a(I1
S'punct'
p5719
I11
tp5720
aa(lp5721
(I4
S'vocative'
p5722
I0
tp5723
a(I0
S'nmod'
p5724
I1
tp5725
a(I0
S'punct'
p5726
I2
tp5727
a(I4
S'aux'
p5728
I3
tp5729
a(I4
g17
I4
tp5730
a(I11
S'nsubj'
p5731
I5
tp5732
a(I7
S'case'
p5733
I6
tp5734
a(I11
S'nmod'
p5735
I7
tp5736
a(I11
S'neg'
p5737
I8
tp5738
a(I11
S'cop'
p5739
I9
tp5740
a(I11
S'advmod'
p5741
I10
tp5742
a(I4
S'ccomp'
p5743
I11
tp5744
a(I14
S'case'
p5745
I12
tp5746
a(I12
S'mwe'
p5747
I13
tp5748
a(I11
S'nmod'
p5749
I14
tp5750
a(I14
S'acl'
p5751
I15
tp5752
a(I17
S'case'
p5753
I16
tp5754
a(I15
S'nmod'
p5755
I17
tp5756
a(I17
S'name'
p5757
I17
tp5758
a(I19
S'case'
p5759
I18
tp5760
a(I15
S'nmod'
p5761
I19
tp5762
a(I22
S'case'
p5763
I20
tp5764
a(I22
S'det'
p5765
I21
tp5766
a(I19
S'nmod'
p5767
I22
tp5768
a(I22
S'compound'
p5769
I23
tp5770
a(I19
S'cc'
p5771
I24
tp5772
a(I19
S'punct'
p5773
I25
tp5774
a(I27
S'case'
p5775
I26
tp5776
a(I19
S'nmod'
p5777
I27
tp5778
a(I27
S'punct'
p5779
I28
tp5780
a(I30
S'case'
p5781
I29
tp5782
a(I27
S'nmod'
p5783
I30
tp5784
a(I32
S'case'
p5785
I31
tp5786
a(I30
S'nmod'
p5787
I32
tp5788
a(I34
S'case'
p5789
I33
tp5790
a(I32
S'nmod'
p5791
I34
tp5792
a(I36
S'case'
p5793
I35
tp5794
a(I34
S'nmod'
p5795
I36
tp5796
a(I36
S'amod'
p5797
I37
tp5798
a(I40
S'nsubj'
p5799
I38
tp5800
a(I40
S'iobj'
p5801
I39
tp5802
a(I30
S'acl:relcl'
p5803
I40
tp5804
a(I42
S'mark'
p5805
I41
tp5806
a(I40
S'xcomp'
p5807
I42
tp5808
a(I42
S'dobj'
p5809
I43
tp5810
a(I43
S'amod'
p5811
I44
tp5812
a(I42
S'punct'
p5813
I45
tp5814
a(I48
S'case'
p5815
I46
tp5816
a(I48
S'case'
p5817
I47
tp5818
a(I42
S'nmod'
p5819
I48
tp5820
a(I42
S'dobj'
p5821
I49
tp5822
a(I51
S'case'
p5823
I50
tp5824
a(I49
S'nmod'
p5825
I51
tp5826
a(I51
S'amod'
p5827
I52
tp5828
a(I4
S'punct'
p5829
I53
tp5830
aa(lp5831
(I0
g17
I0
tp5832
a(I2
S'cop'
p5833
I1
tp5834
a(I0
S'ccomp'
p5835
I2
tp5836
a(I2
S'csubj'
p5837
I3
tp5838
a(I3
S'dobj'
p5839
I4
tp5840
a(I6
S'case'
p5841
I5
tp5842
a(I4
S'nmod'
p5843
I6
tp5844
a(I20
S'mark'
p5845
I7
tp5846
a(I20
S'punct'
p5847
I8
tp5848
a(I11
S'case'
p5849
I9
tp5850
a(I11
S'det'
p5851
I10
tp5852
a(I20
S'nmod'
p5853
I11
tp5854
a(I11
S'acl'
p5855
I12
tp5856
a(I14
S'case'
p5857
I13
tp5858
a(I12
S'nmod'
p5859
I14
tp5860
a(I16
S'case'
p5861
I15
tp5862
a(I14
S'nmod'
p5863
I16
tp5864
a(I11
S'punct'
p5865
I17
tp5866
a(I20
S'expl'
p5867
I18
tp5868
a(I20
S'aux'
p5869
I19
tp5870
a(I6
S'advcl'
p5871
I20
tp5872
a(I22
S'det'
p5873
I21
tp5874
a(I20
S'dobj'
p5875
I22
tp5876
a(I24
S'case'
p5877
I23
tp5878
a(I22
S'nmod'
p5879
I24
tp5880
a(I24
S'cc'
p5881
I25
tp5882
a(I31
S'nsubj'
p5883
I26
tp5884
a(I30
S'case'
p5885
I27
tp5886
a(I30
S'amod'
p5887
I28
tp5888
a(I30
S'nummod'
p5889
I29
tp5890
a(I31
S'nmod'
p5891
I30
tp5892
a(I24
S'acl:relcl'
p5893
I31
tp5894
a(I33
S'det'
p5895
I32
tp5896
a(I31
S'dobj'
p5897
I33
tp5898
a(I35
S'case'
p5899
I34
tp5900
a(I33
S'nmod'
p5901
I35
tp5902
a(I40
S'nsubj'
p5903
I36
tp5904
a(I40
S'cop'
p5905
I37
tp5906
a(I40
S'det'
p5907
I38
tp5908
a(I40
S'amod'
p5909
I39
tp5910
a(I35
S'acl:relcl'
p5911
I40
tp5912
a(I40
S'acl'
p5913
I41
tp5914
a(I44
S'case'
p5915
I42
tp5916
a(I44
S'amod'
p5917
I43
tp5918
a(I41
S'nmod'
p5919
I44
tp5920
a(I46
S'case'
p5921
I45
tp5922
a(I44
S'nmod'
p5923
I46
tp5924
a(I41
S'punct'
p5925
I47
tp5926
a(I50
S'advmod'
p5927
I48
tp5928
a(I50
S'case'
p5929
I49
tp5930
a(I41
S'nmod'
p5931
I50
tp5932
a(I52
S'case'
p5933
I51
tp5934
a(I50
S'nmod'
p5935
I52
tp5936
a(I52
S'punct'
p5937
I53
tp5938
a(I52
S'conj'
p5939
I54
tp5940
a(I54
S'amod'
p5941
I55
tp5942
a(I57
S'case'
p5943
I56
tp5944
a(I54
S'nmod'
p5945
I57
tp5946
a(I57
S'amod'
p5947
I58
tp5948
a(I57
S'cc'
p5949
I59
tp5950
a(I57
S'conj'
p5951
I60
tp5952
a(I60
S'amod'
p5953
I61
tp5954
a(I0
S'punct'
p5955
I62
tp5956
aa(lp5957
(I39
S'advcl'
p5958
I0
tp5959
a(I2
S'case'
p5960
I1
tp5961
a(I0
S'nmod'
p5962
I2
tp5963
a(I0
S'xcomp'
p5964
I3
tp5965
a(I5
S'det'
p5966
I4
tp5967
a(I3
S'dobj'
p5968
I5
tp5969
a(I5
S'acl'
p5970
I6
tp5971
a(I8
S'det'
p5972
I7
tp5973
a(I6
S'dobj'
p5974
I8
tp5975
a(I8
S'amod'
p5976
I9
tp5977
a(I11
S'case'
p5978
I10
tp5979
a(I8
S'nmod'
p5980
I11
tp5981
a(I11
S'amod'
p5982
I12
tp5983
a(I8
S'cc'
p5984
I13
tp5985
a(I15
S'det'
p5986
I14
tp5987
a(I8
S'conj'
p5988
I15
tp5989
a(I15
S'case'
p5990
I15
tp5991
a(I15
S'nmod'
p5992
I15
tp5993
a(I15
S'case'
p5994
I15
tp5995
a(I15
S'nmod'
p5996
I15
tp5997
a(I0
S'punct'
p5998
I16
tp5999
a(I0
S'cc'
p6000
I17
tp6001
a(I20
S'aux'
p6002
I18
tp6003
a(I20
S'advmod'
p6004
I19
tp6005
a(I0
S'conj'
p6006
I20
tp6007
a(I22
S'case'
p6008
I21
tp6009
a(I20
S'nmod'
p6010
I22
tp6011
a(I25
S'case'
p6012
I23
tp6013
a(I25
S'det'
p6014
I24
tp6015
a(I22
S'nmod'
p6016
I25
tp6017
a(I25
S'amod'
p6018
I26
tp6019
a(I28
S'case'
p6020
I27
tp6021
a(I25
S'nmod'
p6022
I28
tp6023
a(I28
S'punct'
p6024
I29
tp6025
a(I28
S'conj'
p6026
I30
tp6027
a(I28
S'cc'
p6028
I31
tp6029
a(I28
S'conj'
p6030
I32
tp6031
a(I32
S'punct'
p6032
I33
tp6033
a(I35
S'nsubj'
p6034
I34
tp6035
a(I32
S'acl:relcl'
p6036
I35
tp6037
a(I37
S'det'
p6038
I36
tp6039
a(I35
S'dobj'
p6040
I37
tp6041
a(I39
S'aux'
p6042
I38
tp6043
a(I39
g17
I39
tp6044
a(I42
S'case'
p6045
I40
tp6046
a(I42
S'det'
p6047
I41
tp6048
a(I39
S'nmod'
p6049
I42
tp6050
a(I45
S'case'
p6051
I43
tp6052
a(I45
S'det'
p6053
I44
tp6054
a(I42
S'nmod'
p6055
I45
tp6056
a(I47
S'case'
p6057
I46
tp6058
a(I39
S'nmod'
p6059
I47
tp6060
a(I49
S'mark'
p6061
I48
tp6062
a(I47
S'acl'
p6063
I49
tp6064
a(I51
S'det'
p6065
I50
tp6066
a(I49
S'dobj'
p6067
I51
tp6068
a(I53
S'case'
p6069
I52
tp6070
a(I51
S'nmod'
p6071
I53
tp6072
a(I53
S'compound'
p6073
I54
tp6074
a(I54
S'foreign'
p6075
I55
tp6076
a(I39
S'punct'
p6077
I56
tp6078
aa(lp6079
(I0
g17
I0
tp6080
a(I0
S'advmod'
p6081
I1
tp6082
a(I3
S'mark'
p6083
I2
tp6084
a(I0
S'xcomp'
p6085
I3
tp6086
a(I17
S'mark'
p6087
I4
tp6088
a(I6
S'det'
p6089
I5
tp6090
a(I17
S'nsubj'
p6091
I6
tp6092
a(I6
S'amod'
p6093
I7
tp6094
a(I9
S'case'
p6095
I8
tp6096
a(I6
S'nmod'
p6097
I9
tp6098
a(I9
S'amod'
p6099
I10
tp6100
a(I6
S'punct'
p6101
I11
tp6102
a(I14
S'advmod'
p6103
I12
tp6104
a(I14
S'case'
p6105
I13
tp6106
a(I17
S'nmod'
p6107
I14
tp6108
a(I14
S'punct'
p6109
I15
tp6110
a(I17
S'aux'
p6111
I16
tp6112
a(I3
S'ccomp'
p6113
I17
tp6114
a(I17
S'punct'
p6115
I18
tp6116
a(I21
S'case'
p6117
I19
tp6118
a(I21
S'det'
p6119
I20
tp6120
a(I17
S'nmod'
p6121
I21
tp6122
a(I17
S'punct'
p6123
I22
tp6124
a(I24
S'det'
p6125
I23
tp6126
a(I17
S'dobj'
p6127
I24
tp6128
a(I26
S'case'
p6129
I25
tp6130
a(I24
S'nmod'
p6131
I26
tp6132
a(I30
S'case'
p6133
I27
tp6134
a(I30
S'det'
p6135
I28
tp6136
a(I30
S'amod'
p6137
I29
tp6138
a(I24
S'nmod'
p6139
I30
tp6140
a(I24
S'cc'
p6141
I31
tp6142
a(I34
S'aux'
p6143
I32
tp6144
a(I34
S'advmod'
p6145
I33
tp6146
a(I24
S'conj'
p6147
I34
tp6148
a(I36
S'mark'
p6149
I35
tp6150
a(I34
S'ccomp'
p6151
I36
tp6152
a(I38
S'case'
p6153
I37
tp6154
a(I36
S'nmod'
p6155
I38
tp6156
a(I38
S'name'
p6157
I38
tp6158
a(I40
S'det'
p6159
I39
tp6160
a(I36
S'dobj'
p6161
I40
tp6162
a(I42
S'case'
p6163
I41
tp6164
a(I40
S'nmod'
p6165
I42
tp6166
a(I40
S'acl'
p6167
I43
tp6168
a(I46
S'case'
p6169
I44
tp6170
a(I46
S'det'
p6171
I45
tp6172
a(I43
S'nmod'
p6173
I46
tp6174
a(I46
S'amod'
p6175
I47
tp6176
a(I49
S'advmod'
p6177
I48
tp6178
a(I46
S'amod'
p6179
I49
tp6180
a(I0
S'punct'
p6181
I50
tp6182
a(I62
S'mark'
p6183
I51
tp6184
a(I62
S'nsubj'
p6185
I52
tp6186
a(I54
S'case'
p6187
I53
tp6188
a(I52
S'nmod'
p6189
I54
tp6190
a(I52
S'punct'
p6191
I55
tp6192
a(I52
S'cc'
p6193
I56
tp6194
a(I58
S'det'
p6195
I57
tp6196
a(I52
S'conj'
p6197
I58
tp6198
a(I60
S'case'
p6199
I59
tp6200
a(I58
S'nmod'
p6201
I60
tp6202
a(I52
S'punct'
p6203
I61
tp6204
a(I0
S'advcl'
p6205
I62
tp6206
a(I0
S'punct'
p6207
I63
tp6208
aa(lp6209
(I2
S'case'
p6210
I0
tp6211
a(I0
S'mwe'
p6212
I1
tp6213
a(I2
g17
I2
tp6214
a(I4
S'case'
p6215
I3
tp6216
a(I2
S'nmod'
p6217
I4
tp6218
a(I2
S'punct'
p6219
I5
tp6220
a(I2
S'acl'
p6221
I6
tp6222
a(I9
S'mark'
p6223
I7
tp6224
a(I9
S'aux'
p6225
I8
tp6226
a(I6
S'ccomp'
p6227
I9
tp6228
a(I11
S'case'
p6229
I10
tp6230
a(I9
S'nmod'
p6231
I11
tp6232
a(I9
S'punct'
p6233
I12
tp6234
a(I14
S'case'
p6235
I13
tp6236
a(I9
S'nmod'
p6237
I14
tp6238
a(I17
S'case'
p6239
I15
tp6240
a(I17
S'det'
p6241
I16
tp6242
a(I14
S'nmod'
p6243
I17
tp6244
a(I17
S'punct'
p6245
I18
tp6246
a(I20
S'case'
p6247
I19
tp6248
a(I17
S'nmod'
p6249
I20
tp6250
a(I20
S'nummod'
p6251
I21
tp6252
a(I21
S'cc'
p6253
I22
tp6254
a(I21
S'conj'
p6255
I23
tp6256
a(I9
S'punct'
p6257
I24
tp6258
a(I26
S'advmod'
p6259
I25
tp6260
a(I29
S'case'
p6261
I26
tp6262
a(I26
S'mwe'
p6263
I27
tp6264
a(I29
S'det'
p6265
I28
tp6266
a(I9
S'nmod'
p6267
I29
tp6268
a(I2
S'punct'
p6269
I30
tp6270
aa(lp6271
(I1
S'aux'
p6272
I0
tp6273
a(I1
g17
I1
tp6274
a(I4
S'case'
p6275
I2
tp6276
a(I4
S'det'
p6277
I3
tp6278
a(I1
S'nmod'
p6279
I4
tp6280
a(I4
S'amod'
p6281
I5
tp6282
a(I8
S'punct'
p6283
I6
tp6284
a(I8
S'cc'
p6285
I7
tp6286
a(I1
S'parataxis'
p6287
I8
tp6288
a(I10
S'mark'
p6289
I9
tp6290
a(I8
S'xcomp'
p6291
I10
tp6292
a(I8
S'punct'
p6293
I11
tp6294
a(I16
S'nsubj'
p6295
I12
tp6296
a(I15
S'case'
p6297
I13
tp6298
a(I15
S'det'
p6299
I14
tp6300
a(I16
S'nmod'
p6301
I15
tp6302
a(I1
S'ccomp'
p6303
I16
tp6304
a(I16
S'advmod'
p6305
I17
tp6306
a(I26
S'mark'
p6307
I18
tp6308
a(I26
S'advmod'
p6309
I19
tp6310
a(I26
S'nsubj'
p6311
I20
tp6312
a(I20
S'punct'
p6313
I21
tp6314
a(I20
S'appos'
p6315
I22
tp6316
a(I24
S'case'
p6317
I23
tp6318
a(I22
S'nmod'
p6319
I24
tp6320
a(I24
S'name'
p6321
I24
tp6322
a(I20
S'punct'
p6323
I25
tp6324
a(I16
S'advcl'
p6325
I26
tp6326
a(I26
S'xcomp'
p6327
I27
tp6328
a(I1
S'punct'
p6329
I28
tp6330
aa(lp6331
(I0
g17
I0
tp6332
a(I0
S'nsubj'
p6333
I1
tp6334
a(I1
S'amod'
p6335
I2
tp6336
a(I9
S'mark'
p6337
I3
tp6338
a(I5
S'det'
p6339
I4
tp6340
a(I9
S'nsubj'
p6341
I5
tp6342
a(I7
S'case'
p6343
I6
tp6344
a(I5
S'nmod'
p6345
I7
tp6346
a(I9
S'cop'
p6347
I8
tp6348
a(I0
S'advcl'
p6349
I9
tp6350
a(I9
S'amod'
p6351
I10
tp6352
a(I12
S'case'
p6353
I11
tp6354
a(I10
S'nmod'
p6355
I12
tp6356
a(I14
S'case'
p6357
I13
tp6358
a(I12
S'nmod'
p6359
I14
tp6360
a(I16
S'case'
p6361
I15
tp6362
a(I12
S'nmod'
p6363
I16
tp6364
a(I16
S'cc'
p6365
I17
tp6366
a(I19
S'case'
p6367
I18
tp6368
a(I16
S'conj'
p6369
I19
tp6370
a(I9
S'punct'
p6371
I20
tp6372
a(I9
S'cc'
p6373
I21
tp6374
a(I24
S'nsubj'
p6375
I22
tp6376
a(I24
S'aux'
p6377
I23
tp6378
a(I9
S'conj'
p6379
I24
tp6380
a(I26
S'case'
p6381
I25
tp6382
a(I24
S'nmod'
p6383
I26
tp6384
a(I29
S'case'
p6385
I27
tp6386
a(I29
S'amod'
p6387
I28
tp6388
a(I26
S'nmod'
p6389
I29
tp6390
a(I31
S'case'
p6391
I30
tp6392
a(I32
S'nmod'
p6393
I31
tp6394
a(I29
S'acl:relcl'
p6395
I32
tp6396
a(I34
S'det'
p6397
I33
tp6398
a(I32
S'nsubj'
p6399
I34
tp6400
a(I34
S'amod'
p6401
I35
tp6402
a(I38
S'case'
p6403
I36
tp6404
a(I38
S'det:poss'
p6405
I37
tp6406
a(I24
S'nmod'
p6407
I38
tp6408
a(I0
S'punct'
p6409
I39
tp6410
aa(lp6411
(I1
S'case'
p6412
I0
tp6413
a(I5
S'nmod'
p6414
I1
tp6415
a(I5
S'neg'
p6416
I2
tp6417
a(I5
S'aux'
p6418
I3
tp6419
a(I5
S'auxpass'
p6420
I4
tp6421
a(I5
g17
I5
tp6422
a(I8
S'case'
p6423
I6
tp6424
a(I8
S'det'
p6425
I7
tp6426
a(I5
S'nmod'
p6427
I8
tp6428
a(I10
S'nsubj'
p6429
I9
tp6430
a(I8
S'acl:relcl'
p6431
I10
tp6432
a(I10
S'dobj'
p6433
I11
tp6434
a(I5
S'cc'
p6435
I12
tp6436
a(I5
S'conj'
p6437
I13
tp6438
a(I13
S'dobj'
p6439
I14
tp6440
a(I16
S'case'
p6441
I15
tp6442
a(I14
S'nmod'
p6443
I16
tp6444
a(I16
S'amod'
p6445
I17
tp6446
a(I17
S'cc'
p6447
I18
tp6448
a(I17
S'conj'
p6449
I19
tp6450
a(I13
S'punct'
p6451
I20
tp6452
a(I22
S'case'
p6453
I21
tp6454
a(I13
S'nmod'
p6455
I22
tp6456
a(I24
S'case'
p6457
I23
tp6458
a(I26
S'nmod'
p6459
I24
tp6460
a(I26
S'cop'
p6461
I25
tp6462
a(I22
S'acl:relcl'
p6463
I26
tp6464
a(I26
S'csubj'
p6465
I27
tp6466
a(I30
S'det'
p6467
I28
tp6468
a(I30
S'amod'
p6469
I29
tp6470
a(I27
S'dobj'
p6471
I30
tp6472
a(I5
S'punct'
p6473
I31
tp6474
aa(lp6475
(I1
S'det'
p6476
I0
tp6477
a(I2
S'nsubj'
p6478
I1
tp6479
a(I2
g17
I2
tp6480
a(I4
S'det'
p6481
I3
tp6482
a(I2
S'dobj'
p6483
I4
tp6484
a(I6
S'mark'
p6485
I5
tp6486
a(I4
S'acl'
p6487
I6
tp6488
a(I8
S'det'
p6489
I7
tp6490
a(I6
S'dobj'
p6491
I8
tp6492
a(I10
S'nsubj'
p6493
I9
tp6494
a(I8
S'acl:relcl'
p6495
I10
tp6496
a(I2
S'punct'
p6497
I11
tp6498
a(I2
S'cc'
p6499
I12
tp6500
a(I14
S'nsubj'
p6501
I13
tp6502
a(I2
S'conj'
p6503
I14
tp6504
a(I16
S'det'
p6505
I15
tp6506
a(I14
S'dobj'
p6507
I16
tp6508
a(I18
S'mark'
p6509
I17
tp6510
a(I16
S'acl'
p6511
I18
tp6512
a(I21
S'det'
p6513
I19
tp6514
a(I21
S'det:poss'
p6515
I20
tp6516
a(I18
S'dobj'
p6517
I21
tp6518
a(I23
S'case'
p6519
I22
tp6520
a(I21
S'nmod'
p6521
I23
tp6522
a(I23
S'amod'
p6523
I24
tp6524
a(I2
S'punct'
p6525
I25
tp6526
aa(lp6527
(I6
S'vocative'
p6528
I0
tp6529
a(I0
S'compound'
p6530
I1
tp6531
a(I3
S'case'
p6532
I2
tp6533
a(I0
S'nmod'
p6534
I3
tp6535
a(I0
S'punct'
p6536
I4
tp6537
a(I6
S'aux'
p6538
I5
tp6539
a(I6
g17
I6
tp6540
a(I12
S'mark'
p6541
I7
tp6542
a(I9
S'case'
p6543
I8
tp6544
a(I12
S'nmod'
p6545
I9
tp6546
a(I9
S'amod'
p6547
I10
tp6548
a(I12
S'expl'
p6549
I11
tp6550
a(I6
S'ccomp'
p6551
I12
tp6552
a(I14
S'det'
p6553
I13
tp6554
a(I12
S'nsubj'
p6555
I14
tp6556
a(I17
S'nsubj'
p6557
I15
tp6558
a(I17
S'aux'
p6559
I16
tp6560
a(I14
S'acl:relcl'
p6561
I17
tp6562
a(I17
S'advmod'
p6563
I18
tp6564
a(I17
S'dobj'
p6565
I19
tp6566
a(I21
S'case'
p6567
I20
tp6568
a(I19
S'nmod'
p6569
I21
tp6570
a(I21
S'amod'
p6571
I22
tp6572
a(I6
S'punct'
p6573
I23
tp6574
aa(lp6575
(I7
S'advmod'
p6576
I0
tp6577
a(I0
S'punct'
p6578
I1
tp6579
a(I3
S'case'
p6580
I2
tp6581
a(I7
S'nmod'
p6582
I3
tp6583
a(I3
S'amod'
p6584
I4
tp6585
a(I7
S'cop'
p6586
I5
tp6587
a(I7
S'det'
p6588
I6
tp6589
a(I7
g17
I7
tp6590
a(I9
S'mark'
p6591
I8
tp6592
a(I7
S'acl'
p6593
I9
tp6594
a(I9
S'punct'
p6595
I10
tp6596
a(I13
S'neg'
p6597
I11
tp6598
a(I13
S'det'
p6599
I12
tp6600
a(I9
S'conj'
p6601
I13
tp6602
a(I7
S'punct'
p6603
I14
tp6604
aa(lp6605
(I2
S'case'
p6606
I0
tp6607
a(I2
S'det:poss'
p6608
I1
tp6609
a(I9
S'nmod'
p6610
I2
tp6611
a(I4
S'case'
p6612
I3
tp6613
a(I2
S'nmod'
p6614
I4
tp6615
a(I6
S'case'
p6616
I5
tp6617
a(I4
S'nmod'
p6618
I6
tp6619
a(I6
S'nmod'
p6620
I7
tp6621
a(I9
S'aux'
p6622
I8
tp6623
a(I9
g17
I9
tp6624
a(I24
S'mark'
p6625
I10
tp6626
a(I12
S'det'
p6627
I11
tp6628
a(I24
S'nsubj'
p6629
I12
tp6630
a(I12
S'acl'
p6631
I13
tp6632
a(I16
S'case'
p6633
I14
tp6634
a(I16
S'nummod'
p6635
I15
tp6636
a(I13
S'nmod'
p6637
I16
tp6638
a(I16
S'compound'
p6639
I17
tp6640
a(I16
S'cc'
p6641
I18
tp6642
a(I21
S'case'
p6643
I19
tp6644
a(I21
S'amod'
p6645
I20
tp6646
a(I16
S'conj'
p6647
I21
tp6648
a(I23
S'case'
p6649
I22
tp6650
a(I21
S'nmod'
p6651
I23
tp6652
a(I9
S'ccomp'
p6653
I24
tp6654
a(I26
S'case'
p6655
I25
tp6656
a(I24
S'nmod'
p6657
I26
tp6658
a(I26
S'amod'
p6659
I27
tp6660
a(I9
S'punct'
p6661
I28
tp6662
aa(lp6663
(I2
S'case'
p6664
I0
tp6665
a(I2
S'det'
p6666
I1
tp6667
a(I8
S'nmod'
p6668
I2
tp6669
a(I2
S'punct'
p6670
I3
tp6671
a(I8
S'aux'
p6672
I4
tp6673
a(I6
S'det'
p6674
I5
tp6675
a(I8
S'nsubj'
p6676
I6
tp6677
a(I6
S'compound'
p6678
I7
tp6679
a(I8
g17
I8
tp6680
a(I10
S'mark'
p6681
I9
tp6682
a(I8
S'xcomp'
p6683
I10
tp6684
a(I12
S'case'
p6685
I11
tp6686
a(I10
S'nmod'
p6687
I12
tp6688
a(I15
S'case'
p6689
I13
tp6690
a(I15
S'det'
p6691
I14
tp6692
a(I12
S'nmod'
p6693
I15
tp6694
a(I15
S'amod'
p6695
I16
tp6696
a(I10
S'cc'
p6697
I17
tp6698
a(I10
S'conj'
p6699
I18
tp6700
a(I20
S'case'
p6701
I19
tp6702
a(I18
S'nmod'
p6703
I20
tp6704
a(I20
S'amod'
p6705
I21
tp6706
a(I8
S'punct'
p6707
I22
tp6708
aa(lp6709
(I3
S'mark'
p6710
I0
tp6711
a(I3
S'nsubj'
p6712
I1
tp6713
a(I3
S'cop'
p6714
I2
tp6715
a(I3
g17
I3
tp6716
a(I3
S'punct'
p6717
I4
tp6718
a(I6
S'mark'
p6719
I5
tp6720
a(I3
S'advcl'
p6721
I6
tp6722
a(I8
S'det'
p6723
I7
tp6724
a(I6
S'dobj'
p6725
I8
tp6726
a(I8
S'acl'
p6727
I9
tp6728
a(I11
S'det'
p6729
I10
tp6730
a(I9
S'dobj'
p6731
I11
tp6732
a(I11
S'amod'
p6733
I12
tp6734
a(I15
S'case'
p6735
I13
tp6736
a(I15
S'det'
p6737
I14
tp6738
a(I9
S'nmod'
p6739
I15
tp6740
a(I17
S'nsubj'
p6741
I16
tp6742
a(I15
S'acl:relcl'
p6743
I17
tp6744
a(I20
S'det'
p6745
I18
tp6746
a(I20
S'det:poss'
p6747
I19
tp6748
a(I17
S'dobj'
p6749
I20
tp6750
a(I20
S'amod'
p6751
I21
tp6752
a(I3
S'punct'
p6753
I22
tp6754
aa(lp6755
(I0
g17
I0
tp6756
a(I0
S'advmod'
p6757
I1
tp6758
a(I3
S'mark'
p6759
I2
tp6760
a(I1
S'advcl'
p6761
I3
tp6762
a(I3
S'ccomp'
p6763
I4
tp6764
a(I6
S'det'
p6765
I5
tp6766
a(I4
S'dobj'
p6767
I6
tp6768
a(I8
S'case'
p6769
I7
tp6770
a(I4
S'nmod'
p6771
I8
tp6772
a(I3
S'cc'
p6773
I9
tp6774
a(I11
S'nsubj'
p6775
I10
tp6776
a(I20
S'nsubj'
p6777
I11
tp6778
a(I13
S'mark'
p6779
I12
tp6780
a(I20
S'advcl'
p6781
I13
tp6782
a(I15
S'det'
p6783
I14
tp6784
a(I13
S'dobj'
p6785
I15
tp6786
a(I17
S'det'
p6787
I16
tp6788
a(I13
S'dobj'
p6789
I17
tp6790
a(I17
S'compound'
p6791
I18
tp6792
a(I20
S'aux'
p6793
I19
tp6794
a(I3
S'conj'
p6795
I20
tp6796
a(I20
S'advmod'
p6797
I21
tp6798
a(I23
S'mark'
p6799
I22
tp6800
a(I20
S'xcomp'
p6801
I23
tp6802
a(I25
S'case'
p6803
I24
tp6804
a(I23
S'nmod'
p6805
I25
tp6806
a(I0
S'punct'
p6807
I26
tp6808
aa(lp6809
(I3
S'advmod'
p6810
I0
tp6811
a(I3
S'neg'
p6812
I1
tp6813
a(I3
S'aux'
p6814
I2
tp6815
a(I3
g17
I3
tp6816
a(I3
S'advmod'
p6817
I4
tp6818
a(I3
S'nsubj'
p6819
I5
tp6820
a(I8
S'dobj'
p6821
I6
tp6822
a(I8
S'aux'
p6823
I7
tp6824
a(I5
S'acl:relcl'
p6825
I8
tp6826
a(I8
S'cc'
p6827
I9
tp6828
a(I12
S'expl'
p6829
I10
tp6830
a(I12
S'aux'
p6831
I11
tp6832
a(I8
S'conj'
p6833
I12
tp6834
a(I14
S'det'
p6835
I13
tp6836
a(I8
S'nsubj'
p6837
I14
tp6838
a(I16
S'case'
p6839
I15
tp6840
a(I14
S'nmod'
p6841
I16
tp6842
a(I3
S'punct'
p6843
I17
tp6844
aa(lp6845
(I3
S'neg'
p6846
I0
tp6847
a(I3
S'aux'
p6848
I1
tp6849
a(I3
S'advmod'
p6850
I2
tp6851
a(I3
g17
I3
tp6852
a(I10
S'mark'
p6853
I4
tp6854
a(I6
S'det'
p6855
I5
tp6856
a(I10
S'nsubj'
p6857
I6
tp6858
a(I6
S'amod'
p6859
I7
tp6860
a(I10
S'cop'
p6861
I8
tp6862
a(I10
S'det'
p6863
I9
tp6864
a(I3
S'ccomp'
p6865
I10
tp6866
a(I10
S'amod'
p6867
I11
tp6868
a(I10
S'punct'
p6869
I12
tp6870
a(I15
S'cop'
p6871
I13
tp6872
a(I15
S'advmod'
p6873
I14
tp6874
a(I10
S'advcl'
p6875
I15
tp6876
a(I3
S'punct'
p6877
I16
tp6878
aa(lp6879
(I1
S'expl'
p6880
I0
tp6881
a(I1
g17
I1
tp6882
a(I1
S'nsubj'
p6883
I2
tp6884
a(I4
S'case'
p6885
I3
tp6886
a(I1
S'nmod'
p6887
I4
tp6888
a(I4
S'amod'
p6889
I5
tp6890
a(I4
S'punct'
p6891
I6
tp6892
a(I9
S'case'
p6893
I7
tp6894
a(I9
S'det'
p6895
I8
tp6896
a(I11
S'nmod'
p6897
I9
tp6898
a(I11
S'aux'
p6899
I10
tp6900
a(I4
S'acl:relcl'
p6901
I11
tp6902
a(I13
S'case'
p6903
I12
tp6904
a(I11
S'nmod'
p6905
I13
tp6906
a(I13
S'cc'
p6907
I14
tp6908
a(I16
S'case'
p6909
I15
tp6910
a(I17
S'nmod'
p6911
I16
tp6912
a(I13
S'conj'
p6913
I17
tp6914
a(I19
S'mark'
p6915
I18
tp6916
a(I17
S'xcomp'
p6917
I19
tp6918
a(I21
S'mark'
p6919
I20
tp6920
a(I19
S'xcomp'
p6921
I21
tp6922
a(I23
S'case'
p6923
I22
tp6924
a(I21
S'nmod'
p6925
I23
tp6926
a(I17
S'punct'
p6927
I24
tp6928
a(I28
S'nsubj'
p6929
I25
tp6930
a(I28
S'cop'
p6931
I26
tp6932
a(I28
S'advmod'
p6933
I27
tp6934
a(I17
S'acl:relcl'
p6935
I28
tp6936
a(I30
S'case'
p6937
I29
tp6938
a(I28
S'nmod'
p6939
I30
tp6940
a(I30
S'dobj'
p6941
I31
tp6942
a(I33
S'case'
p6943
I32
tp6944
a(I30
S'nmod'
p6945
I33
tp6946
a(I33
S'amod'
p6947
I34
tp6948
a(I1
S'punct'
p6949
I35
tp6950
aa(lp6951
(I0
g17
I0
tp6952
a(I0
S'nmod'
p6953
I1
tp6954
a(I1
S'acl:relcl'
p6955
I2
tp6956
a(I4
S'advmod'
p6957
I3
tp6958
a(I2
S'advcl'
p6959
I4
tp6960
a(I8
S'mark'
p6961
I5
tp6962
a(I7
S'det'
p6963
I6
tp6964
a(I8
S'nsubj'
p6965
I7
tp6966
a(I4
S'ccomp'
p6967
I8
tp6968
a(I11
S'case'
p6969
I9
tp6970
a(I11
S'det:poss'
p6971
I10
tp6972
a(I8
S'nmod'
p6973
I11
tp6974
a(I13
S'det'
p6975
I12
tp6976
a(I33
S'nmod'
p6977
I13
tp6978
a(I16
S'det'
p6979
I14
tp6980
a(I16
S'det:poss'
p6981
I15
tp6982
a(I33
S'nsubj'
p6983
I16
tp6984
a(I16
S'punct'
p6985
I17
tp6986
a(I21
S'mark'
p6987
I18
tp6988
a(I18
S'mwe'
p6989
I19
tp6990
a(I21
S'aux'
p6991
I20
tp6992
a(I33
S'advcl'
p6993
I21
tp6994
a(I21
S'dobj'
p6995
I22
tp6996
a(I24
S'advmod'
p6997
I23
tp6998
a(I22
S'amod'
p6999
I24
tp7000
a(I26
S'case'
p7001
I25
tp7002
a(I22
S'nmod'
p7003
I26
tp7004
a(I28
S'case'
p7005
I27
tp7006
a(I26
S'nmod'
p7007
I28
tp7008
a(I28
S'cc'
p7009
I29
tp7010
a(I28
S'conj'
p7011
I30
tp7012
a(I21
S'punct'
p7013
I31
tp7014
a(I33
S'aux'
p7015
I32
tp7016
a(I8
S'advcl'
p7017
I33
tp7018
a(I35
S'mark'
p7019
I34
tp7020
a(I33
S'xcomp'
p7021
I35
tp7022
a(I38
S'punct'
p7023
I36
tp7024
a(I38
S'case'
p7025
I37
tp7026
a(I35
S'nmod'
p7027
I38
tp7028
a(I38
S'amod'
p7029
I39
tp7030
a(I38
S'punct'
p7031
I40
tp7032
a(I38
S'compound'
p7033
I41
tp7034
a(I41
S'amod'
p7035
I42
tp7036
a(I44
S'nsubj'
p7037
I43
tp7038
a(I41
S'acl:relcl'
p7039
I44
tp7040
a(I44
S'advmod'
p7041
I45
tp7042
a(I47
S'det'
p7043
I46
tp7044
a(I44
S'dobj'
p7045
I47
tp7046
a(I47
S'amod'
p7047
I48
tp7048
a(I0
S'punct'
p7049
I49
tp7050
aa(lp7051
(I5
S'cc'
p7052
I0
tp7053
a(I5
S'advmod'
p7054
I1
tp7055
a(I5
S'neg'
p7056
I2
tp7057
a(I5
S'dobj'
p7058
I3
tp7059
a(I5
S'aux'
p7060
I4
tp7061
a(I5
g17
I5
tp7062
a(I7
S'case'
p7063
I6
tp7064
a(I5
S'nmod'
p7065
I7
tp7066
a(I9
S'case'
p7067
I8
tp7068
a(I7
S'nmod'
p7069
I9
tp7070
a(I12
S'det'
p7071
I10
tp7072
a(I12
S'amod'
p7073
I11
tp7074
a(I5
S'nsubj'
p7075
I12
tp7076
a(I16
S'case'
p7077
I13
tp7078
a(I13
S'mwe'
p7079
I14
tp7080
a(I16
S'det:poss'
p7081
I15
tp7082
a(I12
S'nmod'
p7083
I16
tp7084
a(I19
S'case'
p7085
I17
tp7086
a(I19
S'det'
p7087
I18
tp7088
a(I5
S'nmod'
p7089
I19
tp7090
a(I21
S'case'
p7091
I20
tp7092
a(I19
S'nmod'
p7093
I21
tp7094
a(I5
S'punct'
p7095
I22
tp7096
aa(lp7097
(I3
S'case'
p7098
I0
tp7099
a(I0
S'mwe'
p7100
I1
tp7101
a(I3
S'amod'
p7102
I2
tp7103
a(I8
S'nmod'
p7104
I3
tp7105
a(I3
S'punct'
p7106
I4
tp7107
a(I6
S'det'
p7108
I5
tp7109
a(I8
S'nsubj'
p7110
I6
tp7111
a(I8
S'cop'
p7112
I7
tp7113
a(I8
g17
I8
tp7114
a(I8
S'punct'
p7115
I9
tp7116
aa(lp7117
(I1
S'det'
p7118
I0
tp7119
a(I3
S'nsubj'
p7120
I1
tp7121
a(I3
S'aux'
p7122
I2
tp7123
a(I3
g17
I3
tp7124
a(I5
S'case'
p7125
I4
tp7126
a(I3
S'nmod'
p7127
I5
tp7128
a(I5
S'acl'
p7129
I6
tp7130
a(I8
S'case'
p7131
I7
tp7132
a(I6
S'nmod'
p7133
I8
tp7134
a(I10
S'case'
p7135
I9
tp7136
a(I8
S'nmod'
p7137
I10
tp7138
a(I3
S'punct'
p7139
I11
tp7140
aa(lp7141
(I1
S'expl'
p7142
I0
tp7143
a(I1
g17
I1
tp7144
a(I4
S'case'
p7145
I2
tp7146
a(I4
S'nummod'
p7147
I3
tp7148
a(I1
S'nmod'
p7149
I4
tp7150
a(I4
S'amod'
p7151
I5
tp7152
a(I1
S'punct'
p7153
I6
tp7154
a(I8
S'det'
p7155
I7
tp7156
a(I11
S'nsubj'
p7157
I8
tp7158
a(I11
S'advmod'
p7159
I9
tp7160
a(I11
S'aux'
p7161
I10
tp7162
a(I1
S'acl:relcl'
p7163
I11
tp7164
a(I13
S'mark'
p7165
I12
tp7166
a(I11
S'xcomp'
p7167
I13
tp7168
a(I15
S'case'
p7169
I14
tp7170
a(I13
S'nmod'
p7171
I15
tp7172
a(I13
S'punct'
p7173
I16
tp7174
a(I18
S'case'
p7175
I17
tp7176
a(I13
S'nmod'
p7177
I18
tp7178
a(I18
S'amod'
p7179
I19
tp7180
a(I13
S'punct'
p7181
I20
tp7182
a(I23
S'det'
p7183
I21
tp7184
a(I23
S'det:poss'
p7185
I22
tp7186
a(I13
S'dobj'
p7187
I23
tp7188
a(I26
S'case'
p7189
I24
tp7190
a(I24
S'mwe'
p7191
I25
tp7192
a(I23
S'nmod'
p7193
I26
tp7194
a(I28
S'case'
p7195
I27
tp7196
a(I26
S'nmod'
p7197
I28
tp7198
a(I28
S'compound'
p7199
I29
tp7200
a(I13
S'punct'
p7201
I30
tp7202
a(I13
S'cc'
p7203
I31
tp7204
a(I37
S'nsubj'
p7205
I32
tp7206
a(I35
S'case'
p7207
I33
tp7208
a(I35
S'det'
p7209
I34
tp7210
a(I32
S'nmod'
p7211
I35
tp7212
a(I37
S'aux'
p7213
I36
tp7214
a(I13
S'conj'
p7215
I37
tp7216
a(I40
S'case'
p7217
I38
tp7218
a(I40
S'det'
p7219
I39
tp7220
a(I37
S'nmod'
p7221
I40
tp7222
a(I43
S'case'
p7223
I41
tp7224
a(I43
S'det'
p7225
I42
tp7226
a(I37
S'nmod'
p7227
I43
tp7228
a(I43
S'amod'
p7229
I44
tp7230
a(I1
S'punct'
p7231
I45
tp7232
aa(lp7233
(I2
S'det'
p7234
I0
tp7235
a(I2
S'amod'
p7236
I1
tp7237
a(I16
S'nsubj'
p7238
I2
tp7239
a(I2
S'punct'
p7240
I3
tp7241
a(I7
S'nsubj'
p7242
I4
tp7243
a(I7
S'dobj'
p7244
I5
tp7245
a(I7
S'aux'
p7246
I6
tp7247
a(I2
S'acl:relcl'
p7248
I7
tp7249
a(I9
S'mark'
p7250
I8
tp7251
a(I7
S'xcomp'
p7252
I9
tp7253
a(I12
S'case'
p7254
I10
tp7255
a(I12
S'det'
p7256
I11
tp7257
a(I9
S'nmod'
p7258
I12
tp7259
a(I2
S'punct'
p7260
I13
tp7261
a(I16
S'advmod'
p7262
I14
tp7263
a(I16
S'aux'
p7264
I15
tp7265
a(I16
g17
I16
tp7266
a(I18
S'mark'
p7267
I17
tp7268
a(I16
S'xcomp'
p7269
I18
tp7270
a(I18
S'punct'
p7271
I19
tp7272
a(I21
S'case'
p7273
I20
tp7274
a(I18
S'nmod'
p7275
I21
tp7276
a(I24
S'mark'
p7277
I22
tp7278
a(I24
S'expl'
p7279
I23
tp7280
a(I18
S'advcl'
p7281
I24
tp7282
a(I24
S'nsubj'
p7283
I25
tp7284
a(I25
S'amod'
p7285
I26
tp7286
a(I28
S'case'
p7287
I27
tp7288
a(I24
S'nmod'
p7289
I28
tp7290
a(I30
S'case'
p7291
I29
tp7292
a(I28
S'nmod'
p7293
I30
tp7294
a(I30
S'amod'
p7295
I31
tp7296
a(I16
S'punct'
p7297
I32
tp7298
aa(lp7299
(I2
S'nsubj'
p7300
I0
tp7301
a(I2
S'iobj'
p7302
I1
tp7303
a(I2
g17
I2
tp7304
a(I2
S'advmod'
p7305
I3
tp7306
a(I7
S'mark'
p7307
I4
tp7308
a(I6
S'det'
p7309
I5
tp7310
a(I7
S'nsubj'
p7311
I6
tp7312
a(I2
S'advcl'
p7313
I7
tp7314
a(I9
S'case'
p7315
I8
tp7316
a(I7
S'nmod'
p7317
I9
tp7318
a(I9
S'amod'
p7319
I10
tp7320
a(I12
S'mark'
p7321
I11
tp7322
a(I7
S'xcomp'
p7323
I12
tp7324
a(I15
S'case'
p7325
I13
tp7326
a(I15
S'det'
p7327
I14
tp7328
a(I12
S'nmod'
p7329
I15
tp7330
a(I2
S'punct'
p7331
I16
tp7332
aa(lp7333
(I3
S'neg'
p7334
I0
tp7335
a(I3
S'expl:impers'
p7336
I1
tp7337
a(I3
S'aux'
p7338
I2
tp7339
a(I3
g17
I3
tp7340
a(I3
S'punct'
p7341
I4
tp7342
a(I3
S'advmod'
p7343
I5
tp7344
a(I3
S'punct'
p7345
I6
tp7346
a(I16
S'mark'
p7347
I7
tp7348
a(I10
S'det:predet'
p7349
I8
tp7350
a(I10
S'det'
p7351
I9
tp7352
a(I16
S'nsubj'
p7353
I10
tp7354
a(I12
S'case'
p7355
I11
tp7356
a(I10
S'nmod'
p7357
I12
tp7358
a(I14
S'case'
p7359
I13
tp7360
a(I12
S'nmod'
p7361
I14
tp7362
a(I14
S'name'
p7363
I14
tp7364
a(I16
S'cop'
p7365
I15
tp7366
a(I3
S'ccomp'
p7367
I16
tp7368
a(I18
S'case'
p7369
I17
tp7370
a(I16
S'nmod'
p7371
I18
tp7372
a(I21
S'case'
p7373
I19
tp7374
a(I19
S'mwe'
p7375
I20
tp7376
a(I16
S'nmod'
p7377
I21
tp7378
a(I24
S'mark'
p7379
I22
tp7380
a(I24
S'nsubj'
p7381
I23
tp7382
a(I21
S'advcl'
p7383
I24
tp7384
a(I24
S'xcomp'
p7385
I25
tp7386
a(I27
S'case'
p7387
I26
tp7388
a(I25
S'nmod'
p7389
I27
tp7390
a(I29
S'case'
p7391
I28
tp7392
a(I25
S'nmod'
p7393
I29
tp7394
a(I31
S'mark'
p7395
I30
tp7396
a(I29
S'acl'
p7397
I31
tp7398
a(I33
S'case'
p7399
I32
tp7400
a(I31
S'nmod'
p7401
I33
tp7402
a(I33
S'compound'
p7403
I34
tp7404
a(I34
S'amod'
p7405
I35
tp7406
a(I37
S'case'
p7407
I36
tp7408
a(I34
S'nmod'
p7409
I37
tp7410
a(I37
S'cc'
p7411
I38
tp7412
a(I40
S'mark'
p7413
I39
tp7414
a(I37
S'conj'
p7415
I40
tp7416
a(I42
S'det'
p7417
I41
tp7418
a(I40
S'dobj'
p7419
I42
tp7420
a(I45
S'case'
p7421
I43
tp7422
a(I45
S'amod'
p7423
I44
tp7424
a(I42
S'nmod'
p7425
I45
tp7426
a(I3
S'punct'
p7427
I46
tp7428
aa(lp7429
(I1
S'nsubj'
p7430
I0
tp7431
a(I1
g17
I1
tp7432
a(I3
S'det'
p7433
I2
tp7434
a(I1
S'dobj'
p7435
I3
tp7436
a(I5
S'mark'
p7437
I4
tp7438
a(I3
S'acl'
p7439
I5
tp7440
a(I7
S'case'
p7441
I6
tp7442
a(I5
S'nmod'
p7443
I7
tp7444
a(I1
S'punct'
p7445
I8
tp7446
aa(lp7447
(I1
S'case'
p7448
I0
tp7449
a(I5
S'nmod'
p7450
I1
tp7451
a(I1
S'det:poss'
p7452
I2
tp7453
a(I1
S'punct'
p7454
I3
tp7455
a(I5
S'neg'
p7456
I4
tp7457
a(I5
g17
I5
tp7458
a(I5
S'nsubj'
p7459
I6
tp7460
a(I9
S'case'
p7461
I7
tp7462
a(I7
S'mwe'
p7463
I8
tp7464
a(I5
S'nmod'
p7465
I9
tp7466
a(I5
S'punct'
p7467
I10
tp7468
aa.