(lp1
(lp2
(I2
S'ROOT'
p3
I2
tp4
a(I2
S'nsubj'
p5
I0
tp6
a(I2
S'advmod'
p7
I1
tp8
a(I2
S'punct'
p9
I3
tp10
a(I5
S'nummod'
p11
I4
tp12
a(I11
S'nsubj'
p13
I5
tp14
a(I8
S'case'
p15
I6
tp16
a(I8
S'det'
p17
I7
tp18
a(I11
S'prep'
p19
I8
tp20
a(I11
S'advmod'
p21
I9
tp22
a(I11
S'mmod'
p23
I10
tp24
a(I2
S'ccomp'
p25
I11
tp26
a(I11
S'dobj'
p27
I12
tp28
a(I11
S'punct'
p29
I13
tp30
a(I11
S'dep'
p31
I14
tp32
a(I19
S'nummod'
p33
I15
tp34
a(I19
S'nn'
p35
I16
tp36
a(I19
S'nn'
p37
I17
tp38
a(I19
S'nn'
p39
I18
tp40
a(I14
S'dobj'
p41
I19
tp42
a(I26
S'mmod'
p43
I20
tp44
a(I24
S'case'
p45
I21
tp46
a(I24
S'nn'
p47
I22
tp48
a(I24
S'nn'
p49
I23
tp50
a(I26
S'prep'
p51
I24
tp52
a(I26
S'advmod'
p53
I25
tp54
a(I14
S'dep'
p55
I26
tp56
a(I28
S'nn'
p57
I27
tp58
a(I26
S'dobj'
p59
I28
tp60
a(I2
S'punct'
p61
I29
tp62
a(I2
S'punct'
p63
I30
tp64
aa(lp65
(I7
g3
I7
tp66
a(I1
S'case'
p67
I0
tp68
a(I7
S'prep'
p69
I1
tp70
a(I7
S'punct'
p71
I2
tp72
a(I7
S'loc'
p73
I3
tp74
a(I3
S'case'
p75
I4
tp76
a(I7
S'nsubj'
p77
I5
tp78
a(I7
S'advmod'
p79
I6
tp80
a(I9
S'nummod'
p81
I8
tp82
a(I12
S'nsubj'
p83
I9
tp84
a(I11
S'case'
p85
I10
tp86
a(I12
S'prep'
p87
I11
tp88
a(I7
S'dep'
p89
I12
tp90
a(I7
S'punct'
p91
I13
tp92
a(I15
S'case'
p93
I14
tp94
a(I15
S'dep'
p95
I15
tp96
a(I15
S'nummod'
p97
I15
tp98
a(I20
S'prep'
p99
I15
tp100
a(I15
S'case'
p101
I16
tp102
a(I20
S'punct'
p103
I17
tp104
a(I20
S'nsubj'
p105
I18
tp106
a(I20
S'advmod'
p107
I19
tp108
a(I7
S'conj'
p109
I20
tp110
a(I22
S'nummod'
p111
I21
tp112
a(I22
S'cc'
p113
I21
tp114
a(I22
S'nummod'
p115
I21
tp116
a(I23
S'clf'
p117
I22
tp118
a(I20
S'dobj'
p119
I23
tp120
a(I7
S'punct'
p121
I24
tp122
a(I30
S'loc'
p123
I25
tp124
a(I25
S'case'
p125
I26
tp126
a(I28
S'amod'
p127
I27
tp128
a(I30
S'nsubj'
p129
I28
tp130
a(I30
S'advmod'
p131
I29
tp132
a(I7
S'conj'
p133
I30
tp134
a(I31
S'dep'
p135
I31
tp136
a(I31
S'nummod'
p137
I31
tp138
a(I30
S'range'
p139
I31
tp140
a(I7
S'punct'
p141
I32
tp142
a(I35
S'nsubj'
p143
I33
tp144
a(I35
S'mmod'
p145
I34
tp146
a(I7
S'conj'
p147
I35
tp148
a(I36
S'dep'
p149
I36
tp150
a(I36
S'nummod'
p151
I36
tp152
a(I35
S'range'
p153
I36
tp154
a(I35
S'punct'
p155
I37
tp156
a(I7
S'punct'
p157
I38
tp158
aa(lp159
(I4
g3
I4
tp160
a(I4
S'nsubj'
p161
I0
tp162
a(I2
S'case'
p163
I1
tp164
a(I4
S'prep'
p165
I2
tp166
a(I2
S'case'
p167
I3
tp168
a(I4
S'punct'
p169
I5
tp170
a(I9
S'advmod'
p171
I6
tp172
a(I9
S'mmod'
p173
I7
tp174
a(I9
S'cc'
p175
I8
tp176
a(I4
S'dep'
p177
I9
tp178
a(I10
S'nn'
p179
I10
tp180
a(I13
S'nn'
p181
I10
tp182
a(I13
S'nummod'
p183
I11
tp184
a(I13
S'nn'
p185
I12
tp186
a(I9
S'dobj'
p187
I13
tp188
a(I9
S'punct'
p189
I14
tp190
a(I9
S'dep'
p191
I15
tp192
a(I9
S'conj'
p193
I16
tp194
a(I17
S'nn'
p195
I17
tp196
a(I22
S'assmod'
p197
I17
tp198
a(I17
S'case'
p199
I18
tp200
a(I22
S'conj'
p201
I19
tp202
a(I22
S'cc'
p203
I20
tp204
a(I22
S'nn'
p205
I21
tp206
a(I16
S'dobj'
p207
I22
tp208
a(I4
S'punct'
p209
I23
tp210
a(I31
S'case'
p211
I24
tp212
a(I31
S'conj'
p213
I25
tp214
a(I31
S'cc'
p215
I26
tp216
a(I31
S'assmod'
p217
I27
tp218
a(I27
S'case'
p219
I28
tp220
a(I31
S'conj'
p221
I29
tp222
a(I31
S'cc'
p223
I30
tp224
a(I32
S'prep'
p225
I31
tp226
a(I4
S'dep'
p227
I32
tp228
a(I32
S'dobj'
p229
I33
tp230
a(I4
S'punct'
p231
I34
tp232
a(I4
S'punct'
p233
I35
tp234
aa(lp235
(I1
g3
I1
tp236
a(I1
S'nsubj'
p237
I0
tp238
a(I1
S'punct'
p239
I2
tp240
a(I1
S'dobj'
p241
I3
tp242
a(I6
S'punct'
p243
I4
tp244
a(I6
S'amod'
p245
I5
tp246
a(I3
S'prnmod'
p247
I6
tp248
a(I3
S'punct'
p249
I7
tp250
a(I1
S'punct'
p251
I8
tp252
aa(lp253
(I10
g3
I10
tp254
a(I1
S'case'
p255
I0
tp256
a(I10
S'prep'
p257
I1
tp258
a(I3
S'advmod'
p259
I2
tp260
a(I6
S'relcl'
p261
I3
tp262
a(I3
S'mark'
p263
I4
tp264
a(I6
S'nn'
p265
I5
tp266
a(I1
S'dobj'
p267
I6
tp268
a(I10
S'punct'
p269
I7
tp270
a(I10
S'nsubj'
p271
I8
tp272
a(I10
S'tmod'
p273
I9
tp274
a(I10
S'asp'
p275
I11
tp276
a(I12
S'nn'
p277
I12
tp278
a(I12
S'nn'
p279
I12
tp280
a(I10
S'dobj'
p281
I12
tp282
a(I10
S'punct'
p283
I13
tp284
a(I10
S'conj'
p285
I14
tp286
a(I17
S'amod'
p287
I15
tp288
a(I17
S'nn'
p289
I16
tp290
a(I14
S'dobj'
p291
I17
tp292
a(I10
S'punct'
p293
I18
tp294
a(I10
S'conj'
p295
I19
tp296
a(I21
S'nn'
p297
I20
tp298
a(I19
S'dobj'
p299
I21
tp300
a(I10
S'cc'
p301
I22
tp302
a(I10
S'conj'
p303
I23
tp304
a(I25
S'nn'
p305
I24
tp306
a(I23
S'dobj'
p307
I25
tp308
a(I25
S'etc'
p309
I26
tp310
a(I10
S'punct'
p311
I27
tp312
a(I29
S'det'
p313
I28
tp314
a(I30
S'nsubj'
p315
I29
tp316
a(I10
S'conj'
p317
I30
tp318
a(I30
S'asp'
p319
I31
tp320
a(I34
S'assmod'
p321
I32
tp322
a(I32
S'case'
p323
I33
tp324
a(I30
S'dobj'
p325
I34
tp326
a(I10
S'punct'
p327
I35
tp328
a(I10
S'punct'
p329
I36
tp330
aa(lp331
(I9
g3
I9
tp332
a(I1
S'nummod'
p333
I0
tp334
a(I6
S'clf'
p335
I1
tp336
a(I5
S'nn'
p337
I2
tp338
a(I5
S'det'
p339
I3
tp340
a(I5
S'nn'
p341
I4
tp342
a(I6
S'nn'
p343
I5
tp344
a(I9
S'nsubj'
p345
I6
tp346
a(I8
S'case'
p347
I7
tp348
a(I9
S'prep'
p349
I8
tp350
a(I9
S'dobj'
p351
I10
tp352
a(I9
S'punct'
p353
I11
tp354
a(I9
S'punct'
p355
I12
tp356
aa(lp357
(I32
g3
I32
tp358
a(I3
S'nn'
p359
I0
tp360
a(I3
S'nn'
p361
I1
tp362
a(I3
S'nn'
p363
I2
tp364
a(I32
S'nsubj'
p365
I3
tp366
a(I32
S'punct'
p367
I4
tp368
a(I32
S'ba'
p369
I5
tp370
a(I9
S'case'
p371
I6
tp372
a(I9
S'nummod'
p373
I7
tp374
a(I9
S'nn'
p375
I8
tp376
a(I17
S'prep'
p377
I9
tp378
a(I17
S'punct'
p379
I10
tp380
a(I17
S'nsubj'
p381
I11
tp382
a(I17
S'punct'
p383
I12
tp384
a(I17
S'nsubj'
p385
I13
tp386
a(I17
S'advmod'
p387
I14
tp388
a(I17
S'dobj'
p389
I15
tp390
a(I17
S'advmod'
p391
I16
tp392
a(I31
S'relcl'
p393
I17
tp394
a(I19
S'amod'
p395
I18
tp396
a(I23
S'nn'
p397
I19
tp398
a(I23
S'amod'
p399
I20
tp400
a(I23
S'conj'
p401
I21
tp402
a(I23
S'cc'
p403
I22
tp404
a(I17
S'dobj'
p405
I23
tp406
a(I17
S'cc'
p407
I24
tp408
a(I26
S'advmod'
p409
I25
tp410
a(I17
S'conj'
p411
I26
tp412
a(I17
S'mark'
p413
I27
tp414
a(I31
S'conj'
p415
I28
tp416
a(I31
S'cc'
p417
I29
tp418
a(I31
S'nn'
p419
I30
tp420
a(I32
S'nsubj'
p421
I31
tp422
a(I32
S'dobj'
p423
I33
tp424
a(I32
S'punct'
p425
I34
tp426
a(I36
S'case'
p427
I35
tp428
a(I39
S'prep'
p429
I36
tp430
a(I36
S'dobj'
p431
I37
tp432
a(I39
S'punct'
p433
I38
tp434
a(I32
S'conj'
p435
I39
tp436
a(I39
S'dobj'
p437
I40
tp438
a(I32
S'punct'
p439
I41
tp440
a(I32
S'dep'
p441
I42
tp442
a(I42
S'dobj'
p443
I43
tp444
a(I32
S'punct'
p445
I44
tp446
a(I32
S'punct'
p447
I45
tp448
aa(lp449
(I1
g3
I1
tp450
a(I1
S'nsubj'
p451
I0
tp452
a(I1
S'punct'
p453
I2
tp454
a(I4
S'nummod'
p455
I3
tp456
a(I6
S'clf'
p457
I4
tp458
a(I6
S'nn'
p459
I5
tp460
a(I8
S'nsubj'
p461
I6
tp462
a(I8
S'advmod'
p463
I7
tp464
a(I1
S'ccomp'
p465
I8
tp466
a(I11
S'assmod'
p467
I9
tp468
a(I9
S'case'
p469
I10
tp470
a(I8
S'dobj'
p471
I11
tp472
a(I13
S'nsubj'
p473
I12
tp474
a(I8
S'conj'
p475
I13
tp476
a(I20
S'nsubj'
p477
I14
tp478
a(I20
S'advmod'
p479
I15
tp480
a(I20
S'mmod'
p481
I16
tp482
a(I20
S'advmod'
p483
I17
tp484
a(I20
S'dvpmod'
p485
I18
tp486
a(I18
S'mark'
p487
I19
tp488
a(I13
S'ccomp'
p489
I20
tp490
a(I25
S'assmod'
p491
I21
tp492
a(I21
S'case'
p493
I22
tp494
a(I25
S'conj'
p495
I23
tp496
a(I25
S'cc'
p497
I24
tp498
a(I20
S'dobj'
p499
I25
tp500
a(I20
S'punct'
p501
I26
tp502
a(I28
S'advmod'
p503
I27
tp504
a(I20
S'conj'
p505
I28
tp506
a(I20
S'punct'
p507
I29
tp508
a(I20
S'dep'
p509
I30
tp510
a(I32
S'amod'
p511
I31
tp512
a(I30
S'dobj'
p513
I32
tp514
a(I8
S'punct'
p515
I33
tp516
a(I1
S'punct'
p517
I34
tp518
aa(lp519
(I1
g3
I1
tp520
a(I1
S'nsubj'
p521
I0
tp522
a(I4
S'nn'
p523
I2
tp524
a(I4
S'nn'
p525
I3
tp526
a(I1
S'dobj'
p527
I4
tp528
a(I1
S'punct'
p529
I5
tp530
a(I1
S'punct'
p531
I6
tp532
aa(lp533
(I1
g3
I1
tp534
a(I1
S'nsubj'
p535
I0
tp536
a(I1
S'punct'
p537
I2
tp538
a(I3
S'nn'
p539
I3
tp540
a(I5
S'nn'
p541
I3
tp542
a(I5
S'nummod'
p543
I4
tp544
a(I14
S'nsubj'
p545
I5
tp546
a(I13
S'case'
p547
I6
tp548
a(I9
S'dep'
p549
I7
tp550
a(I9
S'punct'
p551
I8
tp552
a(I11
S'nn'
p553
I9
tp554
a(I9
S'etc'
p555
I10
tp556
a(I13
S'assmod'
p557
I11
tp558
a(I11
S'case'
p559
I12
tp560
a(I14
S'prep'
p561
I13
tp562
a(I1
S'ccomp'
p563
I14
tp564
a(I14
S'asp'
p565
I15
tp566
a(I18
S'assmod'
p567
I16
tp568
a(I16
S'case'
p569
I17
tp570
a(I14
S'dobj'
p571
I18
tp572
a(I14
S'punct'
p573
I19
tp574
a(I14
S'dep'
p575
I20
tp576
a(I26
S'nsubj'
p577
I21
tp578
a(I21
S'amod'
p579
I21
tp580
a(I21
S'nn'
p581
I21
tp582
a(I26
S'nsubj'
p583
I21
tp584
a(I25
S'case'
p585
I22
tp586
a(I25
S'nn'
p587
I23
tp588
a(I25
S'amod'
p589
I24
tp590
a(I26
S'prep'
p591
I25
tp592
a(I20
S'ccomp'
p593
I26
tp594
a(I32
S'case'
p595
I27
tp596
a(I32
S'amod'
p597
I28
tp598
a(I32
S'amod'
p599
I29
tp600
a(I32
S'nn'
p601
I30
tp602
a(I32
S'nn'
p603
I31
tp604
a(I35
S'assmod'
p605
I32
tp606
a(I32
S'case'
p607
I33
tp608
a(I35
S'amod'
p609
I34
tp610
a(I26
S'dobj'
p611
I35
tp612
a(I26
S'punct'
p613
I36
tp614
a(I1
S'punct'
p615
I37
tp616
aa(lp617
(I1
g3
I1
tp618
a(I0
S'nn'
p619
I0
tp620
a(I1
S'nsubj'
p621
I0
tp622
a(I3
S'nn'
p623
I2
tp624
a(I1
S'dobj'
p625
I3
tp626
a(I1
S'punct'
p627
I4
tp628
a(I1
S'punct'
p629
I5
tp630
aa(lp631
(I3
g3
I3
tp632
a(I1
S'nn'
p633
I0
tp634
a(I3
S'nsubj'
p635
I1
tp636
a(I3
S'advmod'
p637
I2
tp638
a(I3
S'dobj'
p639
I4
tp640
a(I3
S'punct'
p641
I5
tp642
a(I3
S'punct'
p643
I6
tp644
aa(lp645
(I2
g3
I2
tp646
a(I2
S'nsubj'
p647
I0
tp648
a(I2
S'advmod'
p649
I1
tp650
a(I2
S'dep'
p651
I3
tp652
a(I2
S'dep'
p653
I4
tp654
a(I6
S'nn'
p655
I5
tp656
a(I10
S'assmod'
p657
I6
tp658
a(I6
S'case'
p659
I7
tp660
a(I10
S'amod'
p661
I8
tp662
a(I10
S'nn'
p663
I9
tp664
a(I2
S'dobj'
p665
I10
tp666
a(I2
S'punct'
p667
I11
tp668
a(I2
S'punct'
p669
I12
tp670
aa(lp671
(I13
g3
I13
tp672
a(I1
S'case'
p673
I0
tp674
a(I13
S'prep'
p675
I1
tp676
a(I2
S'nummod'
p677
I2
tp678
a(I1
S'dep'
p679
I2
tp680
a(I1
S'case'
p681
I3
tp682
a(I13
S'punct'
p683
I4
tp684
a(I12
S'case'
p685
I5
tp686
a(I7
S'nsubj'
p687
I6
tp688
a(I12
S'relcl'
p689
I7
tp690
a(I7
S'dobj'
p691
I8
tp692
a(I7
S'mark'
p693
I9
tp694
a(I12
S'nn'
p695
I10
tp696
a(I12
S'nn'
p697
I11
tp698
a(I13
S'prep'
p699
I12
tp700
a(I13
S'punct'
p701
I14
tp702
a(I16
S'advmod'
p703
I15
tp704
a(I13
S'dep'
p705
I16
tp706
a(I16
S'dobj'
p707
I17
tp708
a(I13
S'punct'
p709
I18
tp710
a(I13
S'punct'
p711
I19
tp712
aa(lp713
(I22
g3
I22
tp714
a(I22
S'punct'
p715
I0
tp716
a(I22
S'dep'
p717
I1
tp718
a(I22
S'punct'
p719
I2
tp720
a(I5
S'nsubj'
p721
I3
tp722
a(I5
S'advmod'
p723
I4
tp724
a(I22
S'conj'
p725
I5
tp726
a(I5
S'asp'
p727
I6
tp728
a(I7
S'nn'
p729
I7
tp730
a(I14
S'nsubj'
p731
I7
tp732
a(I12
S'case'
p733
I8
tp734
a(I10
S'nn'
p735
I9
tp736
a(I12
S'nn'
p737
I10
tp738
a(I12
S'amod'
p739
I11
tp740
a(I14
S'prep'
p741
I12
tp742
a(I14
S'prtmod'
p743
I13
tp744
a(I5
S'dobj'
p745
I14
tp746
a(I14
S'mark'
p747
I15
tp748
a(I22
S'punct'
p749
I16
tp750
a(I18
S'nn'
p751
I17
tp752
a(I22
S'nsubj'
p753
I18
tp754
a(I22
S'advmod'
p755
I19
tp756
a(I22
S'dobj'
p757
I20
tp758
a(I22
S'mmod'
p759
I21
tp760
a(I22
S'dobj'
p761
I23
tp762
a(I22
S'punct'
p763
I24
tp764
a(I25
S'nn'
p765
I25
tp766
a(I26
S'nsubj'
p767
I25
tp768
a(I22
S'conj'
p769
I26
tp770
a(I26
S'dobj'
p771
I27
tp772
a(I26
S'punct'
p773
I28
tp774
a(I30
S'case'
p775
I29
tp776
a(I32
S'prep'
p777
I30
tp778
a(I32
S'mmod'
p779
I31
tp780
a(I26
S'conj'
p781
I32
tp782
a(I32
S'dobj'
p783
I33
tp784
a(I26
S'punct'
p785
I34
tp786
a(I26
S'cc'
p787
I35
tp788
a(I26
S'conj'
p789
I36
tp790
a(I40
S'nn'
p791
I37
tp792
a(I40
S'amod'
p793
I38
tp794
a(I40
S'nn'
p795
I39
tp796
a(I42
S'nsubj'
p797
I40
tp798
a(I42
S'advmod'
p799
I41
tp800
a(I46
S'relcl'
p801
I42
tp802
a(I44
S'nn'
p803
I43
tp804
a(I42
S'dobj'
p805
I44
tp806
a(I42
S'mark'
p807
I45
tp808
a(I36
S'dobj'
p809
I46
tp810
a(I22
S'punct'
p811
I47
tp812
a(I22
S'punct'
p813
I48
tp814
aa(lp815
(I1
g3
I1
tp816
a(I1
S'nsubj'
p817
I0
tp818
a(I1
S'punct'
p819
I2
tp820
a(I3
S'nn'
p821
I3
tp822
a(I4
S'nn'
p823
I3
tp824
a(I8
S'nsubj'
p825
I4
tp826
a(I8
S'advmod'
p827
I5
tp828
a(I8
S'advmod'
p829
I6
tp830
a(I8
S'mmod'
p831
I7
tp832
a(I1
S'ccomp'
p833
I8
tp834
a(I10
S'nummod'
p835
I9
tp836
a(I8
S'dobj'
p837
I10
tp838
a(I8
S'punct'
p839
I11
tp840
a(I43
S'advmod'
p841
I12
tp842
a(I22
S'advmod'
p843
I13
tp844
a(I22
S'nsubj'
p845
I14
tp846
a(I22
S'advmod'
p847
I15
tp848
a(I21
S'case'
p849
I16
tp850
a(I21
S'nfincl'
p851
I17
tp852
a(I20
S'nummod'
p853
I18
tp854
a(I20
S'nn'
p855
I19
tp856
a(I17
S'dobj'
p857
I20
tp858
a(I22
S'prep'
p859
I21
tp860
a(I43
S'dep'
p861
I22
tp862
a(I22
S'punct'
p863
I23
tp864
a(I25
S'mmod'
p865
I24
tp866
a(I22
S'conj'
p867
I25
tp868
a(I22
S'punct'
p869
I26
tp870
a(I22
S'conj'
p871
I27
tp872
a(I27
S'cc'
p873
I28
tp874
a(I27
S'dep'
p875
I29
tp876
a(I31
S'amod'
p877
I30
tp878
a(I29
S'dobj'
p879
I31
tp880
a(I22
S'punct'
p881
I32
tp882
a(I22
S'conj'
p883
I33
tp884
a(I22
S'cc'
p885
I34
tp886
a(I22
S'dep'
p887
I35
tp888
a(I37
S'amod'
p889
I36
tp890
a(I39
S'assmod'
p891
I37
tp892
a(I37
S'case'
p893
I38
tp894
a(I35
S'dobj'
p895
I39
tp896
a(I43
S'punct'
p897
I40
tp898
a(I43
S'advmod'
p899
I41
tp900
a(I43
S'mmod'
p901
I42
tp902
a(I8
S'conj'
p903
I43
tp904
a(I44
S'nn'
p905
I44
tp906
a(I45
S'nn'
p907
I44
tp908
a(I47
S'assmod'
p909
I45
tp910
a(I45
S'case'
p911
I46
tp912
a(I43
S'dobj'
p913
I47
tp914
a(I8
S'punct'
p915
I48
tp916
a(I50
S'advmod'
p917
I49
tp918
a(I8
S'conj'
p919
I50
tp920
a(I50
S'punct'
p921
I51
tp922
a(I54
S'case'
p923
I52
tp924
a(I54
S'nummod'
p925
I53
tp926
a(I55
S'prep'
p927
I54
tp928
a(I50
S'dep'
p929
I55
tp930
a(I57
S'advmod'
p931
I56
tp932
a(I59
S'relcl'
p933
I57
tp934
a(I57
S'mark'
p935
I58
tp936
a(I55
S'dobj'
p937
I59
tp938
a(I8
S'punct'
p939
I60
tp940
a(I1
S'punct'
p941
I61
tp942
aa(lp943
(I0
g3
I0
tp944
a(I0
S'nsubj'
p945
I0
tp946
a(I3
S'nn'
p947
I0
tp948
a(I3
S'nn'
p949
I1
tp950
a(I3
S'nn'
p951
I2
tp952
a(I6
S'nsubj'
p953
I3
tp954
a(I6
S'dep'
p955
I4
tp956
a(I4
S'clf'
p957
I5
tp958
a(I0
S'dobj'
p959
I6
tp960
a(I8
S'nummod'
p961
I7
tp962
a(I6
S'range'
p963
I8
tp964
a(I6
S'punct'
p965
I9
tp966
a(I14
S'dep'
p967
I10
tp968
a(I14
S'cop'
p969
I11
tp970
a(I13
S'case'
p971
I12
tp972
a(I14
S'prep'
p973
I13
tp974
a(I6
S'conj'
p975
I14
tp976
a(I6
S'mark'
p977
I15
tp978
a(I0
S'punct'
p979
I16
tp980
a(I21
S'tmod'
p981
I17
tp982
a(I21
S'advmod'
p983
I18
tp984
a(I20
S'case'
p985
I19
tp986
a(I21
S'prep'
p987
I20
tp988
a(I0
S'conj'
p989
I21
tp990
a(I0
S'punct'
p991
I22
tp992
a(I0
S'punct'
p993
I23
tp994
aa(lp995
(I9
g3
I9
tp996
a(I1
S'nn'
p997
I0
tp998
a(I9
S'dep'
p999
I1
tp1000
a(I9
S'punct'
p1001
I2
tp1002
a(I9
S'dep'
p1003
I3
tp1004
a(I9
S'punct'
p1005
I4
tp1006
a(I9
S'dep'
p1007
I5
tp1008
a(I9
S'punct'
p1009
I6
tp1010
a(I9
S'conj'
p1011
I7
tp1012
a(I9
S'cc'
p1013
I8
tp1014
a(I9
S'punct'
p1015
I10
tp1016
a(I11
S'nummod'
p1017
I11
tp1018
a(I9
S'dep'
p1019
I11
tp1020
a(I11
S'nummod'
p1021
I11
tp1022
a(I11
S'clf'
p1023
I11
tp1024
a(I11
S'cc'
p1025
I11
tp1026
a(I11
S'nummod'
p1027
I11
tp1028
a(I13
S'clf'
p1029
I11
tp1030
a(I13
S'case'
p1031
I12
tp1032
a(I13
S'prep'
p1033
I13
tp1034
a(I11
S'dobj'
p1035
I13
tp1036
a(I9
S'punct'
p1037
I14
tp1038
a(I9
S'punct'
p1039
I15
tp1040
a(I9
S'punct'
p1041
I16
tp1042
aa(lp1043
(I2
g3
I2
tp1044
a(I1
S'nn'
p1045
I0
tp1046
a(I2
S'nsubj'
p1047
I1
tp1048
a(I2
S'punct'
p1049
I3
tp1050
a(I7
S'nsubj'
p1051
I4
tp1052
a(I7
S'mmod'
p1053
I5
tp1054
a(I7
S'advmod'
p1055
I6
tp1056
a(I2
S'ccomp'
p1057
I7
tp1058
a(I9
S'case'
p1059
I8
tp1060
a(I12
S'assmod'
p1061
I9
tp1062
a(I9
S'case'
p1063
I10
tp1064
a(I12
S'amod'
p1065
I11
tp1066
a(I7
S'dobj'
p1067
I12
tp1068
a(I7
S'punct'
p1069
I13
tp1070
a(I25
S'nsubj'
p1071
I14
tp1072
a(I22
S'case'
p1073
I15
tp1074
a(I20
S'dep'
p1075
I16
tp1076
a(I20
S'punct'
p1077
I17
tp1078
a(I20
S'dep'
p1079
I18
tp1080
a(I20
S'punct'
p1081
I19
tp1082
a(I22
S'nn'
p1083
I20
tp1084
a(I20
S'etc'
p1085
I21
tp1086
a(I25
S'prep'
p1087
I22
tp1088
a(I25
S'advmod'
p1089
I23
tp1090
a(I25
S'mmod'
p1091
I24
tp1092
a(I7
S'conj'
p1093
I25
tp1094
a(I27
S'advmod'
p1095
I26
tp1096
a(I29
S'assmod'
p1097
I27
tp1098
a(I27
S'case'
p1099
I28
tp1100
a(I25
S'dobj'
p1101
I29
tp1102
a(I7
S'punct'
p1103
I30
tp1104
a(I2
S'punct'
p1105
I31
tp1106
aa(lp1107
(I1
g3
I1
tp1108
a(I1
S'nsubj'
p1109
I0
tp1110
a(I1
S'punct'
p1111
I2
tp1112
a(I4
S'nn'
p1113
I3
tp1114
a(I6
S'nsubj'
p1115
I4
tp1116
a(I6
S'prtmod'
p1117
I5
tp1118
a(I1
S'ccomp'
p1119
I6
tp1120
a(I9
S'nn'
p1121
I7
tp1122
a(I9
S'amod'
p1123
I8
tp1124
a(I6
S'dobj'
p1125
I9
tp1126
a(I13
S'advmod'
p1127
I10
tp1128
a(I13
S'advmod'
p1129
I11
tp1130
a(I13
S'neg'
p1131
I12
tp1132
a(I21
S'dep'
p1133
I13
tp1134
a(I21
S'punct'
p1135
I14
tp1136
a(I21
S'advmod'
p1137
I15
tp1138
a(I17
S'case'
p1139
I16
tp1140
a(I17
S'nummod'
p1141
I17
tp1142
a(I21
S'prep'
p1143
I17
tp1144
a(I17
S'case'
p1145
I18
tp1146
a(I21
S'advmod'
p1147
I19
tp1148
a(I21
S'advmod'
p1149
I20
tp1150
a(I6
S'conj'
p1151
I21
tp1152
a(I23
S'nummod'
p1153
I22
tp1154
a(I21
S'range'
p1155
I23
tp1156
a(I6
S'punct'
p1157
I24
tp1158
a(I1
S'punct'
p1159
I25
tp1160
aa(lp1161
(I2
g3
I2
tp1162
a(I2
S'nsubj'
p1163
I0
tp1164
a(I2
S'advmod'
p1165
I1
tp1166
a(I3
S'nummod'
p1167
I3
tp1168
a(I5
S'nummod'
p1169
I3
tp1170
a(I5
S'nn'
p1171
I4
tp1172
a(I2
S'dobj'
p1173
I5
tp1174
a(I2
S'punct'
p1175
I6
tp1176
a(I12
S'nsubj'
p1177
I7
tp1178
a(I9
S'nn'
p1179
I8
tp1180
a(I12
S'dep'
p1181
I9
tp1182
a(I10
S'dep'
p1183
I10
tp1184
a(I12
S'dep'
p1185
I10
tp1186
a(I12
S'punct'
p1187
I11
tp1188
a(I2
S'conj'
p1189
I12
tp1190
a(I15
S'nn'
p1191
I13
tp1192
a(I15
S'nn'
p1193
I14
tp1194
a(I18
S'assmod'
p1195
I15
tp1196
a(I15
S'case'
p1197
I16
tp1198
a(I18
S'nummod'
p1199
I17
tp1200
a(I12
S'range'
p1201
I18
tp1202
a(I12
S'punct'
p1203
I19
tp1204
a(I2
S'punct'
p1205
I20
tp1206
aa(lp1207
(I3
g3
I3
tp1208
a(I3
S'dep'
p1209
I0
tp1210
a(I3
S'nummod'
p1211
I1
tp1212
a(I3
S'dep'
p1213
I2
tp1214
a(I3
S'punct'
p1215
I4
tp1216
a(I3
S'punct'
p1217
I5
tp1218
aa(lp1219
(I6
g3
I6
tp1220
a(I2
S'case'
p1221
I0
tp1222
a(I2
S'nn'
p1223
I1
tp1224
a(I6
S'prep'
p1225
I2
tp1226
a(I2
S'case'
p1227
I3
tp1228
a(I6
S'punct'
p1229
I4
tp1230
a(I6
S'nsubj'
p1231
I5
tp1232
a(I8
S'nn'
p1233
I7
tp1234
a(I10
S'nsubj'
p1235
I8
tp1236
a(I10
S'advmod'
p1237
I9
tp1238
a(I12
S'relcl'
p1239
I10
tp1240
a(I10
S'mark'
p1241
I11
tp1242
a(I6
S'dobj'
p1243
I12
tp1244
a(I18
S'dep'
p1245
I13
tp1246
a(I13
S'clf'
p1247
I14
tp1248
a(I18
S'punct'
p1249
I15
tp1250
a(I17
S'nn'
p1251
I16
tp1252
a(I18
S'nsubj'
p1253
I17
tp1254
a(I6
S'conj'
p1255
I18
tp1256
a(I20
S'nsubj'
p1257
I19
tp1258
a(I18
S'ccomp'
p1259
I20
tp1260
a(I22
S'nummod'
p1261
I21
tp1262
a(I20
S'dobj'
p1263
I22
tp1264
a(I20
S'conj'
p1265
I23
tp1266
a(I20
S'punct'
p1267
I24
tp1268
a(I25
S'nummod'
p1269
I25
tp1270
a(I26
S'nummod'
p1271
I25
tp1272
a(I27
S'nsubj'
p1273
I26
tp1274
a(I20
S'conj'
p1275
I27
tp1276
a(I6
S'punct'
p1277
I28
tp1278
a(I6
S'punct'
p1279
I29
tp1280
aa(lp1281
(I12
g3
I12
tp1282
a(I3
S'dep'
p1283
I0
tp1284
a(I3
S'dep'
p1285
I1
tp1286
a(I3
S'punct'
p1287
I2
tp1288
a(I12
S'dep'
p1289
I3
tp1290
a(I12
S'advmod'
p1291
I4
tp1292
a(I6
S'nn'
p1293
I5
tp1294
a(I12
S'nsubj'
p1295
I6
tp1296
a(I12
S'advmod'
p1297
I7
tp1298
a(I9
S'case'
p1299
I8
tp1300
a(I9
S'nummod'
p1301
I9
tp1302
a(I9
S'dep'
p1303
I9
tp1304
a(I9
S'nummod'
p1305
I9
tp1306
a(I9
S'clf'
p1307
I9
tp1308
a(I9
S'cc'
p1309
I9
tp1310
a(I9
S'nummod'
p1311
I9
tp1312
a(I12
S'prep'
p1313
I9
tp1314
a(I11
S'case'
p1315
I10
tp1316
a(I12
S'prep'
p1317
I11
tp1318
a(I12
S'punct'
p1319
I13
tp1320
a(I12
S'punct'
p1321
I14
tp1322
aa(lp1323
(I1
g3
I1
tp1324
a(I1
S'nsubj'
p1325
I0
tp1326
a(I1
S'punct'
p1327
I2
tp1328
a(I5
S'conj'
p1329
I3
tp1330
a(I5
S'cc'
p1331
I4
tp1332
a(I8
S'nn'
p1333
I5
tp1334
a(I8
S'assmod'
p1335
I5
tp1336
a(I5
S'case'
p1337
I6
tp1338
a(I8
S'nn'
p1339
I7
tp1340
a(I10
S'nsubj'
p1341
I8
tp1342
a(I10
S'punct'
p1343
I9
tp1344
a(I1
S'ccomp'
p1345
I10
tp1346
a(I15
S'nsubj'
p1347
I11
tp1348
a(I13
S'case'
p1349
I12
tp1350
a(I15
S'prep'
p1351
I13
tp1352
a(I13
S'case'
p1353
I14
tp1354
a(I10
S'ccomp'
p1355
I15
tp1356
a(I15
S'asp'
p1357
I16
tp1358
a(I18
S'nummod'
p1359
I17
tp1360
a(I22
S'clf'
p1361
I18
tp1362
a(I22
S'punct'
p1363
I19
tp1364
a(I22
S'assmod'
p1365
I20
tp1366
a(I20
S'case'
p1367
I21
tp1368
a(I15
S'dobj'
p1369
I22
tp1370
a(I1
S'punct'
p1371
I23
tp1372
a(I1
S'punct'
p1373
I24
tp1374
a(I27
S'nn'
p1375
I25
tp1376
a(I27
S'amod'
p1377
I26
tp1378
a(I30
S'nsubj'
p1379
I27
tp1380
a(I30
S'cop'
p1381
I28
tp1382
a(I30
S'punct'
p1383
I29
tp1384
a(I1
S'dep'
p1385
I30
tp1386
a(I30
S'asp'
p1387
I31
tp1388
a(I34
S'nn'
p1389
I32
tp1390
a(I34
S'nn'
p1391
I33
tp1392
a(I30
S'dobj'
p1393
I34
tp1394
a(I1
S'punct'
p1395
I35
tp1396
a(I1
S'dep'
p1397
I36
tp1398
a(I36
S'asp'
p1399
I37
tp1400
a(I39
S'nn'
p1401
I38
tp1402
a(I36
S'dobj'
p1403
I39
tp1404
a(I36
S'punct'
p1405
I40
tp1406
a(I36
S'conj'
p1407
I41
tp1408
a(I41
S'asp'
p1409
I42
tp1410
a(I45
S'conj'
p1411
I43
tp1412
a(I45
S'cc'
p1413
I44
tp1414
a(I47
S'nn'
p1415
I45
tp1416
a(I47
S'nn'
p1417
I46
tp1418
a(I41
S'dobj'
p1419
I47
tp1420
a(I36
S'punct'
p1421
I48
tp1422
a(I1
S'punct'
p1423
I49
tp1424
aa(lp1425
(I10
g3
I10
tp1426
a(I2
S'dep'
p1427
I0
tp1428
a(I2
S'ordmod'
p1429
I1
tp1430
a(I10
S'nsubj'
p1431
I2
tp1432
a(I10
S'punct'
p1433
I3
tp1434
a(I5
S'nn'
p1435
I4
tp1436
a(I10
S'nsubj'
p1437
I5
tp1438
a(I10
S'punct'
p1439
I6
tp1440
a(I8
S'case'
p1441
I7
tp1442
a(I10
S'prep'
p1443
I8
tp1444
a(I10
S'mmod'
p1445
I9
tp1446
a(I10
S'punct'
p1447
I11
tp1448
a(I10
S'punct'
p1449
I12
tp1450
aa(lp1451
(I8
g3
I8
tp1452
a(I5
S'nn'
p1453
I0
tp1454
a(I5
S'det'
p1455
I1
tp1456
a(I5
S'nn'
p1457
I2
tp1458
a(I5
S'nn'
p1459
I3
tp1460
a(I5
S'nn'
p1461
I4
tp1462
a(I8
S'nsubj'
p1463
I5
tp1464
a(I7
S'case'
p1465
I6
tp1466
a(I8
S'prep'
p1467
I7
tp1468
a(I8
S'punct'
p1469
I9
tp1470
a(I8
S'punct'
p1471
I10
tp1472
aa(lp1473
(I2
g3
I2
tp1474
a(I1
S'case'
p1475
I0
tp1476
a(I2
S'prep'
p1477
I1
tp1478
a(I2
S'punct'
p1479
I3
tp1480
a(I5
S'nn'
p1481
I4
tp1482
a(I7
S'nsubj'
p1483
I5
tp1484
a(I7
S'advmod'
p1485
I6
tp1486
a(I2
S'ccomp'
p1487
I7
tp1488
a(I7
S'asp'
p1489
I8
tp1490
a(I11
S'nn'
p1491
I9
tp1492
a(I11
S'nn'
p1493
I10
tp1494
a(I14
S'conj'
p1495
I11
tp1496
a(I14
S'cc'
p1497
I12
tp1498
a(I14
S'amod'
p1499
I13
tp1500
a(I19
S'assmod'
p1501
I14
tp1502
a(I14
S'case'
p1503
I15
tp1504
a(I19
S'amod'
p1505
I16
tp1506
a(I19
S'conj'
p1507
I17
tp1508
a(I19
S'cc'
p1509
I18
tp1510
a(I7
S'dobj'
p1511
I19
tp1512
a(I2
S'punct'
p1513
I20
tp1514
a(I2
S'cc'
p1515
I21
tp1516
a(I23
S'nsubj'
p1517
I22
tp1518
a(I2
S'dep'
p1519
I23
tp1520
a(I23
S'dobj'
p1521
I24
tp1522
a(I2
S'punct'
p1523
I25
tp1524
a(I28
S'conj'
p1525
I26
tp1526
a(I28
S'cc'
p1527
I27
tp1528
a(I33
S'loc'
p1529
I28
tp1530
a(I28
S'case'
p1531
I29
tp1532
a(I33
S'assmod'
p1533
I30
tp1534
a(I30
S'case'
p1535
I31
tp1536
a(I33
S'amod'
p1537
I32
tp1538
a(I2
S'dep'
p1539
I33
tp1540
a(I33
S'punct'
p1541
I34
tp1542
a(I2
S'punct'
p1543
I35
tp1544
aa(lp1545
(I19
g3
I19
tp1546
a(I4
S'case'
p1547
I0
tp1548
a(I2
S'nn'
p1549
I1
tp1550
a(I4
S'nn'
p1551
I2
tp1552
a(I2
S'ordmod'
p1553
I2
tp1554
a(I4
S'assmod'
p1555
I2
tp1556
a(I2
S'case'
p1557
I3
tp1558
a(I19
S'prep'
p1559
I4
tp1560
a(I19
S'punct'
p1561
I5
tp1562
a(I8
S'case'
p1563
I6
tp1564
a(I8
S'mmod'
p1565
I7
tp1566
a(I19
S'prep'
p1567
I8
tp1568
a(I8
S'dobj'
p1569
I9
tp1570
a(I8
S'dep'
p1571
I10
tp1572
a(I10
S'dobj'
p1573
I11
tp1574
a(I12
S'dep'
p1575
I12
tp1576
a(I12
S'nummod'
p1577
I12
tp1578
a(I10
S'range'
p1579
I12
tp1580
a(I8
S'case'
p1581
I13
tp1582
a(I19
S'punct'
p1583
I14
tp1584
a(I19
S'nsubj'
p1585
I15
tp1586
a(I19
S'mmod'
p1587
I16
tp1588
a(I18
S'case'
p1589
I17
tp1590
a(I19
S'prep'
p1591
I18
tp1592
a(I19
S'punct'
p1593
I20
tp1594
a(I19
S'punct'
p1595
I21
tp1596
aa(lp1597
(I3
g3
I3
tp1598
a(I0
S'nn'
p1599
I0
tp1600
a(I3
S'nsubj'
p1601
I0
tp1602
a(I2
S'dep'
p1603
I1
tp1604
a(I3
S'nsubj'
p1605
I2
tp1606
a(I3
S'punct'
p1607
I4
tp1608
a(I3
S'conj'
p1609
I5
tp1610
a(I7
S'advmod'
p1611
I6
tp1612
a(I5
S'ccomp'
p1613
I7
tp1614
a(I7
S'punct'
p1615
I8
tp1616
a(I14
S'assmod'
p1617
I9
tp1618
a(I9
S'punct'
p1619
I10
tp1620
a(I9
S'case'
p1621
I11
tp1622
a(I14
S'det'
p1623
I12
tp1624
a(I12
S'clf'
p1625
I13
tp1626
a(I7
S'dobj'
p1627
I14
tp1628
a(I7
S'punct'
p1629
I15
tp1630
a(I19
S'advmod'
p1631
I16
tp1632
a(I19
S'punct'
p1633
I17
tp1634
a(I19
S'advmod'
p1635
I18
tp1636
a(I7
S'dep'
p1637
I19
tp1638
a(I21
S'nsubj'
p1639
I20
tp1640
a(I23
S'relcl'
p1641
I21
tp1642
a(I21
S'mark'
p1643
I22
tp1644
a(I19
S'dobj'
p1645
I23
tp1646
a(I7
S'punct'
p1647
I24
tp1648
a(I27
S'case'
p1649
I25
tp1650
a(I27
S'det'
p1651
I26
tp1652
a(I30
S'prep'
p1653
I27
tp1654
a(I27
S'case'
p1655
I28
tp1656
a(I30
S'neg'
p1657
I29
tp1658
a(I7
S'dep'
p1659
I30
tp1660
a(I3
S'punct'
p1661
I31
tp1662
a(I3
S'conj'
p1663
I32
tp1664
a(I3
S'punct'
p1665
I33
tp1666
a(I3
S'conj'
p1667
I34
tp1668
a(I36
S'nn'
p1669
I35
tp1670
a(I34
S'dobj'
p1671
I36
tp1672
a(I3
S'punct'
p1673
I37
tp1674
a(I3
S'cc'
p1675
I38
tp1676
a(I3
S'conj'
p1677
I39
tp1678
a(I41
S'nn'
p1679
I40
tp1680
a(I46
S'conj'
p1681
I41
tp1682
a(I46
S'cc'
p1683
I42
tp1684
a(I46
S'nn'
p1685
I43
tp1686
a(I46
S'conj'
p1687
I44
tp1688
a(I46
S'cc'
p1689
I45
tp1690
a(I48
S'assmod'
p1691
I46
tp1692
a(I46
S'case'
p1693
I47
tp1694
a(I39
S'dobj'
p1695
I48
tp1696
a(I3
S'punct'
p1697
I49
tp1698
a(I3
S'punct'
p1699
I50
tp1700
aa(lp1701
(I5
g3
I5
tp1702
a(I2
S'nn'
p1703
I0
tp1704
a(I2
S'nn'
p1705
I1
tp1706
a(I5
S'nsubj'
p1707
I2
tp1708
a(I4
S'case'
p1709
I3
tp1710
a(I5
S'prep'
p1711
I4
tp1712
a(I5
S'punct'
p1713
I6
tp1714
a(I5
S'punct'
p1715
I7
tp1716
aa(lp1717
(I1
g3
I1
tp1718
a(I1
S'nsubj'
p1719
I0
tp1720
a(I1
S'ccomp'
p1721
I2
tp1722
a(I2
S'punct'
p1723
I3
tp1724
a(I6
S'nummod'
p1725
I4
tp1726
a(I6
S'nn'
p1727
I5
tp1728
a(I14
S'nsubj'
p1729
I6
tp1730
a(I14
S'advmod'
p1731
I7
tp1732
a(I14
S'mmod'
p1733
I8
tp1734
a(I13
S'case'
p1735
I9
tp1736
a(I13
S'assmod'
p1737
I10
tp1738
a(I10
S'case'
p1739
I11
tp1740
a(I13
S'amod'
p1741
I12
tp1742
a(I14
S'prep'
p1743
I13
tp1744
a(I2
S'ccomp'
p1745
I14
tp1746
a(I19
S'nummod'
p1747
I15
tp1748
a(I17
S'nn'
p1749
I16
tp1750
a(I19
S'assmod'
p1751
I17
tp1752
a(I17
S'case'
p1753
I18
tp1754
a(I14
S'dobj'
p1755
I19
tp1756
a(I14
S'punct'
p1757
I20
tp1758
a(I14
S'cc'
p1759
I21
tp1760
a(I24
S'advmod'
p1761
I22
tp1762
a(I24
S'advmod'
p1763
I23
tp1764
a(I14
S'conj'
p1765
I24
tp1766
a(I14
S'punct'
p1767
I25
tp1768
a(I14
S'dep'
p1769
I26
tp1770
a(I27
S'nn'
p1771
I27
tp1772
a(I29
S'nn'
p1773
I27
tp1774
a(I29
S'nummod'
p1775
I28
tp1776
a(I26
S'dobj'
p1777
I29
tp1778
a(I14
S'punct'
p1779
I30
tp1780
a(I32
S'nummod'
p1781
I31
tp1782
a(I36
S'assmod'
p1783
I32
tp1784
a(I32
S'case'
p1785
I33
tp1786
a(I36
S'amod'
p1787
I34
tp1788
a(I36
S'nn'
p1789
I35
tp1790
a(I39
S'nsubj'
p1791
I36
tp1792
a(I39
S'advmod'
p1793
I37
tp1794
a(I39
S'advmod'
p1795
I38
tp1796
a(I14
S'conj'
p1797
I39
tp1798
a(I14
S'punct'
p1799
I40
tp1800
a(I1
S'punct'
p1801
I41
tp1802
aa(lp1803
(I19
g3
I19
tp1804
a(I3
S'nn'
p1805
I0
tp1806
a(I3
S'dep'
p1807
I1
tp1808
a(I3
S'dep'
p1809
I2
tp1810
a(I5
S'nsubj'
p1811
I3
tp1812
a(I5
S'advmod'
p1813
I4
tp1814
a(I19
S'nfincl'
p1815
I5
tp1816
a(I5
S'punct'
p1817
I6
tp1818
a(I15
S'nsubj'
p1819
I7
tp1820
a(I13
S'case'
p1821
I8
tp1822
a(I10
S'nn'
p1823
I9
tp1824
a(I10
S'nn'
p1825
I9
tp1826
a(I13
S'dep'
p1827
I10
tp1828
a(I13
S'punct'
p1829
I11
tp1830
a(I13
S'amod'
p1831
I12
tp1832
a(I15
S'prep'
p1833
I13
tp1834
a(I13
S'punct'
p1835
I14
tp1836
a(I5
S'ccomp'
p1837
I15
tp1838
a(I17
S'amod'
p1839
I16
tp1840
a(I15
S'dobj'
p1841
I17
tp1842
a(I19
S'punct'
p1843
I18
tp1844
a(I19
S'punct'
p1845
I20
tp1846
a(I26
S'relcl'
p1847
I21
tp1848
a(I24
S'det'
p1849
I22
tp1850
a(I22
S'dep'
p1851
I23
tp1852
a(I21
S'dobj'
p1853
I24
tp1854
a(I26
S'det'
p1855
I25
tp1856
a(I29
S'assmod'
p1857
I26
tp1858
a(I26
S'case'
p1859
I27
tp1860
a(I29
S'nn'
p1861
I28
tp1862
a(I19
S'dep'
p1863
I29
tp1864
a(I19
S'punct'
p1865
I30
tp1866
a(I19
S'punct'
p1867
I31
tp1868
a(I19
S'punct'
p1869
I32
tp1870
aa(lp1871
(I1
g3
I1
tp1872
a(I1
S'nsubj'
p1873
I0
tp1874
a(I1
S'punct'
p1875
I2
tp1876
a(I4
S'nsubj'
p1877
I3
tp1878
a(I1
S'ccomp'
p1879
I4
tp1880
a(I7
S'det'
p1881
I5
tp1882
a(I5
S'clf'
p1883
I6
tp1884
a(I4
S'dobj'
p1885
I7
tp1886
a(I4
S'dep'
p1887
I8
tp1888
a(I10
S'nn'
p1889
I9
tp1890
a(I16
S'nsubj'
p1891
I10
tp1892
a(I14
S'case'
p1893
I11
tp1894
a(I14
S'relcl'
p1895
I12
tp1896
a(I12
S'mark'
p1897
I13
tp1898
a(I16
S'prep'
p1899
I14
tp1900
a(I16
S'mmod'
p1901
I15
tp1902
a(I20
S'dep'
p1903
I16
tp1904
a(I16
S'mark'
p1905
I17
tp1906
a(I20
S'amod'
p1907
I18
tp1908
a(I20
S'nummod'
p1909
I19
tp1910
a(I8
S'dep'
p1911
I20
tp1912
a(I1
S'punct'
p1913
I21
tp1914
a(I1
S'punct'
p1915
I22
tp1916
aa(lp1917
(I1
g3
I1
tp1918
a(I1
S'nsubj'
p1919
I0
tp1920
a(I5
S'nn'
p1921
I2
tp1922
a(I5
S'nn'
p1923
I3
tp1924
a(I5
S'nn'
p1925
I4
tp1926
a(I1
S'dobj'
p1927
I5
tp1928
a(I1
S'punct'
p1929
I6
tp1930
a(I1
S'punct'
p1931
I7
tp1932
aa(lp1933
(I1
g3
I1
tp1934
a(I1
S'nsubj'
p1935
I0
tp1936
a(I1
S'dobj'
p1937
I2
tp1938
a(I5
S'mmod'
p1939
I3
tp1940
a(I5
S'neg'
p1941
I4
tp1942
a(I1
S'dep'
p1943
I5
tp1944
a(I7
S'nn'
p1945
I6
tp1946
a(I5
S'dobj'
p1947
I7
tp1948
a(I1
S'punct'
p1949
I8
tp1950
a(I10
S'advmod'
p1951
I9
tp1952
a(I1
S'conj'
p1953
I10
tp1954
a(I12
S'nn'
p1955
I11
tp1956
a(I23
S'nsubj'
p1957
I12
tp1958
a(I14
S'nsubj'
p1959
I13
tp1960
a(I23
S'loc'
p1961
I14
tp1962
a(I16
S'nn'
p1963
I15
tp1964
a(I14
S'dobj'
p1965
I16
tp1966
a(I14
S'punct'
p1967
I17
tp1968
a(I19
S'advmod'
p1969
I18
tp1970
a(I14
S'conj'
p1971
I19
tp1972
a(I21
S'nn'
p1973
I20
tp1974
a(I19
S'dobj'
p1975
I21
tp1976
a(I14
S'case'
p1977
I22
tp1978
a(I10
S'ccomp'
p1979
I23
tp1980
a(I23
S'punct'
p1981
I24
tp1982
a(I23
S'dep'
p1983
I25
tp1984
a(I27
S'nn'
p1985
I26
tp1986
a(I25
S'dobj'
p1987
I27
tp1988
a(I23
S'punct'
p1989
I28
tp1990
a(I1
S'punct'
p1991
I29
tp1992
aa(lp1993
(I3
g3
I3
tp1994
a(I1
S'nn'
p1995
I0
tp1996
a(I3
S'nsubj'
p1997
I1
tp1998
a(I3
S'advmod'
p1999
I2
tp2000
a(I3
S'punct'
p2001
I4
tp2002
a(I7
S'nsubj'
p2003
I5
tp2004
a(I7
S'advmod'
p2005
I6
tp2006
a(I3
S'ccomp'
p2007
I7
tp2008
a(I10
S'nn'
p2009
I8
tp2010
a(I10
S'amod'
p2011
I9
tp2012
a(I7
S'dobj'
p2013
I10
tp2014
a(I3
S'punct'
p2015
I11
tp2016
a(I3
S'dep'
p2017
I12
tp2018
a(I12
S'ccomp'
p2019
I13
tp2020
a(I19
S'nsubj'
p2021
I14
tp2022
a(I17
S'case'
p2023
I15
tp2024
a(I17
S'nn'
p2025
I16
tp2026
a(I19
S'prep'
p2027
I17
tp2028
a(I17
S'case'
p2029
I18
tp2030
a(I13
S'ccomp'
p2031
I19
tp2032
a(I24
S'amod'
p2033
I20
tp2034
a(I22
S'advmod'
p2035
I21
tp2036
a(I24
S'relcl'
p2037
I22
tp2038
a(I22
S'mark'
p2039
I23
tp2040
a(I19
S'dobj'
p2041
I24
tp2042
a(I27
S'nsubj'
p2043
I25
tp2044
a(I27
S'advmod'
p2045
I26
tp2046
a(I19
S'conj'
p2047
I27
tp2048
a(I29
S'case'
p2049
I28
tp2050
a(I31
S'assmod'
p2051
I29
tp2052
a(I29
S'case'
p2053
I30
tp2054
a(I27
S'dobj'
p2055
I31
tp2056
a(I27
S'punct'
p2057
I32
tp2058
a(I27
S'dep'
p2059
I33
tp2060
a(I36
S'case'
p2061
I34
tp2062
a(I36
S'det'
p2063
I35
tp2064
a(I37
S'prep'
p2065
I36
tp2066
a(I33
S'dep'
p2067
I37
tp2068
a(I37
S'cc'
p2069
I38
tp2070
a(I37
S'conj'
p2071
I39
tp2072
a(I37
S'cc'
p2073
I40
tp2074
a(I45
S'assmod'
p2075
I41
tp2076
a(I41
S'case'
p2077
I42
tp2078
a(I45
S'amod'
p2079
I43
tp2080
a(I45
S'nn'
p2081
I44
tp2082
a(I37
S'dep'
p2083
I45
tp2084
a(I19
S'punct'
p2085
I46
tp2086
a(I3
S'punct'
p2087
I47
tp2088
aa(lp2089
(I1
g3
I1
tp2090
a(I1
S'nsubj'
p2091
I0
tp2092
a(I1
S'punct'
p2093
I2
tp2094
a(I12
S'case'
p2095
I3
tp2096
a(I7
S'nn'
p2097
I4
tp2098
a(I7
S'amod'
p2099
I5
tp2100
a(I7
S'nn'
p2101
I6
tp2102
a(I12
S'conj'
p2103
I7
tp2104
a(I12
S'cc'
p2105
I8
tp2106
a(I9
S'nn'
p2107
I9
tp2108
a(I12
S'nn'
p2109
I9
tp2110
a(I12
S'amod'
p2111
I10
tp2112
a(I12
S'nn'
p2113
I11
tp2114
a(I15
S'prep'
p2115
I12
tp2116
a(I15
S'punct'
p2117
I13
tp2118
a(I15
S'nsubj'
p2119
I14
tp2120
a(I1
S'ccomp'
p2121
I15
tp2122
a(I17
S'cc'
p2123
I16
tp2124
a(I15
S'ccomp'
p2125
I17
tp2126
a(I26
S'nn'
p2127
I18
tp2128
a(I20
S'case'
p2129
I19
tp2130
a(I26
S'assmod'
p2131
I20
tp2132
a(I20
S'dep'
p2133
I21
tp2134
a(I20
S'punct'
p2135
I22
tp2136
a(I20
S'case'
p2137
I23
tp2138
a(I26
S'conj'
p2139
I24
tp2140
a(I26
S'cc'
p2141
I25
tp2142
a(I17
S'dobj'
p2143
I26
tp2144
a(I29
S'case'
p2145
I27
tp2146
a(I29
S'nn'
p2147
I28
tp2148
a(I31
S'prep'
p2149
I29
tp2150
a(I29
S'case'
p2151
I30
tp2152
a(I17
S'dep'
p2153
I31
tp2154
a(I31
S'dep'
p2155
I32
tp2156
a(I31
S'dep'
p2157
I33
tp2158
a(I35
S'nsubj'
p2159
I34
tp2160
a(I31
S'dep'
p2161
I35
tp2162
a(I35
S'punct'
p2163
I36
tp2164
a(I40
S'nsubj'
p2165
I37
tp2166
a(I40
S'advmod'
p2167
I38
tp2168
a(I40
S'mmod'
p2169
I39
tp2170
a(I35
S'ccomp'
p2171
I40
tp2172
a(I45
S'conj'
p2173
I41
tp2174
a(I45
S'cc'
p2175
I42
tp2176
a(I45
S'assmod'
p2177
I43
tp2178
a(I43
S'case'
p2179
I44
tp2180
a(I40
S'dobj'
p2181
I45
tp2182
a(I17
S'punct'
p2183
I46
tp2184
a(I17
S'cc'
p2185
I47
tp2186
a(I55
S'mmod'
p2187
I48
tp2188
a(I54
S'case'
p2189
I49
tp2190
a(I54
S'relcl'
p2191
I50
tp2192
a(I50
S'punct'
p2193
I51
tp2194
a(I50
S'dep'
p2195
I52
tp2196
a(I50
S'mark'
p2197
I53
tp2198
a(I55
S'prep'
p2199
I54
tp2200
a(I17
S'conj'
p2201
I55
tp2202
a(I58
S'nn'
p2203
I56
tp2204
a(I58
S'det'
p2205
I57
tp2206
a(I60
S'assmod'
p2207
I58
tp2208
a(I58
S'case'
p2209
I59
tp2210
a(I55
S'dobj'
p2211
I60
tp2212
a(I15
S'punct'
p2213
I61
tp2214
a(I1
S'punct'
p2215
I62
tp2216
aa(lp2217
(I15
g3
I15
tp2218
a(I5
S'case'
p2219
I0
tp2220
a(I4
S'case'
p2221
I1
tp2222
a(I4
S'nn'
p2223
I2
tp2224
a(I4
S'nn'
p2225
I3
tp2226
a(I5
S'prep'
p2227
I4
tp2228
a(I15
S'prep'
p2229
I5
tp2230
a(I5
S'case'
p2231
I6
tp2232
a(I15
S'punct'
p2233
I7
tp2234
a(I10
S'conj'
p2235
I8
tp2236
a(I10
S'cc'
p2237
I9
tp2238
a(I11
S'nn'
p2239
I10
tp2240
a(I15
S'nsubj'
p2241
I11
tp2242
a(I15
S'dep'
p2243
I12
tp2244
a(I15
S'nsubj'
p2245
I13
tp2246
a(I15
S'advmod'
p2247
I14
tp2248
a(I15
S'punct'
p2249
I16
tp2250
a(I18
S'nn'
p2251
I17
tp2252
a(I20
S'nn'
p2253
I18
tp2254
a(I20
S'nummod'
p2255
I19
tp2256
a(I27
S'nsubj'
p2257
I20
tp2258
a(I26
S'case'
p2259
I21
tp2260
a(I23
S'det'
p2261
I22
tp2262
a(I26
S'assmod'
p2263
I23
tp2264
a(I23
S'case'
p2265
I24
tp2266
a(I26
S'nn'
p2267
I25
tp2268
a(I27
S'prep'
p2269
I26
tp2270
a(I15
S'ccomp'
p2271
I27
tp2272
a(I15
S'punct'
p2273
I28
tp2274
a(I32
S'nsubj'
p2275
I29
tp2276
a(I32
S'advmod'
p2277
I30
tp2278
a(I32
S'mmod'
p2279
I31
tp2280
a(I15
S'dep'
p2281
I32
tp2282
a(I34
S'case'
p2283
I33
tp2284
a(I37
S'prep'
p2285
I34
tp2286
a(I36
S'nummod'
p2287
I35
tp2288
a(I34
S'dobj'
p2289
I36
tp2290
a(I32
S'ccomp'
p2291
I37
tp2292
a(I39
S'nn'
p2293
I38
tp2294
a(I37
S'dobj'
p2295
I39
tp2296
a(I37
S'punct'
p2297
I40
tp2298
a(I46
S'advmod'
p2299
I41
tp2300
a(I46
S'cop'
p2301
I42
tp2302
a(I44
S'nn'
p2303
I43
tp2304
a(I46
S'assmod'
p2305
I44
tp2306
a(I44
S'case'
p2307
I45
tp2308
a(I37
S'dep'
p2309
I46
tp2310
a(I15
S'punct'
p2311
I47
tp2312
a(I15
S'punct'
p2313
I48
tp2314
aa(lp2315
(I2
g3
I2
tp2316
a(I2
S'nsubj'
p2317
I0
tp2318
a(I2
S'advmod'
p2319
I1
tp2320
a(I2
S'dobj'
p2321
I3
tp2322
a(I2
S'punct'
p2323
I4
tp2324
a(I2
S'punct'
p2325
I5
tp2326
aa(lp2327
(I1
g3
I1
tp2328
a(I1
S'nsubj'
p2329
I0
tp2330
a(I1
S'punct'
p2331
I2
tp2332
a(I4
S'nn'
p2333
I3
tp2334
a(I23
S'nsubj'
p2335
I4
tp2336
a(I23
S'cop'
p2337
I5
tp2338
a(I7
S'nummod'
p2339
I6
tp2340
a(I11
S'assmod'
p2341
I7
tp2342
a(I7
S'case'
p2343
I8
tp2344
a(I11
S'amod'
p2345
I9
tp2346
a(I11
S'nn'
p2347
I10
tp2348
a(I23
S'dep'
p2349
I11
tp2350
a(I23
S'punct'
p2351
I12
tp2352
a(I14
S'nummod'
p2353
I13
tp2354
a(I15
S'clf'
p2355
I14
tp2356
a(I23
S'dep'
p2357
I15
tp2358
a(I23
S'punct'
p2359
I16
tp2360
a(I23
S'conj'
p2361
I17
tp2362
a(I23
S'cc'
p2363
I18
tp2364
a(I20
S'advmod'
p2365
I19
tp2366
a(I23
S'relcl'
p2367
I20
tp2368
a(I20
S'mark'
p2369
I21
tp2370
a(I23
S'nn'
p2371
I22
tp2372
a(I1
S'ccomp'
p2373
I23
tp2374
a(I1
S'punct'
p2375
I24
tp2376
a(I28
S'case'
p2377
I25
tp2378
a(I28
S'conj'
p2379
I26
tp2380
a(I28
S'cc'
p2381
I27
tp2382
a(I32
S'assmod'
p2383
I28
tp2384
a(I28
S'case'
p2385
I29
tp2386
a(I32
S'conj'
p2387
I30
tp2388
a(I32
S'cc'
p2389
I31
tp2390
a(I33
S'nsubj'
p2391
I32
tp2392
a(I1
S'conj'
p2393
I33
tp2394
a(I36
S'relcl'
p2395
I34
tp2396
a(I34
S'mark'
p2397
I35
tp2398
a(I33
S'dobj'
p2399
I36
tp2400
a(I33
S'punct'
p2401
I37
tp2402
a(I1
S'punct'
p2403
I38
tp2404
aa(lp2405
(I2
g3
I2
tp2406
a(I2
S'nsubj'
p2407
I0
tp2408
a(I2
S'advmod'
p2409
I1
tp2410
a(I4
S'nn'
p2411
I3
tp2412
a(I2
S'dobj'
p2413
I4
tp2414
a(I2
S'punct'
p2415
I5
tp2416
a(I2
S'punct'
p2417
I6
tp2418
aa(lp2419
(I1
g3
I1
tp2420
a(I1
S'nsubj'
p2421
I0
tp2422
a(I1
S'punct'
p2423
I2
tp2424
a(I18
S'nsubj'
p2425
I3
tp2426
a(I18
S'punct'
p2427
I4
tp2428
a(I18
S'advmod'
p2429
I5
tp2430
a(I18
S'cop'
p2431
I6
tp2432
a(I8
S'nn'
p2433
I7
tp2434
a(I17
S'nsubj'
p2435
I8
tp2436
a(I17
S'cop'
p2437
I9
tp2438
a(I12
S'det'
p2439
I10
tp2440
a(I12
S'nn'
p2441
I11
tp2442
a(I17
S'nn'
p2443
I12
tp2444
a(I14
S'nummod'
p2445
I13
tp2446
a(I17
S'clf'
p2447
I14
tp2448
a(I17
S'relcl'
p2449
I15
tp2450
a(I15
S'mark'
p2451
I16
tp2452
a(I18
S'nfincl'
p2453
I17
tp2454
a(I1
S'ccomp'
p2455
I18
tp2456
a(I18
S'punct'
p2457
I19
tp2458
a(I22
S'nsubj'
p2459
I20
tp2460
a(I22
S'mmod'
p2461
I21
tp2462
a(I18
S'conj'
p2463
I22
tp2464
a(I26
S'nn'
p2465
I23
tp2466
a(I26
S'nn'
p2467
I24
tp2468
a(I26
S'nn'
p2469
I25
tp2470
a(I22
S'dobj'
p2471
I26
tp2472
a(I18
S'punct'
p2473
I27
tp2474
a(I29
S'nsubj'
p2475
I28
tp2476
a(I18
S'conj'
p2477
I29
tp2478
a(I31
S'nsubj'
p2479
I30
tp2480
a(I29
S'ccomp'
p2481
I31
tp2482
a(I34
S'assmod'
p2483
I32
tp2484
a(I32
S'case'
p2485
I33
tp2486
a(I31
S'dobj'
p2487
I34
tp2488
a(I31
S'punct'
p2489
I35
tp2490
a(I31
S'conj'
p2491
I36
tp2492
a(I40
S'nn'
p2493
I37
tp2494
a(I40
S'nn'
p2495
I38
tp2496
a(I40
S'nn'
p2497
I39
tp2498
a(I36
S'dobj'
p2499
I40
tp2500
a(I42
S'advmod'
p2501
I41
tp2502
a(I36
S'dep'
p2503
I42
tp2504
a(I42
S'dobj'
p2505
I43
tp2506
a(I18
S'punct'
p2507
I44
tp2508
a(I1
S'punct'
p2509
I45
tp2510
aa(lp2511
(I8
g3
I8
tp2512
a(I8
S'tmod'
p2513
I0
tp2514
a(I8
S'punct'
p2515
I1
tp2516
a(I3
S'nn'
p2517
I2
tp2518
a(I8
S'nsubj'
p2519
I3
tp2520
a(I6
S'case'
p2521
I4
tp2522
a(I6
S'nn'
p2523
I5
tp2524
a(I8
S'prep'
p2525
I6
tp2526
a(I8
S'advmod'
p2527
I7
tp2528
a(I8
S'asp'
p2529
I9
tp2530
a(I8
S'dobj'
p2531
I10
tp2532
a(I8
S'punct'
p2533
I11
tp2534
a(I8
S'punct'
p2535
I12
tp2536
aa(lp2537
(I0
g3
I0
tp2538
a(I0
S'nummod'
p2539
I0
tp2540
a(I0
S'nsubj'
p2541
I0
tp2542
a(I0
S'nummod'
p2543
I0
tp2544
a(I0
S'punct'
p2545
I1
tp2546
a(I0
S'punct'
p2547
I2
tp2548
aa(lp2549
(I2
g3
I2
tp2550
a(I1
S'nn'
p2551
I0
tp2552
a(I2
S'nsubj'
p2553
I1
tp2554
a(I7
S'dep'
p2555
I3
tp2556
a(I7
S'punct'
p2557
I4
tp2558
a(I7
S'dep'
p2559
I5
tp2560
a(I7
S'punct'
p2561
I6
tp2562
a(I2
S'dobj'
p2563
I7
tp2564
a(I2
S'punct'
p2565
I8
tp2566
a(I2
S'punct'
p2567
I9
tp2568
aa(lp2569
(I1
g3
I1
tp2570
a(I1
S'nsubj'
p2571
I0
tp2572
a(I1
S'punct'
p2573
I2
tp2574
a(I3
S'nn'
p2575
I3
tp2576
a(I3
S'nn'
p2577
I3
tp2578
a(I3
S'nn'
p2579
I3
tp2580
a(I10
S'nsubj'
p2581
I3
tp2582
a(I8
S'case'
p2583
I4
tp2584
a(I6
S'case'
p2585
I5
tp2586
a(I8
S'assmod'
p2587
I6
tp2588
a(I6
S'case'
p2589
I7
tp2590
a(I10
S'prep'
p2591
I8
tp2592
a(I10
S'advmod'
p2593
I9
tp2594
a(I1
S'ccomp'
p2595
I10
tp2596
a(I10
S'punct'
p2597
I11
tp2598
a(I10
S'dep'
p2599
I12
tp2600
a(I14
S'advmod'
p2601
I13
tp2602
a(I12
S'ccomp'
p2603
I14
tp2604
a(I19
S'det'
p2605
I15
tp2606
a(I15
S'clf'
p2607
I16
tp2608
a(I19
S'amod'
p2609
I17
tp2610
a(I19
S'nn'
p2611
I18
tp2612
a(I14
S'dobj'
p2613
I19
tp2614
a(I1
S'punct'
p2615
I20
tp2616
a(I1
S'punct'
p2617
I21
tp2618
aa(lp2619
(I1
g3
I1
tp2620
a(I1
S'nsubj'
p2621
I0
tp2622
a(I1
S'punct'
p2623
I2
tp2624
a(I1
S'punct'
p2625
I3
tp2626
a(I13
S'nsubj'
p2627
I4
tp2628
a(I6
S'nn'
p2629
I5
tp2630
a(I8
S'nn'
p2631
I6
tp2632
a(I8
S'det'
p2633
I7
tp2634
a(I10
S'assmod'
p2635
I8
tp2636
a(I8
S'case'
p2637
I9
tp2638
a(I13
S'nsubj'
p2639
I10
tp2640
a(I13
S'advmod'
p2641
I11
tp2642
a(I13
S'mmod'
p2643
I12
tp2644
a(I1
S'ccomp'
p2645
I13
tp2646
a(I13
S'cc'
p2647
I14
tp2648
a(I13
S'dep'
p2649
I15
tp2650
a(I17
S'amod'
p2651
I16
tp2652
a(I15
S'dobj'
p2653
I17
tp2654
a(I17
S'punct'
p2655
I18
tp2656
a(I13
S'punct'
p2657
I19
tp2658
a(I1
S'punct'
p2659
I20
tp2660
aa(lp2661
(I7
g3
I7
tp2662
a(I7
S'nsubj'
p2663
I0
tp2664
a(I7
S'advmod'
p2665
I1
tp2666
a(I6
S'case'
p2667
I2
tp2668
a(I4
S'advmod'
p2669
I3
tp2670
a(I6
S'relcl'
p2671
I4
tp2672
a(I4
S'mark'
p2673
I5
tp2674
a(I7
S'prep'
p2675
I6
tp2676
a(I7
S'asp'
p2677
I8
tp2678
a(I7
S'dobj'
p2679
I9
tp2680
a(I7
S'punct'
p2681
I10
tp2682
a(I7
S'punct'
p2683
I11
tp2684
aa(lp2685
(I0
g3
I0
tp2686
a(I0
S'nummod'
p2687
I0
tp2688
a(I0
S'nsubj'
p2689
I0
tp2690
a(I0
S'nummod'
p2691
I0
tp2692
a(I0
S'punct'
p2693
I1
tp2694
a(I0
S'punct'
p2695
I2
tp2696
aa(lp2697
(I4
g3
I4
tp2698
a(I1
S'nn'
p2699
I0
tp2700
a(I3
S'nn'
p2701
I1
tp2702
a(I3
S'nn'
p2703
I2
tp2704
a(I4
S'nsubj'
p2705
I3
tp2706
a(I4
S'punct'
p2707
I5
tp2708
a(I7
S'nn'
p2709
I6
tp2710
a(I14
S'nsubj'
p2711
I7
tp2712
a(I14
S'mmod'
p2713
I8
tp2714
a(I14
S'mmod'
p2715
I9
tp2716
a(I12
S'case'
p2717
I10
tp2718
a(I12
S'nn'
p2719
I11
tp2720
a(I14
S'prep'
p2721
I12
tp2722
a(I14
S'punct'
p2723
I13
tp2724
a(I4
S'ccomp'
p2725
I14
tp2726
a(I16
S'case'
p2727
I15
tp2728
a(I17
S'prep'
p2729
I16
tp2730
a(I14
S'ccomp'
p2731
I17
tp2732
a(I19
S'nn'
p2733
I18
tp2734
a(I17
S'dobj'
p2735
I19
tp2736
a(I14
S'punct'
p2737
I20
tp2738
a(I30
S'nsubj'
p2739
I21
tp2740
a(I30
S'nsubj'
p2741
I22
tp2742
a(I30
S'advmod'
p2743
I23
tp2744
a(I30
S'advmod'
p2745
I24
tp2746
a(I26
S'case'
p2747
I25
tp2748
a(I30
S'prep'
p2749
I26
tp2750
a(I30
S'mmod'
p2751
I27
tp2752
a(I30
S'mmod'
p2753
I28
tp2754
a(I30
S'advmod'
p2755
I29
tp2756
a(I14
S'conj'
p2757
I30
tp2758
a(I14
S'punct'
p2759
I31
tp2760
a(I4
S'punct'
p2761
I32
tp2762
aa(lp2763
(I9
g3
I9
tp2764
a(I1
S'case'
p2765
I0
tp2766
a(I9
S'prep'
p2767
I1
tp2768
a(I3
S'amod'
p2769
I2
tp2770
a(I1
S'dobj'
p2771
I3
tp2772
a(I1
S'case'
p2773
I4
tp2774
a(I9
S'punct'
p2775
I5
tp2776
a(I8
S'nummod'
p2777
I6
tp2778
a(I8
S'nn'
p2779
I7
tp2780
a(I9
S'nsubj'
p2781
I8
tp2782
a(I9
S'ccomp'
p2783
I10
tp2784
a(I10
S'punct'
p2785
I11
tp2786
a(I14
S'conj'
p2787
I12
tp2788
a(I14
S'cc'
p2789
I13
tp2790
a(I19
S'nn'
p2791
I14
tp2792
a(I16
S'nummod'
p2793
I15
tp2794
a(I19
S'assmod'
p2795
I16
tp2796
a(I16
S'case'
p2797
I17
tp2798
a(I19
S'amod'
p2799
I18
tp2800
a(I27
S'nsubj'
p2801
I19
tp2802
a(I19
S'punct'
p2803
I20
tp2804
a(I19
S'dep'
p2805
I21
tp2806
a(I25
S'case'
p2807
I22
tp2808
a(I25
S'relcl'
p2809
I23
tp2810
a(I23
S'mark'
p2811
I24
tp2812
a(I27
S'prep'
p2813
I25
tp2814
a(I27
S'advmod'
p2815
I26
tp2816
a(I10
S'ccomp'
p2817
I27
tp2818
a(I27
S'punct'
p2819
I28
tp2820
a(I9
S'punct'
p2821
I29
tp2822
a(I9
S'punct'
p2823
I30
tp2824
aa(lp2825
(I1
g3
I1
tp2826
a(I1
S'nsubj'
p2827
I0
tp2828
a(I3
S'ordmod'
p2829
I2
tp2830
a(I5
S'clf'
p2831
I3
tp2832
a(I5
S'nn'
p2833
I4
tp2834
a(I1
S'dobj'
p2835
I5
tp2836
a(I1
S'punct'
p2837
I6
tp2838
a(I1
S'punct'
p2839
I7
tp2840
aa(lp2841
(I2
g3
I2
tp2842
a(I1
S'amod'
p2843
I0
tp2844
a(I2
S'nsubj'
p2845
I1
tp2846
a(I2
S'punct'
p2847
I3
tp2848
a(I6
S'amod'
p2849
I4
tp2850
a(I6
S'nn'
p2851
I5
tp2852
a(I7
S'nsubj'
p2853
I6
tp2854
a(I10
S'dep'
p2855
I7
tp2856
a(I7
S'mark'
p2857
I8
tp2858
a(I10
S'dep'
p2859
I9
tp2860
a(I11
S'nsubj'
p2861
I10
tp2862
a(I2
S'ccomp'
p2863
I11
tp2864
a(I14
S'nn'
p2865
I12
tp2866
a(I14
S'nn'
p2867
I13
tp2868
a(I11
S'dobj'
p2869
I14
tp2870
a(I11
S'punct'
p2871
I15
tp2872
a(I17
S'dep'
p2873
I16
tp2874
a(I19
S'nsubj'
p2875
I17
tp2876
a(I19
S'mmod'
p2877
I18
tp2878
a(I11
S'conj'
p2879
I19
tp2880
a(I24
S'nn'
p2881
I20
tp2882
a(I24
S'nn'
p2883
I21
tp2884
a(I24
S'nn'
p2885
I22
tp2886
a(I24
S'nn'
p2887
I23
tp2888
a(I19
S'dobj'
p2889
I24
tp2890
a(I11
S'punct'
p2891
I25
tp2892
a(I26
S'dep'
p2893
I26
tp2894
a(I28
S'nsubj'
p2895
I26
tp2896
a(I28
S'mmod'
p2897
I27
tp2898
a(I11
S'conj'
p2899
I28
tp2900
a(I31
S'nn'
p2901
I29
tp2902
a(I31
S'nn'
p2903
I30
tp2904
a(I28
S'dobj'
p2905
I31
tp2906
a(I11
S'punct'
p2907
I32
tp2908
a(I2
S'punct'
p2909
I33
tp2910
aa(lp2911
(I5
g3
I5
tp2912
a(I2
S'conj'
p2913
I0
tp2914
a(I2
S'cc'
p2915
I1
tp2916
a(I5
S'nsubj'
p2917
I2
tp2918
a(I4
S'case'
p2919
I3
tp2920
a(I5
S'prep'
p2921
I4
tp2922
a(I7
S'ordmod'
p2923
I6
tp2924
a(I9
S'clf'
p2925
I7
tp2926
a(I9
S'nn'
p2927
I8
tp2928
a(I5
S'dobj'
p2929
I9
tp2930
a(I5
S'punct'
p2931
I10
tp2932
a(I5
S'punct'
p2933
I11
tp2934
aa(lp2935
(I5
g3
I5
tp2936
a(I5
S'nsubj'
p2937
I0
tp2938
a(I3
S'case'
p2939
I1
tp2940
a(I3
S'nn'
p2941
I2
tp2942
a(I5
S'prep'
p2943
I3
tp2944
a(I3
S'case'
p2945
I4
tp2946
a(I5
S'punct'
p2947
I6
tp2948
a(I9
S'det'
p2949
I7
tp2950
a(I7
S'clf'
p2951
I8
tp2952
a(I11
S'assmod'
p2953
I9
tp2954
a(I9
S'case'
p2955
I10
tp2956
a(I13
S'nsubj'
p2957
I11
tp2958
a(I13
S'punct'
p2959
I12
tp2960
a(I5
S'ccomp'
p2961
I13
tp2962
a(I16
S'nn'
p2963
I14
tp2964
a(I16
S'amod'
p2965
I15
tp2966
a(I18
S'conj'
p2967
I16
tp2968
a(I18
S'cc'
p2969
I17
tp2970
a(I20
S'nsubj'
p2971
I18
tp2972
a(I20
S'advmod'
p2973
I19
tp2974
a(I13
S'ccomp'
p2975
I20
tp2976
a(I22
S'case'
p2977
I21
tp2978
a(I37
S'prep'
p2979
I22
tp2980
a(I24
S'nn'
p2981
I23
tp2982
a(I22
S'dobj'
p2983
I24
tp2984
a(I37
S'punct'
p2985
I25
tp2986
a(I37
S'advmod'
p2987
I26
tp2988
a(I37
S'advmod'
p2989
I27
tp2990
a(I35
S'case'
p2991
I28
tp2992
a(I35
S'nn'
p2993
I29
tp2994
a(I35
S'nn'
p2995
I30
tp2996
a(I35
S'conj'
p2997
I31
tp2998
a(I35
S'cc'
p2999
I32
tp3000
a(I35
S'nn'
p3001
I33
tp3002
a(I35
S'nn'
p3003
I34
tp3004
a(I37
S'prep'
p3005
I35
tp3006
a(I37
S'advmod'
p3007
I36
tp3008
a(I20
S'ccomp'
p3009
I37
tp3010
a(I37
S'punct'
p3011
I38
tp3012
a(I5
S'punct'
p3013
I39
tp3014
aa(lp3015
(I1
g3
I1
tp3016
a(I1
S'nsubj'
p3017
I0
tp3018
a(I1
S'punct'
p3019
I2
tp3020
a(I5
S'case'
p3021
I3
tp3022
a(I5
S'det'
p3023
I4
tp3024
a(I6
S'prep'
p3025
I5
tp3026
a(I22
S'dep'
p3027
I6
tp3028
a(I9
S'nn'
p3029
I7
tp3030
a(I9
S'nn'
p3031
I8
tp3032
a(I6
S'dobj'
p3033
I9
tp3034
a(I22
S'punct'
p3035
I10
tp3036
a(I12
S'advmod'
p3037
I11
tp3038
a(I22
S'nsubj'
p3039
I12
tp3040
a(I12
S'case'
p3041
I13
tp3042
a(I22
S'cop'
p3043
I14
tp3044
a(I18
S'det'
p3045
I15
tp3046
a(I17
S'nummod'
p3047
I16
tp3048
a(I15
S'dep'
p3049
I17
tp3050
a(I22
S'nsubj'
p3051
I18
tp3052
a(I22
S'advmod'
p3053
I19
tp3054
a(I22
S'neg'
p3055
I20
tp3056
a(I22
S'mmod'
p3057
I21
tp3058
a(I1
S'ccomp'
p3059
I22
tp3060
a(I24
S'nn'
p3061
I23
tp3062
a(I22
S'dobj'
p3063
I24
tp3064
a(I22
S'punct'
p3065
I25
tp3066
a(I27
S'advmod'
p3067
I26
tp3068
a(I22
S'conj'
p3069
I27
tp3070
a(I29
S'nummod'
p3071
I28
tp3072
a(I27
S'dobj'
p3073
I29
tp3074
a(I22
S'punct'
p3075
I30
tp3076
a(I33
S'advmod'
p3077
I31
tp3078
a(I33
S'mmod'
p3079
I32
tp3080
a(I22
S'conj'
p3081
I33
tp3082
a(I33
S'dobj'
p3083
I34
tp3084
a(I22
S'punct'
p3085
I35
tp3086
a(I22
S'dep'
p3087
I36
tp3088
a(I41
S'nn'
p3089
I37
tp3090
a(I41
S'conj'
p3091
I38
tp3092
a(I41
S'cc'
p3093
I39
tp3094
a(I41
S'nn'
p3095
I40
tp3096
a(I43
S'nn'
p3097
I41
tp3098
a(I43
S'amod'
p3099
I42
tp3100
a(I36
S'dobj'
p3101
I43
tp3102
a(I22
S'punct'
p3103
I44
tp3104
a(I1
S'punct'
p3105
I45
tp3106
aa(lp3107
(I0
g3
I0
tp3108
a(I0
S'nummod'
p3109
I0
tp3110
a(I0
S'nsubj'
p3111
I0
tp3112
a(I0
S'nummod'
p3113
I0
tp3114
a(I0
S'punct'
p3115
I1
tp3116
a(I0
S'punct'
p3117
I2
tp3118
aa(lp3119
(I2
g3
I2
tp3120
a(I1
S'nn'
p3121
I0
tp3122
a(I2
S'nsubj'
p3123
I1
tp3124
a(I2
S'punct'
p3125
I3
tp3126
a(I9
S'nsubj'
p3127
I4
tp3128
a(I8
S'case'
p3129
I5
tp3130
a(I8
S'assmod'
p3131
I6
tp3132
a(I6
S'case'
p3133
I7
tp3134
a(I9
S'prep'
p3135
I8
tp3136
a(I2
S'ccomp'
p3137
I9
tp3138
a(I9
S'asp'
p3139
I10
tp3140
a(I9
S'dobj'
p3141
I11
tp3142
a(I9
S'punct'
p3143
I12
tp3144
a(I9
S'cc'
p3145
I13
tp3146
a(I9
S'dep'
p3147
I14
tp3148
a(I23
S'mmod'
p3149
I15
tp3150
a(I21
S'case'
p3151
I16
tp3152
a(I17
S'nn'
p3153
I17
tp3154
a(I18
S'nn'
p3155
I17
tp3156
a(I21
S'assmod'
p3157
I18
tp3158
a(I18
S'case'
p3159
I19
tp3160
a(I21
S'amod'
p3161
I20
tp3162
a(I23
S'prep'
p3163
I21
tp3164
a(I23
S'mmod'
p3165
I22
tp3166
a(I14
S'ccomp'
p3167
I23
tp3168
a(I23
S'dobj'
p3169
I24
tp3170
a(I2
S'punct'
p3171
I25
tp3172
a(I2
S'punct'
p3173
I26
tp3174
aa(lp3175
(I1
g3
I1
tp3176
a(I1
S'nsubj'
p3177
I0
tp3178
a(I3
S'ordmod'
p3179
I2
tp3180
a(I5
S'clf'
p3181
I3
tp3182
a(I5
S'nn'
p3183
I4
tp3184
a(I1
S'dobj'
p3185
I5
tp3186
a(I1
S'punct'
p3187
I6
tp3188
a(I1
S'punct'
p3189
I7
tp3190
aa(lp3191
(I4
g3
I4
tp3192
a(I2
S'det'
p3193
I0
tp3194
a(I0
S'clf'
p3195
I1
tp3196
a(I4
S'nsubj'
p3197
I2
tp3198
a(I4
S'advmod'
p3199
I3
tp3200
a(I4
S'punct'
p3201
I5
tp3202
a(I7
S'mmod'
p3203
I6
tp3204
a(I24
S'dep'
p3205
I7
tp3206
a(I9
S'nummod'
p3207
I8
tp3208
a(I7
S'dobj'
p3209
I9
tp3210
a(I14
S'case'
p3211
I10
tp3212
a(I12
S'det'
p3213
I11
tp3214
a(I14
S'dep'
p3215
I12
tp3216
a(I12
S'case'
p3217
I13
tp3218
a(I24
S'prep'
p3219
I14
tp3220
a(I14
S'cc'
p3221
I15
tp3222
a(I17
S'nn'
p3223
I16
tp3224
a(I14
S'dep'
p3225
I17
tp3226
a(I24
S'punct'
p3227
I18
tp3228
a(I24
S'cop'
p3229
I19
tp3230
a(I24
S'nummod'
p3231
I20
tp3232
a(I22
S'nsubj'
p3233
I21
tp3234
a(I24
S'relcl'
p3235
I22
tp3236
a(I22
S'mark'
p3237
I23
tp3238
a(I4
S'ccomp'
p3239
I24
tp3240
a(I4
S'punct'
p3241
I25
tp3242
a(I4
S'punct'
p3243
I26
tp3244
aa(lp3245
(I1
g3
I1
tp3246
a(I1
S'nsubj'
p3247
I0
tp3248
a(I1
S'punct'
p3249
I2
tp3250
a(I4
S'nsubj'
p3251
I3
tp3252
a(I1
S'ccomp'
p3253
I4
tp3254
a(I6
S'nn'
p3255
I5
tp3256
a(I16
S'nsubj'
p3257
I6
tp3258
a(I8
S'case'
p3259
I7
tp3260
a(I16
S'prep'
p3261
I8
tp3262
a(I10
S'nn'
p3263
I9
tp3264
a(I8
S'dobj'
p3265
I10
tp3266
a(I8
S'cc'
p3267
I11
tp3268
a(I8
S'conj'
p3269
I12
tp3270
a(I14
S'nn'
p3271
I13
tp3272
a(I12
S'dobj'
p3273
I14
tp3274
a(I16
S'prtmod'
p3275
I15
tp3276
a(I18
S'relcl'
p3277
I16
tp3278
a(I16
S'mark'
p3279
I17
tp3280
a(I4
S'dobj'
p3281
I18
tp3282
a(I4
S'punct'
p3283
I19
tp3284
a(I21
S'advmod'
p3285
I20
tp3286
a(I4
S'conj'
p3287
I21
tp3288
a(I21
S'ccomp'
p3289
I22
tp3290
a(I24
S'nn'
p3291
I23
tp3292
a(I25
S'nsubj'
p3293
I24
tp3294
a(I22
S'dep'
p3295
I25
tp3296
a(I25
S'cc'
p3297
I26
tp3298
a(I28
S'nn'
p3299
I27
tp3300
a(I25
S'dep'
p3301
I28
tp3302
a(I1
S'punct'
p3303
I29
tp3304
a(I1
S'punct'
p3305
I30
tp3306
aa(lp3307
(I13
g3
I13
tp3308
a(I1
S'nsubj'
p3309
I0
tp3310
a(I13
S'loc'
p3311
I1
tp3312
a(I1
S'punct'
p3313
I2
tp3314
a(I4
S'nsubj'
p3315
I3
tp3316
a(I1
S'ccomp'
p3317
I4
tp3318
a(I6
S'nummod'
p3319
I5
tp3320
a(I4
S'range'
p3321
I6
tp3322
a(I1
S'case'
p3323
I7
tp3324
a(I13
S'punct'
p3325
I8
tp3326
a(I10
S'nn'
p3327
I9
tp3328
a(I13
S'nsubj'
p3329
I10
tp3330
a(I12
S'nummod'
p3331
I11
tp3332
a(I13
S'dep'
p3333
I12
tp3334
a(I13
S'dobj'
p3335
I14
tp3336
a(I16
S'mmod'
p3337
I15
tp3338
a(I13
S'conj'
p3339
I16
tp3340
a(I18
S'nn'
p3341
I17
tp3342
a(I16
S'dobj'
p3343
I18
tp3344
a(I13
S'punct'
p3345
I19
tp3346
a(I13
S'punct'
p3347
I20
tp3348
aa(lp3349
(I4
g3
I4
tp3350
a(I4
S'nsubj'
p3351
I0
tp3352
a(I3
S'case'
p3353
I1
tp3354
a(I3
S'nn'
p3355
I2
tp3356
a(I4
S'prep'
p3357
I3
tp3358
a(I4
S'punct'
p3359
I5
tp3360
a(I6
S'nn'
p3361
I6
tp3362
a(I7
S'dep'
p3363
I6
tp3364
a(I4
S'ccomp'
p3365
I7
tp3366
a(I10
S'nummod'
p3367
I8
tp3368
a(I10
S'amod'
p3369
I9
tp3370
a(I7
S'dobj'
p3371
I10
tp3372
a(I4
S'punct'
p3373
I11
tp3374
a(I19
S'nsubj'
p3375
I12
tp3376
a(I19
S'mmod'
p3377
I13
tp3378
a(I19
S'advmod'
p3379
I14
tp3380
a(I18
S'case'
p3381
I15
tp3382
a(I18
S'nummod'
p3383
I16
tp3384
a(I18
S'nn'
p3385
I17
tp3386
a(I19
S'prep'
p3387
I18
tp3388
a(I4
S'conj'
p3389
I19
tp3390
a(I21
S'nummod'
p3391
I20
tp3392
a(I25
S'clf'
p3393
I21
tp3394
a(I25
S'assmod'
p3395
I22
tp3396
a(I22
S'case'
p3397
I23
tp3398
a(I25
S'nn'
p3399
I24
tp3400
a(I19
S'dobj'
p3401
I25
tp3402
a(I19
S'punct'
p3403
I26
tp3404
a(I19
S'conj'
p3405
I27
tp3406
a(I30
S'conj'
p3407
I28
tp3408
a(I30
S'cc'
p3409
I29
tp3410
a(I27
S'dobj'
p3411
I30
tp3412
a(I19
S'punct'
p3413
I31
tp3414
a(I34
S'mmod'
p3415
I32
tp3416
a(I34
S'advmod'
p3417
I33
tp3418
a(I19
S'conj'
p3419
I34
tp3420
a(I19
S'punct'
p3421
I35
tp3422
a(I19
S'conj'
p3423
I36
tp3424
a(I19
S'cc'
p3425
I37
tp3426
a(I19
S'conj'
p3427
I38
tp3428
a(I38
S'dobj'
p3429
I39
tp3430
a(I19
S'punct'
p3431
I40
tp3432
a(I4
S'punct'
p3433
I41
tp3434
aa(lp3435
(I1
g3
I1
tp3436
a(I1
S'nsubj'
p3437
I0
tp3438
a(I1
S'punct'
p3439
I2
tp3440
a(I4
S'nsubj'
p3441
I3
tp3442
a(I1
S'ccomp'
p3443
I4
tp3444
a(I4
S'punct'
p3445
I5
tp3446
a(I10
S'nsubj'
p3447
I6
tp3448
a(I10
S'cop'
p3449
I7
tp3450
a(I10
S'advmod'
p3451
I8
tp3452
a(I10
S'advmod'
p3453
I9
tp3454
a(I4
S'ccomp'
p3455
I10
tp3456
a(I13
S'det'
p3457
I11
tp3458
a(I13
S'nn'
p3459
I12
tp3460
a(I10
S'dobj'
p3461
I13
tp3462
a(I4
S'punct'
p3463
I14
tp3464
a(I16
S'advmod'
p3465
I15
tp3466
a(I20
S'nsubj'
p3467
I16
tp3468
a(I16
S'dobj'
p3469
I17
tp3470
a(I16
S'mark'
p3471
I18
tp3472
a(I20
S'advmod'
p3473
I19
tp3474
a(I4
S'conj'
p3475
I20
tp3476
a(I22
S'nsubj'
p3477
I21
tp3478
a(I1
S'conj'
p3479
I22
tp3480
a(I25
S'nsubj'
p3481
I23
tp3482
a(I25
S'advmod'
p3483
I24
tp3484
a(I22
S'ccomp'
p3485
I25
tp3486
a(I28
S'nn'
p3487
I26
tp3488
a(I28
S'amod'
p3489
I27
tp3490
a(I25
S'dobj'
p3491
I28
tp3492
a(I1
S'punct'
p3493
I29
tp3494
a(I1
S'punct'
p3495
I30
tp3496
aa(lp3497
(I6
g3
I6
tp3498
a(I2
S'nn'
p3499
I0
tp3500
a(I2
S'nn'
p3501
I1
tp3502
a(I6
S'nsubj'
p3503
I2
tp3504
a(I6
S'case'
p3505
I3
tp3506
a(I6
S'amod'
p3507
I4
tp3508
a(I6
S'nn'
p3509
I5
tp3510
a(I6
S'punct'
p3511
I7
tp3512
a(I6
S'punct'
p3513
I8
tp3514
aa(lp3515
(I1
g3
I1
tp3516
a(I1
S'nsubj'
p3517
I0
tp3518
a(I3
S'nn'
p3519
I2
tp3520
a(I1
S'dobj'
p3521
I3
tp3522
a(I1
S'punct'
p3523
I4
tp3524
a(I1
S'punct'
p3525
I5
tp3526
aa(lp3527
(I3
g3
I3
tp3528
a(I1
S'nn'
p3529
I0
tp3530
a(I3
S'nsubj'
p3531
I1
tp3532
a(I3
S'advmod'
p3533
I2
tp3534
a(I3
S'dobj'
p3535
I4
tp3536
a(I3
S'punct'
p3537
I5
tp3538
a(I3
S'punct'
p3539
I6
tp3540
aa(lp3541
(I1
g3
I1
tp3542
a(I1
S'dep'
p3543
I0
tp3544
a(I1
S'nummod'
p3545
I1
tp3546
a(I1
S'dep'
p3547
I1
tp3548
a(I1
S'punct'
p3549
I2
tp3550
a(I1
S'punct'
p3551
I3
tp3552
aa(lp3553
(I1
g3
I1
tp3554
a(I0
S'nn'
p3555
I0
tp3556
a(I1
S'nsubj'
p3557
I0
tp3558
a(I6
S'nn'
p3559
I2
tp3560
a(I6
S'nn'
p3561
I3
tp3562
a(I6
S'nn'
p3563
I4
tp3564
a(I6
S'nn'
p3565
I5
tp3566
a(I1
S'dobj'
p3567
I6
tp3568
a(I1
S'punct'
p3569
I7
tp3570
a(I1
S'punct'
p3571
I8
tp3572
aa(lp3573
(I12
g3
I12
tp3574
a(I1
S'nummod'
p3575
I0
tp3576
a(I2
S'clf'
p3577
I1
tp3578
a(I12
S'nsubj'
p3579
I2
tp3580
a(I12
S'advmod'
p3581
I3
tp3582
a(I11
S'case'
p3583
I4
tp3584
a(I7
S'nsubj'
p3585
I5
tp3586
a(I7
S'advmod'
p3587
I6
tp3588
a(I11
S'relcl'
p3589
I7
tp3590
a(I7
S'mark'
p3591
I8
tp3592
a(I11
S'det'
p3593
I9
tp3594
a(I11
S'nn'
p3595
I10
tp3596
a(I12
S'prep'
p3597
I11
tp3598
a(I12
S'asp'
p3599
I13
tp3600
a(I12
S'dobj'
p3601
I14
tp3602
a(I12
S'punct'
p3603
I15
tp3604
a(I12
S'punct'
p3605
I16
tp3606
aa(lp3607
(I1
g3
I1
tp3608
a(I1
S'nsubj'
p3609
I0
tp3610
a(I1
S'punct'
p3611
I2
tp3612
a(I4
S'nummod'
p3613
I3
tp3614
a(I5
S'clf'
p3615
I4
tp3616
a(I6
S'nsubj'
p3617
I5
tp3618
a(I1
S'ccomp'
p3619
I6
tp3620
a(I6
S'punct'
p3621
I7
tp3622
a(I12
S'dep'
p3623
I8
tp3624
a(I12
S'punct'
p3625
I9
tp3626
a(I12
S'conj'
p3627
I10
tp3628
a(I12
S'cc'
p3629
I11
tp3630
a(I12
S'nn'
p3631
I12
tp3632
a(I13
S'nn'
p3633
I12
tp3634
a(I25
S'nsubj'
p3635
I13
tp3636
a(I25
S'advmod'
p3637
I14
tp3638
a(I16
S'case'
p3639
I15
tp3640
a(I25
S'prep'
p3641
I16
tp3642
a(I16
S'case'
p3643
I17
tp3644
a(I25
S'advmod'
p3645
I18
tp3646
a(I24
S'case'
p3647
I19
tp3648
a(I24
S'assmod'
p3649
I20
tp3650
a(I20
S'case'
p3651
I21
tp3652
a(I23
S'nn'
p3653
I22
tp3654
a(I24
S'nn'
p3655
I23
tp3656
a(I25
S'prep'
p3657
I24
tp3658
a(I6
S'ccomp'
p3659
I25
tp3660
a(I27
S'nsubj'
p3661
I26
tp3662
a(I25
S'conj'
p3663
I27
tp3664
a(I27
S'dobj'
p3665
I28
tp3666
a(I25
S'punct'
p3667
I29
tp3668
a(I1
S'punct'
p3669
I30
tp3670
aa(lp3671
(I1
g3
I1
tp3672
a(I1
S'nsubj'
p3673
I0
tp3674
a(I1
S'punct'
p3675
I2
tp3676
a(I6
S'nsubj'
p3677
I3
tp3678
a(I6
S'advmod'
p3679
I4
tp3680
a(I6
S'mmod'
p3681
I5
tp3682
a(I1
S'ccomp'
p3683
I6
tp3684
a(I17
S'case'
p3685
I7
tp3686
a(I12
S'case'
p3687
I8
tp3688
a(I12
S'conj'
p3689
I9
tp3690
a(I12
S'cc'
p3691
I10
tp3692
a(I12
S'det'
p3693
I11
tp3694
a(I13
S'prep'
p3695
I12
tp3696
a(I17
S'conj'
p3697
I13
tp3698
a(I17
S'cc'
p3699
I14
tp3700
a(I17
S'amod'
p3701
I15
tp3702
a(I17
S'nn'
p3703
I16
tp3704
a(I19
S'assmod'
p3705
I17
tp3706
a(I17
S'case'
p3707
I18
tp3708
a(I6
S'dobj'
p3709
I19
tp3710
a(I1
S'punct'
p3711
I20
tp3712
a(I1
S'punct'
p3713
I21
tp3714
aa(lp3715
(I1
g3
I1
tp3716
a(I1
S'nsubj'
p3717
I0
tp3718
a(I1
S'punct'
p3719
I2
tp3720
a(I4
S'nn'
p3721
I3
tp3722
a(I5
S'nsubj'
p3723
I4
tp3724
a(I1
S'ccomp'
p3725
I5
tp3726
a(I7
S'nn'
p3727
I6
tp3728
a(I5
S'dobj'
p3729
I7
tp3730
a(I10
S'mmod'
p3731
I8
tp3732
a(I10
S'mmod'
p3733
I9
tp3734
a(I5
S'conj'
p3735
I10
tp3736
a(I10
S'dobj'
p3737
I11
tp3738
a(I13
S'mmod'
p3739
I12
tp3740
a(I10
S'dep'
p3741
I13
tp3742
a(I13
S'cc'
p3743
I14
tp3744
a(I13
S'dep'
p3745
I15
tp3746
a(I16
S'nn'
p3747
I16
tp3748
a(I18
S'nsubj'
p3749
I16
tp3750
a(I18
S'mmod'
p3751
I17
tp3752
a(I33
S'relcl'
p3753
I18
tp3754
a(I18
S'mark'
p3755
I19
tp3756
a(I33
S'assmod'
p3757
I20
tp3758
a(I20
S'case'
p3759
I21
tp3760
a(I33
S'punct'
p3761
I22
tp3762
a(I24
S'nn'
p3763
I23
tp3764
a(I25
S'nsubj'
p3765
I24
tp3766
a(I33
S'relcl'
p3767
I25
tp3768
a(I25
S'mark'
p3769
I26
tp3770
a(I33
S'punct'
p3771
I27
tp3772
a(I33
S'relcl'
p3773
I28
tp3774
a(I28
S'dobj'
p3775
I29
tp3776
a(I28
S'mark'
p3777
I30
tp3778
a(I33
S'amod'
p3779
I31
tp3780
a(I33
S'nn'
p3781
I32
tp3782
a(I15
S'dobj'
p3783
I33
tp3784
a(I1
S'punct'
p3785
I34
tp3786
a(I36
S'mmod'
p3787
I35
tp3788
a(I1
S'conj'
p3789
I36
tp3790
a(I38
S'nn'
p3791
I37
tp3792
a(I41
S'assmod'
p3793
I38
tp3794
a(I38
S'case'
p3795
I39
tp3796
a(I41
S'amod'
p3797
I40
tp3798
a(I36
S'dobj'
p3799
I41
tp3800
a(I1
S'punct'
p3801
I42
tp3802
a(I1
S'punct'
p3803
I43
tp3804
aa(lp3805
(I7
g3
I7
tp3806
a(I1
S'case'
p3807
I0
tp3808
a(I7
S'prep'
p3809
I1
tp3810
a(I2
S'nn'
p3811
I2
tp3812
a(I3
S'nn'
p3813
I2
tp3814
a(I1
S'dobj'
p3815
I3
tp3816
a(I1
S'case'
p3817
I4
tp3818
a(I7
S'punct'
p3819
I5
tp3820
a(I7
S'nsubj'
p3821
I6
tp3822
a(I7
S'punct'
p3823
I8
tp3824
a(I10
S'case'
p3825
I9
tp3826
a(I12
S'prep'
p3827
I10
tp3828
a(I10
S'case'
p3829
I11
tp3830
a(I29
S'conj'
p3831
I12
tp3832
a(I13
S'det'
p3833
I13
tp3834
a(I13
S'clf'
p3835
I13
tp3836
a(I12
S'dobj'
p3837
I13
tp3838
a(I29
S'punct'
p3839
I14
tp3840
a(I15
S'nn'
p3841
I15
tp3842
a(I17
S'nn'
p3843
I15
tp3844
a(I17
S'nummod'
p3845
I16
tp3846
a(I18
S'nsubj'
p3847
I17
tp3848
a(I29
S'conj'
p3849
I18
tp3850
a(I22
S'relcl'
p3851
I19
tp3852
a(I19
S'mark'
p3853
I20
tp3854
a(I22
S'nn'
p3855
I21
tp3856
a(I18
S'dobj'
p3857
I22
tp3858
a(I29
S'cop'
p3859
I23
tp3860
a(I27
S'nn'
p3861
I24
tp3862
a(I27
S'conj'
p3863
I25
tp3864
a(I27
S'cc'
p3865
I26
tp3866
a(I29
S'assmod'
p3867
I27
tp3868
a(I27
S'case'
p3869
I28
tp3870
a(I7
S'ccomp'
p3871
I29
tp3872
a(I29
S'punct'
p3873
I30
tp3874
a(I7
S'punct'
p3875
I31
tp3876
aa(lp3877
(I2
g3
I2
tp3878
a(I1
S'nn'
p3879
I0
tp3880
a(I2
S'nsubj'
p3881
I1
tp3882
a(I4
S'nn'
p3883
I3
tp3884
a(I2
S'dobj'
p3885
I4
tp3886
a(I2
S'punct'
p3887
I5
tp3888
a(I2
S'punct'
p3889
I6
tp3890
aa(lp3891
(I7
g3
I7
tp3892
a(I2
S'case'
p3893
I0
tp3894
a(I2
S'nn'
p3895
I1
tp3896
a(I7
S'prep'
p3897
I2
tp3898
a(I7
S'punct'
p3899
I3
tp3900
a(I6
S'amod'
p3901
I4
tp3902
a(I6
S'nn'
p3903
I5
tp3904
a(I7
S'nsubj'
p3905
I6
tp3906
a(I7
S'punct'
p3907
I8
tp3908
a(I13
S'nsubj'
p3909
I9
tp3910
a(I13
S'advmod'
p3911
I10
tp3912
a(I12
S'case'
p3913
I11
tp3914
a(I13
S'prep'
p3915
I12
tp3916
a(I7
S'ccomp'
p3917
I13
tp3918
a(I13
S'ccomp'
p3919
I14
tp3920
a(I14
S'punct'
p3921
I15
tp3922
a(I17
S'nummod'
p3923
I16
tp3924
a(I21
S'clf'
p3925
I17
tp3926
a(I21
S'assmod'
p3927
I18
tp3928
a(I18
S'punct'
p3929
I19
tp3930
a(I18
S'case'
p3931
I20
tp3932
a(I14
S'dobj'
p3933
I21
tp3934
a(I14
S'punct'
p3935
I22
tp3936
a(I14
S'conj'
p3937
I23
tp3938
a(I25
S'nn'
p3939
I24
tp3940
a(I23
S'dobj'
p3941
I25
tp3942
a(I29
S'cop'
p3943
I26
tp3944
a(I29
S'assmod'
p3945
I27
tp3946
a(I27
S'case'
p3947
I28
tp3948
a(I23
S'dep'
p3949
I29
tp3950
a(I13
S'punct'
p3951
I30
tp3952
a(I32
S'nn'
p3953
I31
tp3954
a(I34
S'nsubj'
p3955
I32
tp3956
a(I34
S'mmod'
p3957
I33
tp3958
a(I13
S'conj'
p3959
I34
tp3960
a(I36
S'det'
p3961
I35
tp3962
a(I34
S'dobj'
p3963
I36
tp3964
a(I13
S'punct'
p3965
I37
tp3966
a(I40
S'neg'
p3967
I38
tp3968
a(I40
S'mmod'
p3969
I39
tp3970
a(I13
S'conj'
p3971
I40
tp3972
a(I13
S'punct'
p3973
I41
tp3974
a(I7
S'punct'
p3975
I42
tp3976
aa(lp3977
(I1
g3
I1
tp3978
a(I1
S'nsubj'
p3979
I0
tp3980
a(I1
S'punct'
p3981
I2
tp3982
a(I16
S'case'
p3983
I3
tp3984
a(I5
S'nn'
p3985
I4
tp3986
a(I13
S'loc'
p3987
I5
tp3988
a(I5
S'case'
p3989
I6
tp3990
a(I11
S'assmod'
p3991
I7
tp3992
a(I7
S'case'
p3993
I8
tp3994
a(I11
S'amod'
p3995
I9
tp3996
a(I11
S'amod'
p3997
I10
tp3998
a(I13
S'nsubj'
p3999
I11
tp4000
a(I13
S'neg'
p4001
I12
tp4002
a(I16
S'relcl'
p4003
I13
tp4004
a(I13
S'dobj'
p4005
I14
tp4006
a(I13
S'mark'
p4007
I15
tp4008
a(I25
S'prep'
p4009
I16
tp4010
a(I16
S'case'
p4011
I17
tp4012
a(I25
S'punct'
p4013
I18
tp4014
a(I21
S'assmod'
p4015
I19
tp4016
a(I19
S'case'
p4017
I20
tp4018
a(I25
S'nsubj'
p4019
I21
tp4020
a(I25
S'advmod'
p4021
I22
tp4022
a(I25
S'cop'
p4023
I23
tp4024
a(I25
S'punct'
p4025
I24
tp4026
a(I1
S'ccomp'
p4027
I25
tp4028
a(I25
S'dobj'
p4029
I26
tp4030
a(I25
S'cc'
p4031
I27
tp4032
a(I25
S'conj'
p4033
I28
tp4034
a(I32
S'conj'
p4035
I29
tp4036
a(I32
S'cc'
p4037
I30
tp4038
a(I32
S'nn'
p4039
I31
tp4040
a(I28
S'loc'
p4041
I32
tp4042
a(I32
S'punct'
p4043
I33
tp4044
a(I25
S'punct'
p4045
I34
tp4046
a(I1
S'punct'
p4047
I35
tp4048
aa(lp4049
(I10
g3
I10
tp4050
a(I10
S'nsubj'
p4051
I0
tp4052
a(I10
S'punct'
p4053
I1
tp4054
a(I4
S'nn'
p4055
I2
tp4056
a(I4
S'amod'
p4057
I3
tp4058
a(I7
S'assmod'
p4059
I4
tp4060
a(I4
S'case'
p4061
I5
tp4062
a(I7
S'nn'
p4063
I6
tp4064
a(I9
S'relcl'
p4065
I7
tp4066
a(I7
S'mark'
p4067
I8
tp4068
a(I10
S'nsubj'
p4069
I9
tp4070
a(I10
S'dobj'
p4071
I11
tp4072
a(I10
S'punct'
p4073
I12
tp4074
a(I26
S'mmod'
p4075
I13
tp4076
a(I25
S'case'
p4077
I14
tp4078
a(I16
S'amod'
p4079
I15
tp4080
a(I21
S'nsubj'
p4081
I16
tp4082
a(I20
S'case'
p4083
I17
tp4084
a(I20
S'nn'
p4085
I18
tp4086
a(I20
S'amod'
p4087
I19
tp4088
a(I21
S'prep'
p4089
I20
tp4090
a(I25
S'relcl'
p4091
I21
tp4092
a(I23
S'nn'
p4093
I22
tp4094
a(I21
S'dobj'
p4095
I23
tp4096
a(I21
S'mark'
p4097
I24
tp4098
a(I26
S'prep'
p4099
I25
tp4100
a(I10
S'conj'
p4101
I26
tp4102
a(I10
S'punct'
p4103
I27
tp4104
a(I10
S'punct'
p4105
I28
tp4106
aa(lp4107
(I4
g3
I4
tp4108
a(I4
S'nsubj'
p4109
I0
tp4110
a(I4
S'punct'
p4111
I1
tp4112
a(I4
S'nsubj'
p4113
I2
tp4114
a(I4
S'advmod'
p4115
I3
tp4116
a(I9
S'case'
p4117
I5
tp4118
a(I9
S'det'
p4119
I6
tp4120
a(I6
S'clf'
p4121
I7
tp4122
a(I9
S'det'
p4123
I8
tp4124
a(I10
S'prep'
p4125
I9
tp4126
a(I4
S'ccomp'
p4127
I10
tp4128
a(I12
S'nummod'
p4129
I11
tp4130
a(I18
S'nn'
p4131
I12
tp4132
a(I15
S'case'
p4133
I13
tp4134
a(I15
S'nn'
p4135
I14
tp4136
a(I18
S'assmod'
p4137
I15
tp4138
a(I15
S'case'
p4139
I16
tp4140
a(I15
S'case'
p4141
I17
tp4142
a(I10
S'dobj'
p4143
I18
tp4144
a(I4
S'punct'
p4145
I19
tp4146
a(I4
S'punct'
p4147
I20
tp4148
aa(lp4149
(I1
g3
I1
tp4150
a(I1
S'nsubj'
p4151
I0
tp4152
a(I1
S'punct'
p4153
I2
tp4154
a(I6
S'nsubj'
p4155
I3
tp4156
a(I6
S'tmod'
p4157
I4
tp4158
a(I6
S'advmod'
p4159
I5
tp4160
a(I1
S'ccomp'
p4161
I6
tp4162
a(I16
S'case'
p4163
I7
tp4164
a(I14
S'dep'
p4165
I8
tp4166
a(I14
S'punct'
p4167
I9
tp4168
a(I14
S'dep'
p4169
I10
tp4170
a(I14
S'punct'
p4171
I11
tp4172
a(I14
S'conj'
p4173
I12
tp4174
a(I14
S'cc'
p4175
I13
tp4176
a(I16
S'nn'
p4177
I14
tp4178
a(I16
S'nn'
p4179
I15
tp4180
a(I18
S'assmod'
p4181
I16
tp4182
a(I16
S'case'
p4183
I17
tp4184
a(I6
S'dobj'
p4185
I18
tp4186
a(I6
S'punct'
p4187
I19
tp4188
a(I21
S'amod'
p4189
I20
tp4190
a(I25
S'nsubj'
p4191
I21
tp4192
a(I25
S'punct'
p4193
I22
tp4194
a(I25
S'dvpmod'
p4195
I23
tp4196
a(I23
S'mark'
p4197
I24
tp4198
a(I6
S'conj'
p4199
I25
tp4200
a(I27
S'nummod'
p4201
I26
tp4202
a(I29
S'clf'
p4203
I27
tp4204
a(I29
S'nn'
p4205
I28
tp4206
a(I25
S'dobj'
p4207
I29
tp4208
a(I6
S'punct'
p4209
I30
tp4210
a(I32
S'prtmod'
p4211
I31
tp4212
a(I37
S'relcl'
p4213
I32
tp4214
a(I34
S'nn'
p4215
I33
tp4216
a(I32
S'dobj'
p4217
I34
tp4218
a(I32
S'dep'
p4219
I35
tp4220
a(I37
S'punct'
p4221
I36
tp4222
a(I39
S'nsubj'
p4223
I37
tp4224
a(I37
S'punct'
p4225
I38
tp4226
a(I6
S'conj'
p4227
I39
tp4228
a(I6
S'punct'
p4229
I40
tp4230
a(I6
S'conj'
p4231
I41
tp4232
a(I44
S'dep'
p4233
I42
tp4234
a(I42
S'case'
p4235
I43
tp4236
a(I41
S'dobj'
p4237
I44
tp4238
a(I6
S'punct'
p4239
I45
tp4240
a(I1
S'punct'
p4241
I46
tp4242
aa(lp4243
(I5
g3
I5
tp4244
a(I3
S'nn'
p4245
I0
tp4246
a(I3
S'nn'
p4247
I1
tp4248
a(I3
S'nn'
p4249
I2
tp4250
a(I5
S'nsubj'
p4251
I3
tp4252
a(I5
S'advmod'
p4253
I4
tp4254
a(I7
S'amod'
p4255
I6
tp4256
a(I5
S'dobj'
p4257
I7
tp4258
a(I5
S'punct'
p4259
I8
tp4260
a(I5
S'dep'
p4261
I9
tp4262
a(I9
S'dobj'
p4263
I10
tp4264
a(I9
S'dep'
p4265
I11
tp4266
a(I15
S'det'
p4267
I12
tp4268
a(I12
S'clf'
p4269
I13
tp4270
a(I15
S'nn'
p4271
I14
tp4272
a(I11
S'dobj'
p4273
I15
tp4274
a(I17
S'punct'
p4275
I16
tp4276
a(I15
S'prnmod'
p4277
I17
tp4278
a(I17
S'punct'
p4279
I18
tp4280
a(I15
S'punct'
p4281
I19
tp4282
a(I5
S'punct'
p4283
I20
tp4284
aa(lp4285
(I1
g3
I1
tp4286
a(I1
S'nsubj'
p4287
I0
tp4288
a(I1
S'punct'
p4289
I2
tp4290
a(I5
S'punct'
p4291
I3
tp4292
a(I5
S'nsubj'
p4293
I4
tp4294
a(I1
S'dep'
p4295
I5
tp4296
a(I7
S'nn'
p4297
I6
tp4298
a(I9
S'assmod'
p4299
I7
tp4300
a(I7
S'case'
p4301
I8
tp4302
a(I5
S'dobj'
p4303
I9
tp4304
a(I5
S'punct'
p4305
I10
tp4306
a(I16
S'advmod'
p4307
I11
tp4308
a(I16
S'advmod'
p4309
I12
tp4310
a(I16
S'cop'
p4311
I13
tp4312
a(I16
S'nsubj'
p4313
I14
tp4314
a(I16
S'mmod'
p4315
I15
tp4316
a(I5
S'conj'
p4317
I16
tp4318
a(I18
S'nn'
p4319
I17
tp4320
a(I20
S'assmod'
p4321
I18
tp4322
a(I18
S'case'
p4323
I19
tp4324
a(I16
S'dobj'
p4325
I20
tp4326
a(I5
S'punct'
p4327
I21
tp4328
a(I1
S'punct'
p4329
I22
tp4330
a(I1
S'punct'
p4331
I23
tp4332
aa(lp4333
(I1
g3
I1
tp4334
a(I1
S'nsubj'
p4335
I0
tp4336
a(I1
S'punct'
p4337
I2
tp4338
a(I4
S'nn'
p4339
I3
tp4340
a(I13
S'nsubj'
p4341
I4
tp4342
a(I13
S'cop'
p4343
I5
tp4344
a(I8
S'nsubj'
p4345
I6
tp4346
a(I8
S'advmod'
p4347
I7
tp4348
a(I13
S'relcl'
p4349
I8
tp4350
a(I8
S'dobj'
p4351
I9
tp4352
a(I8
S'mark'
p4353
I10
tp4354
a(I12
S'nummod'
p4355
I11
tp4356
a(I13
S'clf'
p4357
I12
tp4358
a(I1
S'ccomp'
p4359
I13
tp4360
a(I13
S'punct'
p4361
I14
tp4362
a(I16
S'mmod'
p4363
I15
tp4364
a(I13
S'conj'
p4365
I16
tp4366
a(I18
S'det'
p4367
I17
tp4368
a(I23
S'assmod'
p4369
I18
tp4370
a(I18
S'case'
p4371
I19
tp4372
a(I23
S'amod'
p4373
I20
tp4374
a(I23
S'conj'
p4375
I21
tp4376
a(I23
S'cc'
p4377
I22
tp4378
a(I16
S'dobj'
p4379
I23
tp4380
a(I13
S'punct'
p4381
I24
tp4382
a(I35
S'nsubj'
p4383
I25
tp4384
a(I35
S'mmod'
p4385
I26
tp4386
a(I28
S'case'
p4387
I27
tp4388
a(I35
S'prep'
p4389
I28
tp4390
a(I33
S'case'
p4391
I29
tp4392
a(I33
S'det'
p4393
I30
tp4394
a(I33
S'nn'
p4395
I31
tp4396
a(I33
S'nn'
p4397
I32
tp4398
a(I35
S'prep'
p4399
I33
tp4400
a(I35
S'punct'
p4401
I34
tp4402
a(I13
S'conj'
p4403
I35
tp4404
a(I35
S'dobj'
p4405
I36
tp4406
a(I13
S'punct'
p4407
I37
tp4408
a(I1
S'punct'
p4409
I38
tp4410
aa(lp4411
(I6
g3
I6
tp4412
a(I2
S'nn'
p4413
I0
tp4414
a(I2
S'nn'
p4415
I1
tp4416
a(I4
S'nn'
p4417
I2
tp4418
a(I4
S'nummod'
p4419
I3
tp4420
a(I6
S'nsubj'
p4421
I4
tp4422
a(I6
S'conj'
p4423
I5
tp4424
a(I8
S'nn'
p4425
I7
tp4426
a(I9
S'nsubj'
p4427
I8
tp4428
a(I6
S'dobj'
p4429
I9
tp4430
a(I9
S'ccomp'
p4431
I10
tp4432
a(I9
S'mark'
p4433
I11
tp4434
a(I6
S'punct'
p4435
I12
tp4436
a(I6
S'punct'
p4437
I13
tp4438
aa(lp4439
(I6
g3
I6
tp4440
a(I6
S'nsubj'
p4441
I0
tp4442
a(I6
S'advmod'
p4443
I1
tp4444
a(I5
S'case'
p4445
I2
tp4446
a(I5
S'dep'
p4447
I3
tp4448
a(I5
S'punct'
p4449
I4
tp4450
a(I6
S'prep'
p4451
I5
tp4452
a(I10
S'amod'
p4453
I7
tp4454
a(I10
S'nn'
p4455
I8
tp4456
a(I10
S'nn'
p4457
I9
tp4458
a(I6
S'dobj'
p4459
I10
tp4460
a(I6
S'punct'
p4461
I11
tp4462
a(I6
S'punct'
p4463
I12
tp4464
aa(lp4465
(I18
g3
I18
tp4466
a(I1
S'nn'
p4467
I0
tp4468
a(I18
S'nsubj'
p4469
I1
tp4470
a(I18
S'punct'
p4471
I2
tp4472
a(I4
S'nn'
p4473
I3
tp4474
a(I18
S'nsubj'
p4475
I4
tp4476
a(I18
S'advmod'
p4477
I5
tp4478
a(I17
S'case'
p4479
I6
tp4480
a(I8
S'nn'
p4481
I7
tp4482
a(I17
S'nn'
p4483
I8
tp4484
a(I11
S'advmod'
p4485
I9
tp4486
a(I11
S'amod'
p4487
I10
tp4488
a(I17
S'conj'
p4489
I11
tp4490
a(I17
S'cc'
p4491
I12
tp4492
a(I17
S'det'
p4493
I13
tp4494
a(I15
S'advmod'
p4495
I14
tp4496
a(I17
S'relcl'
p4497
I15
tp4498
a(I15
S'mark'
p4499
I16
tp4500
a(I18
S'prep'
p4501
I17
tp4502
a(I18
S'dobj'
p4503
I19
tp4504
a(I18
S'punct'
p4505
I20
tp4506
a(I18
S'punct'
p4507
I21
tp4508
aa(lp4509
(I3
g3
I3
tp4510
a(I2
S'nn'
p4511
I0
tp4512
a(I2
S'nn'
p4513
I1
tp4514
a(I3
S'nsubj'
p4515
I2
tp4516
a(I3
S'punct'
p4517
I4
tp4518
a(I3
S'punct'
p4519
I5
tp4520
aa(lp4521
(I2
g3
I2
tp4522
a(I1
S'nn'
p4523
I0
tp4524
a(I2
S'nsubj'
p4525
I1
tp4526
a(I2
S'dobj'
p4527
I3
tp4528
a(I2
S'punct'
p4529
I4
tp4530
a(I2
S'punct'
p4531
I5
tp4532
aa(lp4533
(I1
g3
I1
tp4534
a(I0
S'nn'
p4535
I0
tp4536
a(I0
S'nn'
p4537
I0
tp4538
a(I1
S'nsubj'
p4539
I0
tp4540
a(I5
S'nn'
p4541
I2
tp4542
a(I5
S'nn'
p4543
I3
tp4544
a(I5
S'nn'
p4545
I4
tp4546
a(I1
S'dobj'
p4547
I5
tp4548
a(I1
S'punct'
p4549
I6
tp4550
a(I1
S'punct'
p4551
I7
tp4552
aa(lp4553
(I5
g3
I5
tp4554
a(I2
S'conj'
p4555
I0
tp4556
a(I2
S'cc'
p4557
I1
tp4558
a(I5
S'nsubj'
p4559
I2
tp4560
a(I5
S'advmod'
p4561
I3
tp4562
a(I5
S'advmod'
p4563
I4
tp4564
a(I7
S'nn'
p4565
I6
tp4566
a(I8
S'nsubj'
p4567
I7
tp4568
a(I5
S'ccomp'
p4569
I8
tp4570
a(I5
S'punct'
p4571
I9
tp4572
a(I5
S'punct'
p4573
I10
tp4574
aa(lp4575
(I2
g3
I2
tp4576
a(I2
S'nsubj'
p4577
I0
tp4578
a(I2
S'advmod'
p4579
I1
tp4580
a(I2
S'punct'
p4581
I3
tp4582
a(I5
S'nn'
p4583
I4
tp4584
a(I6
S'nsubj'
p4585
I5
tp4586
a(I2
S'ccomp'
p4587
I6
tp4588
a(I6
S'ccomp'
p4589
I7
tp4590
a(I9
S'case'
p4591
I8
tp4592
a(I12
S'assmod'
p4593
I9
tp4594
a(I9
S'case'
p4595
I10
tp4596
a(I12
S'nn'
p4597
I11
tp4598
a(I7
S'dobj'
p4599
I12
tp4600
a(I6
S'punct'
p4601
I13
tp4602
a(I6
S'dep'
p4603
I14
tp4604
a(I16
S'nn'
p4605
I15
tp4606
a(I14
S'dobj'
p4607
I16
tp4608
a(I2
S'punct'
p4609
I17
tp4610
a(I2
S'punct'
p4611
I18
tp4612
aa(lp4613
(I1
g3
I1
tp4614
a(I1
S'nsubj'
p4615
I0
tp4616
a(I1
S'punct'
p4617
I2
tp4618
a(I26
S'case'
p4619
I3
tp4620
a(I26
S'det'
p4621
I4
tp4622
a(I26
S'relcl'
p4623
I5
tp4624
a(I7
S'case'
p4625
I6
tp4626
a(I19
S'prep'
p4627
I7
tp4628
a(I10
S'assmod'
p4629
I8
tp4630
a(I8
S'case'
p4631
I9
tp4632
a(I7
S'dobj'
p4633
I10
tp4634
a(I19
S'punct'
p4635
I11
tp4636
a(I19
S'dep'
p4637
I12
tp4638
a(I12
S'punct'
p4639
I13
tp4640
a(I12
S'conj'
p4641
I14
tp4642
a(I12
S'cc'
p4643
I15
tp4644
a(I12
S'dep'
p4645
I16
tp4646
a(I19
S'punct'
p4647
I17
tp4648
a(I19
S'advmod'
p4649
I18
tp4650
a(I5
S'ccomp'
p4651
I19
tp4652
a(I24
S'nn'
p4653
I20
tp4654
a(I24
S'det'
p4655
I21
tp4656
a(I24
S'nn'
p4657
I22
tp4658
a(I24
S'nn'
p4659
I23
tp4660
a(I19
S'dobj'
p4661
I24
tp4662
a(I5
S'mark'
p4663
I25
tp4664
a(I30
S'prep'
p4665
I26
tp4666
a(I30
S'punct'
p4667
I27
tp4668
a(I30
S'nsubj'
p4669
I28
tp4670
a(I30
S'advmod'
p4671
I29
tp4672
a(I1
S'ccomp'
p4673
I30
tp4674
a(I32
S'advmod'
p4675
I31
tp4676
a(I30
S'ccomp'
p4677
I32
tp4678
a(I30
S'punct'
p4679
I33
tp4680
a(I1
S'punct'
p4681
I34
tp4682
aa(lp4683
(I3
g3
I3
tp4684
a(I2
S'nn'
p4685
I0
tp4686
a(I2
S'nn'
p4687
I1
tp4688
a(I3
S'nsubj'
p4689
I2
tp4690
a(I3
S'punct'
p4691
I4
tp4692
a(I3
S'punct'
p4693
I5
tp4694
aa(lp4695
(I3
g3
I3
tp4696
a(I1
S'nn'
p4697
I0
tp4698
a(I3
S'nsubj'
p4699
I1
tp4700
a(I3
S'advmod'
p4701
I2
tp4702
a(I5
S'case'
p4703
I4
tp4704
a(I9
S'prep'
p4705
I5
tp4706
a(I7
S'nn'
p4707
I6
tp4708
a(I5
S'dep'
p4709
I7
tp4710
a(I9
S'punct'
p4711
I8
tp4712
a(I3
S'ccomp'
p4713
I9
tp4714
a(I16
S'nn'
p4715
I10
tp4716
a(I13
S'case'
p4717
I11
tp4718
a(I13
S'nn'
p4719
I12
tp4720
a(I16
S'assmod'
p4721
I13
tp4722
a(I13
S'case'
p4723
I14
tp4724
a(I16
S'amod'
p4725
I15
tp4726
a(I9
S'dobj'
p4727
I16
tp4728
a(I3
S'punct'
p4729
I17
tp4730
a(I3
S'punct'
p4731
I18
tp4732
aa(lp4733
(I3
g3
I3
tp4734
a(I2
S'det'
p4735
I0
tp4736
a(I0
S'clf'
p4737
I1
tp4738
a(I3
S'nsubj'
p4739
I2
tp4740
a(I3
S'punct'
p4741
I4
tp4742
a(I6
S'nn'
p4743
I5
tp4744
a(I8
S'assmod'
p4745
I6
tp4746
a(I6
S'case'
p4747
I7
tp4748
a(I11
S'nsubj'
p4749
I8
tp4750
a(I11
S'advmod'
p4751
I9
tp4752
a(I11
S'advmod'
p4753
I10
tp4754
a(I3
S'ccomp'
p4755
I11
tp4756
a(I14
S'nn'
p4757
I12
tp4758
a(I14
S'amod'
p4759
I13
tp4760
a(I11
S'dep'
p4761
I14
tp4762
a(I14
S'cc'
p4763
I15
tp4764
a(I17
S'advmod'
p4765
I16
tp4766
a(I14
S'dep'
p4767
I17
tp4768
a(I17
S'punct'
p4769
I18
tp4770
a(I17
S'dep'
p4771
I19
tp4772
a(I22
S'conj'
p4773
I20
tp4774
a(I22
S'cc'
p4775
I21
tp4776
a(I23
S'nn'
p4777
I22
tp4778
a(I27
S'dep'
p4779
I23
tp4780
a(I23
S'case'
p4781
I24
tp4782
a(I27
S'amod'
p4783
I25
tp4784
a(I27
S'nn'
p4785
I26
tp4786
a(I31
S'assmod'
p4787
I27
tp4788
a(I27
S'case'
p4789
I28
tp4790
a(I31
S'conj'
p4791
I29
tp4792
a(I31
S'cc'
p4793
I30
tp4794
a(I19
S'dobj'
p4795
I31
tp4796
a(I17
S'punct'
p4797
I32
tp4798
a(I3
S'punct'
p4799
I33
tp4800
aa(lp4801
(I9
g3
I9
tp4802
a(I9
S'advmod'
p4803
I0
tp4804
a(I9
S'punct'
p4805
I1
tp4806
a(I3
S'nn'
p4807
I2
tp4808
a(I5
S'nn'
p4809
I3
tp4810
a(I5
S'amod'
p4811
I4
tp4812
a(I9
S'nsubj'
p4813
I5
tp4814
a(I7
S'case'
p4815
I6
tp4816
a(I7
S'nummod'
p4817
I7
tp4818
a(I9
S'prep'
p4819
I7
tp4820
a(I7
S'case'
p4821
I7
tp4822
a(I9
S'advmod'
p4823
I8
tp4824
a(I15
S'relcl'
p4825
I10
tp4826
a(I12
S'case'
p4827
I11
tp4828
a(I10
S'prep'
p4829
I12
tp4830
a(I12
S'dobj'
p4831
I13
tp4832
a(I10
S'mark'
p4833
I14
tp4834
a(I9
S'dobj'
p4835
I15
tp4836
a(I9
S'punct'
p4837
I16
tp4838
a(I19
S'nummod'
p4839
I17
tp4840
a(I19
S'nn'
p4841
I18
tp4842
a(I21
S'nsubj'
p4843
I19
tp4844
a(I21
S'advmod'
p4845
I20
tp4846
a(I9
S'conj'
p4847
I21
tp4848
a(I21
S'asp'
p4849
I22
tp4850
a(I24
S'nummod'
p4851
I23
tp4852
a(I27
S'assmod'
p4853
I24
tp4854
a(I24
S'case'
p4855
I25
tp4856
a(I27
S'nn'
p4857
I26
tp4858
a(I21
S'dobj'
p4859
I27
tp4860
a(I9
S'punct'
p4861
I28
tp4862
a(I31
S'assmod'
p4863
I29
tp4864
a(I29
S'case'
p4865
I30
tp4866
a(I35
S'nsubj'
p4867
I31
tp4868
a(I35
S'advmod'
p4869
I32
tp4870
a(I35
S'advmod'
p4871
I33
tp4872
a(I35
S'mmod'
p4873
I34
tp4874
a(I9
S'conj'
p4875
I35
tp4876
a(I35
S'punct'
p4877
I36
tp4878
a(I9
S'punct'
p4879
I37
tp4880
aa(lp4881
(I3
g3
I3
tp4882
a(I3
S'nsubj'
p4883
I0
tp4884
a(I2
S'case'
p4885
I1
tp4886
a(I3
S'prep'
p4887
I2
tp4888
a(I5
S'amod'
p4889
I4
tp4890
a(I3
S'dobj'
p4891
I5
tp4892
a(I3
S'dep'
p4893
I6
tp4894
a(I6
S'punct'
p4895
I7
tp4896
a(I6
S'ccomp'
p4897
I8
tp4898
a(I14
S'case'
p4899
I9
tp4900
a(I12
S'case'
p4901
I10
tp4902
a(I12
S'nn'
p4903
I11
tp4904
a(I14
S'assmod'
p4905
I12
tp4906
a(I12
S'case'
p4907
I13
tp4908
a(I18
S'prep'
p4909
I14
tp4910
a(I18
S'punct'
p4911
I15
tp4912
a(I18
S'mmod'
p4913
I16
tp4914
a(I18
S'advmod'
p4915
I17
tp4916
a(I8
S'ccomp'
p4917
I18
tp4918
a(I18
S'punct'
p4919
I19
tp4920
a(I18
S'conj'
p4921
I20
tp4922
a(I20
S'dobj'
p4923
I21
tp4924
a(I18
S'punct'
p4925
I22
tp4926
a(I18
S'conj'
p4927
I23
tp4928
a(I25
S'nummod'
p4929
I24
tp4930
a(I28
S'nn'
p4931
I25
tp4932
a(I28
S'amod'
p4933
I26
tp4934
a(I28
S'nn'
p4935
I27
tp4936
a(I30
S'assmod'
p4937
I28
tp4938
a(I28
S'case'
p4939
I29
tp4940
a(I23
S'dobj'
p4941
I30
tp4942
a(I3
S'punct'
p4943
I31
tp4944
a(I3
S'punct'
p4945
I32
tp4946
aa(lp4947
(I11
g3
I11
tp4948
a(I11
S'nsubj'
p4949
I0
tp4950
a(I11
S'cop'
p4951
I1
tp4952
a(I3
S'nsubj'
p4953
I2
tp4954
a(I5
S'relcl'
p4955
I3
tp4956
a(I3
S'mark'
p4957
I4
tp4958
a(I11
S'nn'
p4959
I5
tp4960
a(I11
S'assmod'
p4961
I6
tp4962
a(I6
S'case'
p4963
I7
tp4964
a(I11
S'amod'
p4965
I8
tp4966
a(I11
S'nn'
p4967
I9
tp4968
a(I11
S'nn'
p4969
I10
tp4970
a(I11
S'punct'
p4971
I12
tp4972
a(I15
S'conj'
p4973
I13
tp4974
a(I15
S'cc'
p4975
I14
tp4976
a(I19
S'nn'
p4977
I15
tp4978
a(I19
S'clf'
p4979
I16
tp4980
a(I19
S'nn'
p4981
I17
tp4982
a(I19
S'nn'
p4983
I18
tp4984
a(I21
S'assmod'
p4985
I19
tp4986
a(I19
S'case'
p4987
I20
tp4988
a(I22
S'nsubj'
p4989
I21
tp4990
a(I11
S'conj'
p4991
I22
tp4992
a(I22
S'asp'
p4993
I23
tp4994
a(I26
S'nn'
p4995
I24
tp4996
a(I26
S'nn'
p4997
I25
tp4998
a(I28
S'assmod'
p4999
I26
tp5000
a(I26
S'case'
p5001
I27
tp5002
a(I22
S'dobj'
p5003
I28
tp5004
a(I22
S'punct'
p5005
I29
tp5006
a(I11
S'punct'
p5007
I30
tp5008
aa(lp5009
(I8
g3
I8
tp5010
a(I8
S'nsubj'
p5011
I0
tp5012
a(I8
S'dep'
p5013
I1
tp5014
a(I1
S'clf'
p5015
I2
tp5016
a(I8
S'cop'
p5017
I3
tp5018
a(I8
S'nummod'
p5019
I4
tp5020
a(I6
S'nummod'
p5021
I5
tp5022
a(I7
S'clf'
p5023
I6
tp5024
a(I8
S'nn'
p5025
I7
tp5026
a(I8
S'punct'
p5027
I9
tp5028
a(I17
S'nsubj'
p5029
I10
tp5030
a(I16
S'case'
p5031
I11
tp5032
a(I14
S'nn'
p5033
I12
tp5034
a(I14
S'nn'
p5035
I13
tp5036
a(I16
S'assmod'
p5037
I14
tp5038
a(I14
S'case'
p5039
I15
tp5040
a(I17
S'prep'
p5041
I16
tp5042
a(I8
S'conj'
p5043
I17
tp5044
a(I17
S'dobj'
p5045
I18
tp5046
a(I17
S'punct'
p5047
I19
tp5048
a(I21
S'advmod'
p5049
I20
tp5050
a(I17
S'dep'
p5051
I21
tp5052
a(I23
S'advmod'
p5053
I22
tp5054
a(I21
S'ccomp'
p5055
I23
tp5056
a(I27
S'relcl'
p5057
I24
tp5058
a(I24
S'dobj'
p5059
I25
tp5060
a(I24
S'mark'
p5061
I26
tp5062
a(I23
S'dobj'
p5063
I27
tp5064
a(I17
S'punct'
p5065
I28
tp5066
a(I8
S'punct'
p5067
I29
tp5068
aa.