(lp1
(lp2
(ibuftoken
BufToken
p3
(dp4
S'index'
p5
I0
sS'word'
p6
S'Chapter'
p7
sS'ne'
p8
S'O'
sS'pos'
p9
S'NN'
p10
sS'lemma'
p11
S'chapter'
p12
sS'nodes'
p13
Nsba(ibuftoken
BufToken
p14
(dp15
g5
I1
sg6
S'1'
sg8
S'NUMBER'
p16
sg9
S'CD'
p17
sg11
S'1'
sg13
Nsba(ibuftoken
BufToken
p18
(dp19
g5
I2
sg6
S'.'
sg8
S'O'
sg9
S'.'
sg11
S'.'
sg13
Nsbaa(lp20
(ibuftoken
BufToken
p21
(dp22
g5
I0
sg6
S'Once'
p23
sg8
S'DATE'
p24
sg9
S'RB'
p25
sg11
S'once'
p26
sg13
Nsba(ibuftoken
BufToken
p27
(dp28
g5
I1
sg6
S'when'
p29
sg8
S'O'
sg9
S'WRB'
p30
sg11
S'when'
p31
sg13
Nsba(ibuftoken
BufToken
p32
(dp33
g5
I2
sg6
S'I'
sg8
S'O'
sg9
S'PRP'
p34
sg11
S'I'
sg13
Nsba(ibuftoken
BufToken
p35
(dp36
g5
I3
sg6
S'was'
p37
sg8
S'O'
sg9
S'VBD'
p38
sg11
S'be'
p39
sg13
Nsba(ibuftoken
BufToken
p40
(dp41
g5
I4
sg6
S'six'
p42
sg8
S'DURATION'
p43
sg9
S'CD'
p44
sg11
S'six'
p45
sg13
Nsba(ibuftoken
BufToken
p46
(dp47
g5
I5
sg6
S'years'
p48
sg8
S'DURATION'
p49
sg9
S'NNS'
p50
sg11
S'year'
p51
sg13
Nsba(ibuftoken
BufToken
p52
(dp53
g5
I6
sg6
S'old'
p54
sg8
S'DURATION'
p55
sg9
S'JJ'
p56
sg11
S'old'
p57
sg13
Nsba(ibuftoken
BufToken
p58
(dp59
g5
I7
sg6
S'I'
sg8
S'O'
sg9
S'PRP'
p60
sg11
S'I'
sg13
Nsba(ibuftoken
BufToken
p61
(dp62
g5
I8
sg6
S'saw'
p63
sg8
S'O'
sg9
S'VBD'
p64
sg11
S'see'
p65
sg13
Nsba(ibuftoken
BufToken
p66
(dp67
g5
I9
sg6
S'a'
sg8
S'O'
sg9
S'DT'
p68
sg11
S'a'
sg13
Nsba(ibuftoken
BufToken
p69
(dp70
g5
I10
sg6
S'magnificent'
p71
sg8
S'O'
sg9
S'JJ'
p72
sg11
S'magnificent'
p73
sg13
Nsba(ibuftoken
BufToken
p74
(dp75
g5
I11
sg6
S'picture'
p76
sg8
S'O'
sg9
S'NN'
p77
sg11
S'picture'
p78
sg13
Nsba(ibuftoken
BufToken
p79
(dp80
g5
I12
sg6
S'in'
p81
sg8
S'O'
sg9
S'IN'
p82
sg11
S'in'
p83
sg13
Nsba(ibuftoken
BufToken
p84
(dp85
g5
I13
sg6
S'a'
sg8
S'O'
sg9
S'DT'
p86
sg11
S'a'
sg13
Nsba(ibuftoken
BufToken
p87
(dp88
g5
I14
sg6
S'book'
p89
sg8
S'O'
sg9
S'NN'
p90
sg11
S'book'
p91
sg13
Nsba(ibuftoken
BufToken
p92
(dp93
g5
I15
sg6
S','
sg8
S'O'
sg9
S','
sg11
S','
sg13
Nsba(ibuftoken
BufToken
p94
(dp95
g5
I16
sg6
S'called'
p96
sg8
S'O'
sg9
S'VBN'
p97
sg11
S'call'
p98
sg13
Nsba(ibuftoken
BufToken
p99
(dp100
g5
I17
sg6
S'True'
p101
sg8
S'O'
sg9
S'JJ'
p102
sg11
S'true'
p103
sg13
Nsba(ibuftoken
BufToken
p104
(dp105
g5
I18
sg6
S'Stories'
p106
sg8
S'O'
sg9
S'NNP'
p107
sg11
S'Stories'
p108
sg13
Nsba(ibuftoken
BufToken
p109
(dp110
g5
I19
sg6
S'from'
p111
sg8
S'O'
sg9
S'IN'
p112
sg11
S'from'
p113
sg13
Nsba(ibuftoken
BufToken
p114
(dp115
g5
I20
sg6
S'Nature'
p116
sg8
S'O'
sg9
S'NNP'
p117
sg11
S'Nature'
p118
sg13
Nsba(ibuftoken
BufToken
p119
(dp120
g5
I21
sg6
S','
sg8
S'O'
sg9
S','
sg11
S','
sg13
Nsba(ibuftoken
BufToken
p121
(dp122
g5
I22
sg6
S'about'
p123
sg8
S'O'
sg9
S'IN'
p124
sg11
S'about'
p125
sg13
Nsba(ibuftoken
BufToken
p126
(dp127
g5
I23
sg6
S'the'
p128
sg8
S'O'
sg9
S'DT'
p129
sg11
S'the'
p130
sg13
Nsba(ibuftoken
BufToken
p131
(dp132
g5
I24
sg6
S'primeval'
p133
sg8
S'O'
sg9
S'JJ'
p134
sg11
S'primeval'
p135
sg13
Nsba(ibuftoken
BufToken
p136
(dp137
g5
I25
sg6
S'forest'
p138
sg8
S'O'
sg9
S'NN'
p139
sg11
S'forest'
p140
sg13
Nsba(ibuftoken
BufToken
p141
(dp142
g5
I26
sg6
S'.'
sg8
S'O'
sg9
S'.'
sg11
S'.'
sg13
Nsbaa(lp143
(ibuftoken
BufToken
p144
(dp145
g5
I0
sg6
S'It'
p146
sg8
S'O'
sg9
S'PRP'
p147
sg11
S'it'
p148
sg13
Nsba(ibuftoken
BufToken
p149
(dp150
g5
I1
sg6
S'was'
p151
sg8
S'O'
sg9
S'VBD'
p152
sg11
S'be'
p153
sg13
Nsba(ibuftoken
BufToken
p154
(dp155
g5
I2
sg6
S'a'
sg8
S'O'
sg9
S'DT'
p156
sg11
S'a'
sg13
Nsba(ibuftoken
BufToken
p157
(dp158
g5
I3
sg6
S'picture'
p159
sg8
S'O'
sg9
S'NN'
p160
sg11
S'picture'
p161
sg13
Nsba(ibuftoken
BufToken
p162
(dp163
g5
I4
sg6
S'of'
p164
sg8
S'O'
sg9
S'IN'
p165
sg11
S'of'
p166
sg13
Nsba(ibuftoken
BufToken
p167
(dp168
g5
I5
sg6
S'a'
sg8
S'O'
sg9
S'DT'
p169
sg11
S'a'
sg13
Nsba(ibuftoken
BufToken
p170
(dp171
g5
I6
sg6
S'boa'
p172
sg8
S'O'
sg9
S'NN'
p173
sg11
S'boa'
p174
sg13
Nsba(ibuftoken
BufToken
p175
(dp176
g5
I7
sg6
S'constrictor'
p177
sg8
S'O'
sg9
S'NN'
p178
sg11
S'constrictor'
p179
sg13
Nsba(ibuftoken
BufToken
p180
(dp181
g5
I8
sg6
S'in'
p182
sg8
S'O'
sg9
S'IN'
p183
sg11
S'in'
p184
sg13
Nsba(ibuftoken
BufToken
p185
(dp186
g5
I9
sg6
S'the'
p187
sg8
S'O'
sg9
S'DT'
p188
sg11
S'the'
p189
sg13
Nsba(ibuftoken
BufToken
p190
(dp191
g5
I10
sg6
S'act'
p192
sg8
S'O'
sg9
S'NN'
p193
sg11
S'act'
p194
sg13
Nsba(ibuftoken
BufToken
p195
(dp196
g5
I11
sg6
S'of'
p197
sg8
S'O'
sg9
S'IN'
p198
sg11
S'of'
p199
sg13
Nsba(ibuftoken
BufToken
p200
(dp201
g5
I12
sg6
S'swallowing'
p202
sg8
S'O'
sg9
S'VBG'
p203
sg11
S'swallow'
p204
sg13
Nsba(ibuftoken
BufToken
p205
(dp206
g5
I13
sg6
S'an'
p207
sg8
S'O'
sg9
S'DT'
p208
sg11
S'a'
sg13
Nsba(ibuftoken
BufToken
p209
(dp210
g5
I14
sg6
S'animal'
p211
sg8
S'O'
sg9
S'NN'
p212
sg11
S'animal'
p213
sg13
Nsba(ibuftoken
BufToken
p214
(dp215
g5
I15
sg6
S'.'
sg8
S'O'
sg9
S'.'
sg11
S'.'
sg13
Nsbaa(lp216
(ibuftoken
BufToken
p217
(dp218
g5
I0
sg6
S'Here'
p219
sg8
S'O'
sg9
S'RB'
p220
sg11
S'here'
p221
sg13
Nsba(ibuftoken
BufToken
p222
(dp223
g5
I1
sg6
S'is'
p224
sg8
S'O'
sg9
S'VBZ'
p225
sg11
S'be'
p226
sg13
Nsba(ibuftoken
BufToken
p227
(dp228
g5
I2
sg6
S'a'
sg8
S'O'
sg9
S'DT'
p229
sg11
S'a'
sg13
Nsba(ibuftoken
BufToken
p230
(dp231
g5
I3
sg6
S'copy'
p232
sg8
S'O'
sg9
S'NN'
p233
sg11
S'copy'
p234
sg13
Nsba(ibuftoken
BufToken
p235
(dp236
g5
I4
sg6
S'of'
p237
sg8
S'O'
sg9
S'IN'
p238
sg11
S'of'
p239
sg13
Nsba(ibuftoken
BufToken
p240
(dp241
g5
I5
sg6
S'the'
p242
sg8
S'O'
sg9
S'DT'
p243
sg11
S'the'
p244
sg13
Nsba(ibuftoken
BufToken
p245
(dp246
g5
I6
sg6
S'drawing'
p247
sg8
S'O'
sg9
S'NN'
p248
sg11
S'drawing'
p249
sg13
Nsba(ibuftoken
BufToken
p250
(dp251
g5
I7
sg6
S'.'
sg8
S'O'
sg9
S'.'
sg11
S'.'
sg13
Nsbaa(lp252
(ibuftoken
BufToken
p253
(dp254
g5
I0
sg6
S'In'
p255
sg8
S'O'
sg9
S'IN'
p256
sg11
S'in'
p257
sg13
Nsba(ibuftoken
BufToken
p258
(dp259
g5
I1
sg6
S'the'
p260
sg8
S'O'
sg9
S'DT'
p261
sg11
S'the'
p262
sg13
Nsba(ibuftoken
BufToken
p263
(dp264
g5
I2
sg6
S'book'
p265
sg8
S'O'
sg9
S'NN'
p266
sg11
S'book'
p267
sg13
Nsba(ibuftoken
BufToken
p268
(dp269
g5
I3
sg6
S'it'
p270
sg8
S'O'
sg9
S'PRP'
p271
sg11
S'it'
p272
sg13
Nsba(ibuftoken
BufToken
p273
(dp274
g5
I4
sg6
S'said'
p275
sg8
S'O'
sg9
S'VBD'
p276
sg11
S'say'
p277
sg13
Nsba(ibuftoken
BufToken
p278
(dp279
g5
I5
sg6
S':'
sg8
S'O'
sg9
S':'
sg11
S':'
sg13
Nsba(ibuftoken
BufToken
p280
(dp281
g5
I6
sg6
S'"'
sg8
S'O'
sg9
S'``'
p282
sg11
S'"'
sg13
Nsba(ibuftoken
BufToken
p283
(dp284
g5
I7
sg6
S'Boa'
p285
sg8
S'O'
sg9
S'NN'
p286
sg11
S'boa'
p287
sg13
Nsba(ibuftoken
BufToken
p288
(dp289
g5
I8
sg6
S'constrictors'
p290
sg8
S'O'
sg9
S'NNS'
p291
sg11
S'constrictor'
p292
sg13
Nsba(ibuftoken
BufToken
p293
(dp294
g5
I9
sg6
S'swallow'
p295
sg8
S'O'
sg9
S'VBP'
p296
sg11
S'swallow'
p297
sg13
Nsba(ibuftoken
BufToken
p298
(dp299
g5
I10
sg6
S'their'
p300
sg8
S'O'
sg9
S'PRP$'
p301
sg11
S'they'
p302
sg13
Nsba(ibuftoken
BufToken
p303
(dp304
g5
I11
sg6
S'prey'
p305
sg8
S'O'
sg9
S'NN'
p306
sg11
S'prey'
p307
sg13
Nsba(ibuftoken
BufToken
p308
(dp309
g5
I12
sg6
S'whole'
p310
sg8
S'O'
sg9
S'NN'
p311
sg11
S'whole'
p312
sg13
Nsba(ibuftoken
BufToken
p313
(dp314
g5
I13
sg6
S','
sg8
S'O'
sg9
S','
sg11
S','
sg13
Nsba(ibuftoken
BufToken
p315
(dp316
g5
I14
sg6
S'without'
p317
sg8
S'O'
sg9
S'IN'
p318
sg11
S'without'
p319
sg13
Nsba(ibuftoken
BufToken
p320
(dp321
g5
I15
sg6
S'chewing'
p322
sg8
S'O'
sg9
S'VBG'
p323
sg11
S'chew'
p324
sg13
Nsba(ibuftoken
BufToken
p325
(dp326
g5
I16
sg6
S'it'
p327
sg8
S'O'
sg9
S'PRP'
p328
sg11
S'it'
p329
sg13
Nsba(ibuftoken
BufToken
p330
(dp331
g5
I17
sg6
S'.'
sg8
S'O'
sg9
S'.'
sg11
S'.'
sg13
Nsbaa(lp332
(ibuftoken
BufToken
p333
(dp334
g5
I0
sg6
S'After'
p335
sg8
S'O'
sg9
S'IN'
p336
sg11
S'after'
p337
sg13
Nsba(ibuftoken
BufToken
p338
(dp339
g5
I1
sg6
S'that'
p340
sg8
S'O'
sg9
S'IN'
p341
sg11
S'that'
p342
sg13
Nsba(ibuftoken
BufToken
p343
(dp344
g5
I2
sg6
S'they'
p345
sg8
S'O'
sg9
S'PRP'
p346
sg11
S'they'
p347
sg13
Nsba(ibuftoken
BufToken
p348
(dp349
g5
I3
sg6
S'are'
p350
sg8
S'O'
sg9
S'VBP'
p351
sg11
S'be'
p352
sg13
Nsba(ibuftoken
BufToken
p353
(dp354
g5
I4
sg6
S'not'
p355
sg8
S'O'
sg9
S'RB'
p356
sg11
S'not'
p357
sg13
Nsba(ibuftoken
BufToken
p358
(dp359
g5
I5
sg6
S'able'
p360
sg8
S'O'
sg9
S'JJ'
p361
sg11
S'able'
p362
sg13
Nsba(ibuftoken
BufToken
p363
(dp364
g5
I6
sg6
S'to'
p365
sg8
S'O'
sg9
S'TO'
p366
sg11
S'to'
p367
sg13
Nsba(ibuftoken
BufToken
p368
(dp369
g5
I7
sg6
S'move'
p370
sg8
S'O'
sg9
S'VB'
p371
sg11
S'move'
p372
sg13
Nsba(ibuftoken
BufToken
p373
(dp374
g5
I8
sg6
S','
sg8
S'O'
sg9
S','
sg11
S','
sg13
Nsba(ibuftoken
BufToken
p375
(dp376
g5
I9
sg6
S'and'
p377
sg8
S'O'
sg9
S'CC'
p378
sg11
S'and'
p379
sg13
Nsba(ibuftoken
BufToken
p380
(dp381
g5
I10
sg6
S'they'
p382
sg8
S'O'
sg9
S'PRP'
p383
sg11
S'they'
p384
sg13
Nsba(ibuftoken
BufToken
p385
(dp386
g5
I11
sg6
S'sleep'
p387
sg8
S'O'
sg9
S'VBP'
p388
sg11
S'sleep'
p389
sg13
Nsba(ibuftoken
BufToken
p390
(dp391
g5
I12
sg6
S'through'
p392
sg8
S'O'
sg9
S'IN'
p393
sg11
S'through'
p394
sg13
Nsba(ibuftoken
BufToken
p395
(dp396
g5
I13
sg6
S'the'
p397
sg8
S'DURATION'
p398
sg9
S'DT'
p399
sg11
S'the'
p400
sg13
Nsba(ibuftoken
BufToken
p401
(dp402
g5
I14
sg6
S'six'
p403
sg8
S'DURATION'
p404
sg9
S'CD'
p405
sg11
S'six'
p406
sg13
Nsba(ibuftoken
BufToken
p407
(dp408
g5
I15
sg6
S'months'
p409
sg8
S'DURATION'
p410
sg9
S'NNS'
p411
sg11
S'month'
p412
sg13
Nsba(ibuftoken
BufToken
p413
(dp414
g5
I16
sg6
S'that'
p415
sg8
S'O'
sg9
S'IN'
p416
sg11
S'that'
p417
sg13
Nsba(ibuftoken
BufToken
p418
(dp419
g5
I17
sg6
S'they'
p420
sg8
S'O'
sg9
S'PRP'
p421
sg11
S'they'
p422
sg13
Nsba(ibuftoken
BufToken
p423
(dp424
g5
I18
sg6
S'need'
p425
sg8
S'O'
sg9
S'VBP'
p426
sg11
S'need'
p427
sg13
Nsba(ibuftoken
BufToken
p428
(dp429
g5
I19
sg6
S'for'
p430
sg8
S'O'
sg9
S'IN'
p431
sg11
S'for'
p432
sg13
Nsba(ibuftoken
BufToken
p433
(dp434
g5
I20
sg6
S'digestion'
p435
sg8
S'O'
sg9
S'NN'
p436
sg11
S'digestion'
p437
sg13
Nsba(ibuftoken
BufToken
p438
(dp439
g5
I21
sg6
S'.'
sg8
S'O'
sg9
S'.'
sg11
S'.'
sg13
Nsba(ibuftoken
BufToken
p440
(dp441
g5
I22
sg6
S'"'
sg8
S'O'
sg9
S"''"
p442
sg11
S'"'
sg13
Nsbaa(lp443
(ibuftoken
BufToken
p444
(dp445
g5
I0
sg6
S'I'
sg8
S'O'
sg9
S'PRP'
p446
sg11
S'I'
sg13
Nsba(ibuftoken
BufToken
p447
(dp448
g5
I1
sg6
S'pondered'
p449
sg8
S'O'
sg9
S'VBD'
p450
sg11
S'ponder'
p451
sg13
Nsba(ibuftoken
BufToken
p452
(dp453
g5
I2
sg6
S'deeply'
p454
sg8
S'O'
sg9
S'RB'
p455
sg11
S'deeply'
p456
sg13
Nsba(ibuftoken
BufToken
p457
(dp458
g5
I3
sg6
S','
sg8
S'O'
sg9
S','
sg11
S','
sg13
Nsba(ibuftoken
BufToken
p459
(dp460
g5
I4
sg6
S'then'
p461
sg8
S'O'
sg9
S'RB'
p462
sg11
S'then'
p463
sg13
Nsba(ibuftoken
BufToken
p464
(dp465
g5
I5
sg6
S','
sg8
S'O'
sg9
S','
sg11
S','
sg13
Nsba(ibuftoken
BufToken
p466
(dp467
g5
I6
sg6
S'over'
p468
sg8
S'O'
sg9
S'IN'
p469
sg11
S'over'
p470
sg13
Nsba(ibuftoken
BufToken
p471
(dp472
g5
I7
sg6
S'the'
p473
sg8
S'O'
sg9
S'DT'
p474
sg11
S'the'
p475
sg13
Nsba(ibuftoken
BufToken
p476
(dp477
g5
I8
sg6
S'adventures'
p478
sg8
S'O'
sg9
S'NNS'
p479
sg11
S'adventure'
p480
sg13
Nsba(ibuftoken
BufToken
p481
(dp482
g5
I9
sg6
S'of'
p483
sg8
S'O'
sg9
S'IN'
p484
sg11
S'of'
p485
sg13
Nsba(ibuftoken
BufToken
p486
(dp487
g5
I10
sg6
S'the'
p488
sg8
S'O'
sg9
S'DT'
p489
sg11
S'the'
p490
sg13
Nsba(ibuftoken
BufToken
p491
(dp492
g5
I11
sg6
S'jungle'
p493
sg8
S'O'
sg9
S'NN'
p494
sg11
S'jungle'
p495
sg13
Nsba(ibuftoken
BufToken
p496
(dp497
g5
I12
sg6
S'.'
sg8
S'O'
sg9
S'.'
sg11
S'.'
sg13
Nsbaa(lp498
(ibuftoken
BufToken
p499
(dp500
g5
I0
sg6
S'And'
p501
sg8
S'O'
sg9
S'CC'
p502
sg11
S'and'
p503
sg13
Nsba(ibuftoken
BufToken
p504
(dp505
g5
I1
sg6
S'after'
p506
sg8
S'O'
sg9
S'IN'
p507
sg11
S'after'
p508
sg13
Nsba(ibuftoken
BufToken
p509
(dp510
g5
I2
sg6
S'some'
p511
sg8
S'O'
sg9
S'DT'
p512
sg11
S'some'
p513
sg13
Nsba(ibuftoken
BufToken
p514
(dp515
g5
I3
sg6
S'work'
p516
sg8
S'O'
sg9
S'NN'
p517
sg11
S'work'
p518
sg13
Nsba(ibuftoken
BufToken
p519
(dp520
g5
I4
sg6
S'with'
p521
sg8
S'O'
sg9
S'IN'
p522
sg11
S'with'
p523
sg13
Nsba(ibuftoken
BufToken
p524
(dp525
g5
I5
sg6
S'a'
sg8
S'O'
sg9
S'DT'
p526
sg11
S'a'
sg13
Nsba(ibuftoken
BufToken
p527
(dp528
g5
I6
sg6
S'colored'
p529
sg8
S'O'
sg9
S'VBN'
p530
sg11
S'color'
p531
sg13
Nsba(ibuftoken
BufToken
p532
(dp533
g5
I7
sg6
S'pencil'
p534
sg8
S'O'
sg9
S'NN'
p535
sg11
S'pencil'
p536
sg13
Nsba(ibuftoken
BufToken
p537
(dp538
g5
I8
sg6
S'I'
sg8
S'O'
sg9
S'PRP'
p539
sg11
S'I'
sg13
Nsba(ibuftoken
BufToken
p540
(dp541
g5
I9
sg6
S'succeeded'
p542
sg8
S'O'
sg9
S'VBD'
p543
sg11
S'succeed'
p544
sg13
Nsba(ibuftoken
BufToken
p545
(dp546
g5
I10
sg6
S'in'
p547
sg8
S'O'
sg9
S'IN'
p548
sg11
S'in'
p549
sg13
Nsba(ibuftoken
BufToken
p550
(dp551
g5
I11
sg6
S'making'
p552
sg8
S'O'
sg9
S'VBG'
p553
sg11
S'make'
p554
sg13
Nsba(ibuftoken
BufToken
p555
(dp556
g5
I12
sg6
S'my'
p557
sg8
S'O'
sg9
S'PRP$'
p558
sg11
S'my'
p559
sg13
Nsba(ibuftoken
BufToken
p560
(dp561
g5
I13
sg6
S'1'
sg8
S'ORDINAL'
p562
sg9
S'JJ'
p563
sg11
S'first'
p564
sg13
Nsba(ibuftoken
BufToken
p565
(dp566
g5
I14
sg6
S'drawing'
p567
sg8
S'O'
sg9
S'NN'
p568
sg11
S'drawing'
p569
sg13
Nsba(ibuftoken
BufToken
p570
(dp571
g5
I15
sg6
S'.'
sg8
S'O'
sg9
S'.'
sg11
S'.'
sg13
Nsbaa(lp572
(ibuftoken
BufToken
p573
(dp574
g5
I0
sg6
S'My'
p575
sg8
S'O'
sg9
S'PRP$'
p576
sg11
S'my'
p577
sg13
Nsba(ibuftoken
BufToken
p578
(dp579
g5
I1
sg6
S'Drawing'
p580
sg8
S'O'
sg9
S'NNP'
p581
sg11
S'Drawing'
p582
sg13
Nsba(ibuftoken
BufToken
p583
(dp584
g5
I2
sg6
S'Number'
p585
sg8
S'O'
sg9
S'NNP'
p586
sg11
S'Number'
p587
sg13
Nsba(ibuftoken
BufToken
p588
(dp589
g5
I3
sg6
S'1'
sg8
S'NUMBER'
p590
sg9
S'CD'
p591
sg11
S'One'
p592
sg13
Nsba(ibuftoken
BufToken
p593
(dp594
g5
I4
sg6
S'.'
sg8
S'O'
sg9
S'.'
sg11
S'.'
sg13
Nsbaa(lp595
(ibuftoken
BufToken
p596
(dp597
g5
I0
sg6
S'It'
p598
sg8
S'O'
sg9
S'PRP'
p599
sg11
S'it'
p600
sg13
Nsba(ibuftoken
BufToken
p601
(dp602
g5
I1
sg6
S'looked'
p603
sg8
S'O'
sg9
S'VBD'
p604
sg11
S'look'
p605
sg13
Nsba(ibuftoken
BufToken
p606
(dp607
g5
I2
sg6
S'like'
p608
sg8
S'O'
sg9
S'IN'
p609
sg11
S'like'
p610
sg13
Nsba(ibuftoken
BufToken
p611
(dp612
g5
I3
sg6
S'this'
p613
sg8
S'O'
sg9
S'DT'
p614
sg11
S'this'
p615
sg13
Nsba(ibuftoken
BufToken
p616
(dp617
g5
I4
sg6
S':'
sg8
S'O'
sg9
S':'
sg11
S':'
sg13
Nsba(ibuftoken
BufToken
p618
(dp619
g5
I5
sg6
S'I'
sg8
S'O'
sg9
S'PRP'
p620
sg11
S'I'
sg13
Nsba(ibuftoken
BufToken
p621
(dp622
g5
I6
sg6
S'showed'
p623
sg8
S'O'
sg9
S'VBD'
p624
sg11
S'show'
p625
sg13
Nsba(ibuftoken
BufToken
p626
(dp627
g5
I7
sg6
S'my'
p628
sg8
S'O'
sg9
S'PRP$'
p629
sg11
S'my'
p630
sg13
Nsba(ibuftoken
BufToken
p631
(dp632
g5
I8
sg6
S'masterpiece'
p633
sg8
S'O'
sg9
S'NN'
p634
sg11
S'masterpiece'
p635
sg13
Nsba(ibuftoken
BufToken
p636
(dp637
g5
I9
sg6
S'to'
p638
sg8
S'O'
sg9
S'TO'
p639
sg11
S'to'
p640
sg13
Nsba(ibuftoken
BufToken
p641
(dp642
g5
I10
sg6
S'the'
p643
sg8
S'O'
sg9
S'DT'
p644
sg11
S'the'
p645
sg13
Nsba(ibuftoken
BufToken
p646
(dp647
g5
I11
sg6
S'grown'
p648
sg8
S'O'
sg9
S'JJ'
p649
sg11
S'grown'
p650
sg13
Nsba(ibuftoken
BufToken
p651
(dp652
g5
I12
sg6
S'-'
sg8
S'O'
sg9
S':'
sg11
S'-'
sg13
Nsba(ibuftoken
BufToken
p653
(dp654
g5
I13
sg6
S'ups'
p655
sg8
S'O'
sg9
S'NNS'
p656
sg11
S'up'
p657
sg13
Nsba(ibuftoken
BufToken
p658
(dp659
g5
I14
sg6
S','
sg8
S'O'
sg9
S','
sg11
S','
sg13
Nsba(ibuftoken
BufToken
p660
(dp661
g5
I15
sg6
S'and'
p662
sg8
S'O'
sg9
S'CC'
p663
sg11
S'and'
p664
sg13
Nsba(ibuftoken
BufToken
p665
(dp666
g5
I16
sg6
S'asked'
p667
sg8
S'O'
sg9
S'VBD'
p668
sg11
S'ask'
p669
sg13
Nsba(ibuftoken
BufToken
p670
(dp671
g5
I17
sg6
S'them'
p672
sg8
S'O'
sg9
S'PRP'
p673
sg11
S'they'
p674
sg13
Nsba(ibuftoken
BufToken
p675
(dp676
g5
I18
sg6
S'whether'
p677
sg8
S'O'
sg9
S'IN'
p678
sg11
S'whether'
p679
sg13
Nsba(ibuftoken
BufToken
p680
(dp681
g5
I19
sg6
S'the'
p682
sg8
S'O'
sg9
S'DT'
p683
sg11
S'the'
p684
sg13
Nsba(ibuftoken
BufToken
p685
(dp686
g5
I20
sg6
S'drawing'
p687
sg8
S'O'
sg9
S'NN'
p688
sg11
S'drawing'
p689
sg13
Nsba(ibuftoken
BufToken
p690
(dp691
g5
I21
sg6
S'frightened'
p692
sg8
S'O'
sg9
S'VBD'
p693
sg11
S'frighten'
p694
sg13
Nsba(ibuftoken
BufToken
p695
(dp696
g5
I22
sg6
S'them'
p697
sg8
S'O'
sg9
S'PRP'
p698
sg11
S'they'
p699
sg13
Nsba(ibuftoken
BufToken
p700
(dp701
g5
I23
sg6
S'.'
sg8
S'O'
sg9
S'.'
sg11
S'.'
sg13
Nsbaa(lp702
(ibuftoken
BufToken
p703
(dp704
g5
I0
sg6
S'But'
p705
sg8
S'O'
sg9
S'CC'
p706
sg11
S'but'
p707
sg13
Nsba(ibuftoken
BufToken
p708
(dp709
g5
I1
sg6
S'they'
p710
sg8
S'O'
sg9
S'PRP'
p711
sg11
S'they'
p712
sg13
Nsba(ibuftoken
BufToken
p713
(dp714
g5
I2
sg6
S'answered'
p715
sg8
S'O'
sg9
S'VBD'
p716
sg11
S'answer'
p717
sg13
Nsba(ibuftoken
BufToken
p718
(dp719
g5
I3
sg6
S':'
sg8
S'O'
sg9
S':'
sg11
S':'
sg13
Nsba(ibuftoken
BufToken
p720
(dp721
g5
I4
sg6
S'"'
sg8
S'O'
sg9
S'``'
p722
sg11
S'"'
sg13
Nsba(ibuftoken
BufToken
p723
(dp724
g5
I5
sg6
S'Frighten'
p725
sg8
S'O'
sg9
S'VB'
p726
sg11
S'frighten'
p727
sg13
Nsba(ibuftoken
BufToken
p728
(dp729
g5
I6
sg6
S'?'
sg8
S'O'
sg9
S'.'
sg11
S'?'
sg13
Nsbaa(lp730
(ibuftoken
BufToken
p731
(dp732
g5
I0
sg6
S'Why'
p733
sg8
S'O'
sg9
S'WRB'
p734
sg11
S'why'
p735
sg13
Nsba(ibuftoken
BufToken
p736
(dp737
g5
I1
sg6
S'should'
p738
sg8
S'O'
sg9
S'MD'
p739
sg11
S'should'
p740
sg13
Nsba(ibuftoken
BufToken
p741
(dp742
g5
I2
sg6
S'any'
p743
sg8
S'O'
sg9
S'DT'
p744
sg11
S'any'
p745
sg13
Nsba(ibuftoken
BufToken
p746
(dp747
g5
I3
sg6
S'1'
sg8
S'NUMBER'
p748
sg9
S'CD'
p749
sg11
S'one'
p750
sg13
Nsba(ibuftoken
BufToken
p751
(dp752
g5
I4
sg6
S'be'
p753
sg8
S'O'
sg9
S'VB'
p754
sg11
S'be'
p755
sg13
Nsba(ibuftoken
BufToken
p756
(dp757
g5
I5
sg6
S'frightened'
p758
sg8
S'O'
sg9
S'VBN'
p759
sg11
S'frighten'
p760
sg13
Nsba(ibuftoken
BufToken
p761
(dp762
g5
I6
sg6
S'by'
p763
sg8
S'O'
sg9
S'IN'
p764
sg11
S'by'
p765
sg13
Nsba(ibuftoken
BufToken
p766
(dp767
g5
I7
sg6
S'a'
sg8
S'O'
sg9
S'DT'
p768
sg11
S'a'
sg13
Nsba(ibuftoken
BufToken
p769
(dp770
g5
I8
sg6
S'hat'
p771
sg8
S'O'
sg9
S'NN'
p772
sg11
S'hat'
p773
sg13
Nsba(ibuftoken
BufToken
p774
(dp775
g5
I9
sg6
S'?'
sg8
S'O'
sg9
S'.'
sg11
S'?'
sg13
Nsba(ibuftoken
BufToken
p776
(dp777
g5
I10
sg6
S'"'
sg8
S'O'
sg9
S"''"
p778
sg11
S'"'
sg13
Nsbaa(lp779
(ibuftoken
BufToken
p780
(dp781
g5
I0
sg6
S'My'
p782
sg8
S'O'
sg9
S'PRP$'
p783
sg11
S'my'
p784
sg13
Nsba(ibuftoken
BufToken
p785
(dp786
g5
I1
sg6
S'drawing'
p787
sg8
S'O'
sg9
S'NN'
p788
sg11
S'drawing'
p789
sg13
Nsba(ibuftoken
BufToken
p790
(dp791
g5
I2
sg6
S'was'
p792
sg8
S'O'
sg9
S'VBD'
p793
sg11
S'be'
p794
sg13
Nsba(ibuftoken
BufToken
p795
(dp796
g5
I3
sg6
S'not'
p797
sg8
S'O'
sg9
S'RB'
p798
sg11
S'not'
p799
sg13
Nsba(ibuftoken
BufToken
p800
(dp801
g5
I4
sg6
S'a'
sg8
S'O'
sg9
S'DT'
p802
sg11
S'a'
sg13
Nsba(ibuftoken
BufToken
p803
(dp804
g5
I5
sg6
S'picture'
p805
sg8
S'O'
sg9
S'NN'
p806
sg11
S'picture'
p807
sg13
Nsba(ibuftoken
BufToken
p808
(dp809
g5
I6
sg6
S'of'
p810
sg8
S'O'
sg9
S'IN'
p811
sg11
S'of'
p812
sg13
Nsba(ibuftoken
BufToken
p813
(dp814
g5
I7
sg6
S'a'
sg8
S'O'
sg9
S'DT'
p815
sg11
S'a'
sg13
Nsba(ibuftoken
BufToken
p816
(dp817
g5
I8
sg6
S'hat'
p818
sg8
S'O'
sg9
S'NN'
p819
sg11
S'hat'
p820
sg13
Nsba(ibuftoken
BufToken
p821
(dp822
g5
I9
sg6
S'.'
sg8
S'O'
sg9
S'.'
sg11
S'.'
sg13
Nsbaa(lp823
(ibuftoken
BufToken
p824
(dp825
g5
I0
sg6
S'It'
p826
sg8
S'O'
sg9
S'PRP'
p827
sg11
S'it'
p828
sg13
Nsba(ibuftoken
BufToken
p829
(dp830
g5
I1
sg6
S'was'
p831
sg8
S'O'
sg9
S'VBD'
p832
sg11
S'be'
p833
sg13
Nsba(ibuftoken
BufToken
p834
(dp835
g5
I2
sg6
S'a'
sg8
S'O'
sg9
S'DT'
p836
sg11
S'a'
sg13
Nsba(ibuftoken
BufToken
p837
(dp838
g5
I3
sg6
S'picture'
p839
sg8
S'O'
sg9
S'NN'
p840
sg11
S'picture'
p841
sg13
Nsba(ibuftoken
BufToken
p842
(dp843
g5
I4
sg6
S'of'
p844
sg8
S'O'
sg9
S'IN'
p845
sg11
S'of'
p846
sg13
Nsba(ibuftoken
BufToken
p847
(dp848
g5
I5
sg6
S'a'
sg8
S'O'
sg9
S'DT'
p849
sg11
S'a'
sg13
Nsba(ibuftoken
BufToken
p850
(dp851
g5
I6
sg6
S'boa'
p852
sg8
S'O'
sg9
S'NN'
p853
sg11
S'boa'
p854
sg13
Nsba(ibuftoken
BufToken
p855
(dp856
g5
I7
sg6
S'constrictor'
p857
sg8
S'O'
sg9
S'NN'
p858
sg11
S'constrictor'
p859
sg13
Nsba(ibuftoken
BufToken
p860
(dp861
g5
I8
sg6
S'digesting'
p862
sg8
S'O'
sg9
S'VBG'
p863
sg11
S'digest'
p864
sg13
Nsba(ibuftoken
BufToken
p865
(dp866
g5
I9
sg6
S'an'
p867
sg8
S'O'
sg9
S'DT'
p868
sg11
S'a'
sg13
Nsba(ibuftoken
BufToken
p869
(dp870
g5
I10
sg6
S'elephant'
p871
sg8
S'O'
sg9
S'NN'
p872
sg11
S'elephant'
p873
sg13
Nsba(ibuftoken
BufToken
p874
(dp875
g5
I11
sg6
S'.'
sg8
S'O'
sg9
S'.'
sg11
S'.'
sg13
Nsbaa(lp876
(ibuftoken
BufToken
p877
(dp878
g5
I0
sg6
S'But'
p879
sg8
S'O'
sg9
S'CC'
p880
sg11
S'but'
p881
sg13
Nsba(ibuftoken
BufToken
p882
(dp883
g5
I1
sg6
S'since'
p884
sg8
S'O'
sg9
S'IN'
p885
sg11
S'since'
p886
sg13
Nsba(ibuftoken
BufToken
p887
(dp888
g5
I2
sg6
S'the'
p889
sg8
S'O'
sg9
S'DT'
p890
sg11
S'the'
p891
sg13
Nsba(ibuftoken
BufToken
p892
(dp893
g5
I3
sg6
S'grown'
p894
sg8
S'O'
sg9
S'JJ'
p895
sg11
S'grown'
p896
sg13
Nsba(ibuftoken
BufToken
p897
(dp898
g5
I4
sg6
S'-'
sg8
S'O'
sg9
S':'
sg11
S'-'
sg13
Nsba(ibuftoken
BufToken
p899
(dp900
g5
I5
sg6
S'ups'
p901
sg8
S'O'
sg9
S'NNS'
p902
sg11
S'up'
p903
sg13
Nsba(ibuftoken
BufToken
p904
(dp905
g5
I6
sg6
S'were'
p906
sg8
S'O'
sg9
S'VBD'
p907
sg11
S'be'
p908
sg13
Nsba(ibuftoken
BufToken
p909
(dp910
g5
I7
sg6
S'not'
p911
sg8
S'O'
sg9
S'RB'
p912
sg11
S'not'
p913
sg13
Nsba(ibuftoken
BufToken
p914
(dp915
g5
I8
sg6
S'able'
p916
sg8
S'O'
sg9
S'JJ'
p917
sg11
S'able'
p918
sg13
Nsba(ibuftoken
BufToken
p919
(dp920
g5
I9
sg6
S'to'
p921
sg8
S'O'
sg9
S'TO'
p922
sg11
S'to'
p923
sg13
Nsba(ibuftoken
BufToken
p924
(dp925
g5
I10
sg6
S'understand'
p926
sg8
S'O'
sg9
S'VB'
p927
sg11
S'understand'
p928
sg13
Nsba(ibuftoken
BufToken
p929
(dp930
g5
I11
sg6
S'it'
p931
sg8
S'O'
sg9
S'PRP'
p932
sg11
S'it'
p933
sg13
Nsba(ibuftoken
BufToken
p934
(dp935
g5
I12
sg6
S','
sg8
S'O'
sg9
S','
sg11
S','
sg13
Nsba(ibuftoken
BufToken
p936
(dp937
g5
I13
sg6
S'I'
sg8
S'O'
sg9
S'PRP'
p938
sg11
S'I'
sg13
Nsba(ibuftoken
BufToken
p939
(dp940
g5
I14
sg6
S'made'
p941
sg8
S'O'
sg9
S'VBD'
p942
sg11
S'make'
p943
sg13
Nsba(ibuftoken
BufToken
p944
(dp945
g5
I15
sg6
S'another'
p946
sg8
S'O'
sg9
S'DT'
p947
sg11
S'another'
p948
sg13
Nsba(ibuftoken
BufToken
p949
(dp950
g5
I16
sg6
S'drawing'
p951
sg8
S'O'
sg9
S'NN'
p952
sg11
S'drawing'
p953
sg13
Nsba(ibuftoken
BufToken
p954
(dp955
g5
I17
sg6
S':'
sg8
S'O'
sg9
S':'
sg11
S':'
sg13
Nsba(ibuftoken
BufToken
p956
(dp957
g5
I18
sg6
S'I'
sg8
S'O'
sg9
S'PRP'
p958
sg11
S'I'
sg13
Nsba(ibuftoken
BufToken
p959
(dp960
g5
I19
sg6
S'drew'
p961
sg8
S'O'
sg9
S'VBD'
p962
sg11
S'draw'
p963
sg13
Nsba(ibuftoken
BufToken
p964
(dp965
g5
I20
sg6
S'the'
p966
sg8
S'O'
sg9
S'DT'
p967
sg11
S'the'
p968
sg13
Nsba(ibuftoken
BufToken
p969
(dp970
g5
I21
sg6
S'inside'
p971
sg8
S'O'
sg9
S'NN'
p972
sg11
S'inside'
p973
sg13
Nsba(ibuftoken
BufToken
p974
(dp975
g5
I22
sg6
S'of'
p976
sg8
S'O'
sg9
S'IN'
p977
sg11
S'of'
p978
sg13
Nsba(ibuftoken
BufToken
p979
(dp980
g5
I23
sg6
S'the'
p981
sg8
S'O'
sg9
S'DT'
p982
sg11
S'the'
p983
sg13
Nsba(ibuftoken
BufToken
p984
(dp985
g5
I24
sg6
S'boa'
p986
sg8
S'O'
sg9
S'NN'
p987
sg11
S'boa'
p988
sg13
Nsba(ibuftoken
BufToken
p989
(dp990
g5
I25
sg6
S'constrictor'
p991
sg8
S'O'
sg9
S'NN'
p992
sg11
S'constrictor'
p993
sg13
Nsba(ibuftoken
BufToken
p994
(dp995
g5
I26
sg6
S','
sg8
S'O'
sg9
S','
sg11
S','
sg13
Nsba(ibuftoken
BufToken
p996
(dp997
g5
I27
sg6
S'so'
p998
sg8
S'O'
sg9
S'RB'
p999
sg11
S'so'
p1000
sg13
Nsba(ibuftoken
BufToken
p1001
(dp1002
g5
I28
sg6
S'that'
p1003
sg8
S'O'
sg9
S'IN'
p1004
sg11
S'that'
p1005
sg13
Nsba(ibuftoken
BufToken
p1006
(dp1007
g5
I29
sg6
S'the'
p1008
sg8
S'O'
sg9
S'DT'
p1009
sg11
S'the'
p1010
sg13
Nsba(ibuftoken
BufToken
p1011
(dp1012
g5
I30
sg6
S'grown'
p1013
sg8
S'O'
sg9
S'JJ'
p1014
sg11
S'grown'
p1015
sg13
Nsba(ibuftoken
BufToken
p1016
(dp1017
g5
I31
sg6
S'-'
sg8
S'O'
sg9
S':'
sg11
S'-'
sg13
Nsba(ibuftoken
BufToken
p1018
(dp1019
g5
I32
sg6
S'ups'
p1020
sg8
S'O'
sg9
S'NNS'
p1021
sg11
S'up'
p1022
sg13
Nsba(ibuftoken
BufToken
p1023
(dp1024
g5
I33
sg6
S'could'
p1025
sg8
S'O'
sg9
S'MD'
p1026
sg11
S'could'
p1027
sg13
Nsba(ibuftoken
BufToken
p1028
(dp1029
g5
I34
sg6
S'see'
p1030
sg8
S'O'
sg9
S'VB'
p1031
sg11
S'see'
p1032
sg13
Nsba(ibuftoken
BufToken
p1033
(dp1034
g5
I35
sg6
S'it'
p1035
sg8
S'O'
sg9
S'PRP'
p1036
sg11
S'it'
p1037
sg13
Nsba(ibuftoken
BufToken
p1038
(dp1039
g5
I36
sg6
S'clearly'
p1040
sg8
S'O'
sg9
S'RB'
p1041
sg11
S'clearly'
p1042
sg13
Nsba(ibuftoken
BufToken
p1043
(dp1044
g5
I37
sg6
S'.'
sg8
S'O'
sg9
S'.'
sg11
S'.'
sg13
Nsbaa(lp1045
(ibuftoken
BufToken
p1046
(dp1047
g5
I0
sg6
S'They'
p1048
sg8
S'O'
sg9
S'PRP'
p1049
sg11
S'they'
p1050
sg13
Nsba(ibuftoken
BufToken
p1051
(dp1052
g5
I1
sg6
S'always'
p1053
sg8
S'O'
sg9
S'RB'
p1054
sg11
S'always'
p1055
sg13
Nsba(ibuftoken
BufToken
p1056
(dp1057
g5
I2
sg6
S'need'
p1058
sg8
S'O'
sg9
S'VBP'
p1059
sg11
S'need'
p1060
sg13
Nsba(ibuftoken
BufToken
p1061
(dp1062
g5
I3
sg6
S'to'
p1063
sg8
S'O'
sg9
S'TO'
p1064
sg11
S'to'
p1065
sg13
Nsba(ibuftoken
BufToken
p1066
(dp1067
g5
I4
sg6
S'have'
p1068
sg8
S'O'
sg9
S'VB'
p1069
sg11
S'have'
p1070
sg13
Nsba(ibuftoken
BufToken
p1071
(dp1072
g5
I5
sg6
S'things'
p1073
sg8
S'O'
sg9
S'NNS'
p1074
sg11
S'thing'
p1075
sg13
Nsba(ibuftoken
BufToken
p1076
(dp1077
g5
I6
sg6
S'explained'
p1078
sg8
S'O'
sg9
S'VBN'
p1079
sg11
S'explain'
p1080
sg13
Nsba(ibuftoken
BufToken
p1081
(dp1082
g5
I7
sg6
S'.'
sg8
S'O'
sg9
S'.'
sg11
S'.'
sg13
Nsbaa(lp1083
(ibuftoken
BufToken
p1084
(dp1085
g5
I0
sg6
S'My'
p1086
sg8
S'O'
sg9
S'PRP$'
p1087
sg11
S'my'
p1088
sg13
Nsba(ibuftoken
BufToken
p1089
(dp1090
g5
I1
sg6
S'Drawing'
p1091
sg8
S'O'
sg9
S'NNP'
p1092
sg11
S'Drawing'
p1093
sg13
Nsba(ibuftoken
BufToken
p1094
(dp1095
g5
I2
sg6
S'Number'
p1096
sg8
S'O'
sg9
S'NNP'
p1097
sg11
S'Number'
p1098
sg13
Nsba(ibuftoken
BufToken
p1099
(dp1100
g5
I3
sg6
S'2'
sg8
S'NUMBER'
p1101
sg9
S'CD'
p1102
sg11
S'Two'
p1103
sg13
Nsba(ibuftoken
BufToken
p1104
(dp1105
g5
I4
sg6
S'looked'
p1106
sg8
S'O'
sg9
S'VBD'
p1107
sg11
S'look'
p1108
sg13
Nsba(ibuftoken
BufToken
p1109
(dp1110
g5
I5
sg6
S'like'
p1111
sg8
S'O'
sg9
S'IN'
p1112
sg11
S'like'
p1113
sg13
Nsba(ibuftoken
BufToken
p1114
(dp1115
g5
I6
sg6
S'this'
p1116
sg8
S'O'
sg9
S'DT'
p1117
sg11
S'this'
p1118
sg13
Nsba(ibuftoken
BufToken
p1119
(dp1120
g5
I7
sg6
S':'
sg8
S'O'
sg9
S':'
sg11
S':'
sg13
Nsba(ibuftoken
BufToken
p1121
(dp1122
g5
I8
sg6
S'The'
p1123
sg8
S'O'
sg9
S'DT'
p1124
sg11
S'the'
p1125
sg13
Nsba(ibuftoken
BufToken
p1126
(dp1127
g5
I9
sg6
S'grown'
p1128
sg8
S'O'
sg9
S'JJ'
p1129
sg11
S'grown'
p1130
sg13
Nsba(ibuftoken
BufToken
p1131
(dp1132
g5
I10
sg6
S'-'
sg8
S'O'
sg9
S':'
sg11
S'-'
sg13
Nsba(ibuftoken
BufToken
p1133
(dp1134
g5
I11
sg6
S'ups'
p1135
sg8
S'O'
sg9
S'NNS'
p1136
sg11
S'up'
p1137
sg13
Nsba(ibuftoken
BufToken
p1138
(dp1139
g5
I12
sg6
S"'"
sg8
S'O'
sg9
S'POS'
p1140
sg11
S"'"
sg13
Nsba(ibuftoken
BufToken
p1141
(dp1142
g5
I13
sg6
S'response'
p1143
sg8
S'O'
sg9
S'NN'
p1144
sg11
S'response'
p1145
sg13
Nsba(ibuftoken
BufToken
p1146
(dp1147
g5
I14
sg6
S','
sg8
S'O'
sg9
S','
sg11
S','
sg13
Nsba(ibuftoken
BufToken
p1148
(dp1149
g5
I15
sg6
S'this'
p1150
sg8
S'O'
sg9
S'DT'
p1151
sg11
S'this'
p1152
sg13
Nsba(ibuftoken
BufToken
p1153
(dp1154
g5
I16
sg6
S'time'
p1155
sg8
S'O'
sg9
S'NN'
p1156
sg11
S'time'
p1157
sg13
Nsba(ibuftoken
BufToken
p1158
(dp1159
g5
I17
sg6
S','
sg8
S'O'
sg9
S','
sg11
S','
sg13
Nsba(ibuftoken
BufToken
p1160
(dp1161
g5
I18
sg6
S'was'
p1162
sg8
S'O'
sg9
S'VBD'
p1163
sg11
S'be'
p1164
sg13
Nsba(ibuftoken
BufToken
p1165
(dp1166
g5
I19
sg6
S'to'
p1167
sg8
S'O'
sg9
S'TO'
p1168
sg11
S'to'
p1169
sg13
Nsba(ibuftoken
BufToken
p1170
(dp1171
g5
I20
sg6
S'advise'
p1172
sg8
S'O'
sg9
S'VB'
p1173
sg11
S'advise'
p1174
sg13
Nsba(ibuftoken
BufToken
p1175
(dp1176
g5
I21
sg6
S'me'
p1177
sg8
S'O'
sg9
S'PRP'
p1178
sg11
S'I'
sg13
Nsba(ibuftoken
BufToken
p1179
(dp1180
g5
I22
sg6
S'to'
p1181
sg8
S'O'
sg9
S'TO'
p1182
sg11
S'to'
p1183
sg13
Nsba(ibuftoken
BufToken
p1184
(dp1185
g5
I23
sg6
S'lay'
p1186
sg8
S'O'
sg9
S'VB'
p1187
sg11
S'lay'
p1188
sg13
Nsba(ibuftoken
BufToken
p1189
(dp1190
g5
I24
sg6
S'aside'
p1191
sg8
S'O'
sg9
S'RB'
p1192
sg11
S'aside'
p1193
sg13
Nsba(ibuftoken
BufToken
p1194
(dp1195
g5
I25
sg6
S'my'
p1196
sg8
S'O'
sg9
S'PRP$'
p1197
sg11
S'my'
p1198
sg13
Nsba(ibuftoken
BufToken
p1199
(dp1200
g5
I26
sg6
S'drawings'
p1201
sg8
S'O'
sg9
S'NNS'
p1202
sg11
S'drawing'
p1203
sg13
Nsba(ibuftoken
BufToken
p1204
(dp1205
g5
I27
sg6
S'of'
p1206
sg8
S'O'
sg9
S'IN'
p1207
sg11
S'of'
p1208
sg13
Nsba(ibuftoken
BufToken
p1209
(dp1210
g5
I28
sg6
S'boa'
p1211
sg8
S'O'
sg9
S'NN'
p1212
sg11
S'boa'
p1213
sg13
Nsba(ibuftoken
BufToken
p1214
(dp1215
g5
I29
sg6
S'constrictors'
p1216
sg8
S'O'
sg9
S'NNS'
p1217
sg11
S'constrictor'
p1218
sg13
Nsba(ibuftoken
BufToken
p1219
(dp1220
g5
I30
sg6
S','
sg8
S'O'
sg9
S','
sg11
S','
sg13
Nsba(ibuftoken
BufToken
p1221
(dp1222
g5
I31
sg6
S'whether'
p1223
sg8
S'O'
sg9
S'IN'
p1224
sg11
S'whether'
p1225
sg13
Nsba(ibuftoken
BufToken
p1226
(dp1227
g5
I32
sg6
S'from'
p1228
sg8
S'O'
sg9
S'IN'
p1229
sg11
S'from'
p1230
sg13
Nsba(ibuftoken
BufToken
p1231
(dp1232
g5
I33
sg6
S'the'
p1233
sg8
S'O'
sg9
S'DT'
p1234
sg11
S'the'
p1235
sg13
Nsba(ibuftoken
BufToken
p1236
(dp1237
g5
I34
sg6
S'inside'
p1238
sg8
S'O'
sg9
S'NN'
p1239
sg11
S'inside'
p1240
sg13
Nsba(ibuftoken
BufToken
p1241
(dp1242
g5
I35
sg6
S'or'
p1243
sg8
S'O'
sg9
S'CC'
p1244
sg11
S'or'
p1245
sg13
Nsba(ibuftoken
BufToken
p1246
(dp1247
g5
I36
sg6
S'the'
p1248
sg8
S'O'
sg9
S'DT'
p1249
sg11
S'the'
p1250
sg13
Nsba(ibuftoken
BufToken
p1251
(dp1252
g5
I37
sg6
S'outside'
p1253
sg8
S'O'
sg9
S'JJ'
p1254
sg11
S'outside'
p1255
sg13
Nsba(ibuftoken
BufToken
p1256
(dp1257
g5
I38
sg6
S','
sg8
S'O'
sg9
S','
sg11
S','
sg13
Nsba(ibuftoken
BufToken
p1258
(dp1259
g5
I39
sg6
S'and'
p1260
sg8
S'O'
sg9
S'CC'
p1261
sg11
S'and'
p1262
sg13
Nsba(ibuftoken
BufToken
p1263
(dp1264
g5
I40
sg6
S'devote'
p1265
sg8
S'O'
sg9
S'VBP'
p1266
sg11
S'devote'
p1267
sg13
Nsba(ibuftoken
BufToken
p1268
(dp1269
g5
I41
sg6
S'myself'
p1270
sg8
S'O'
sg9
S'PRP'
p1271
sg11
S'myself'
p1272
sg13
Nsba(ibuftoken
BufToken
p1273
(dp1274
g5
I42
sg6
S'instead'
p1275
sg8
S'O'
sg9
S'RB'
p1276
sg11
S'instead'
p1277
sg13
Nsba(ibuftoken
BufToken
p1278
(dp1279
g5
I43
sg6
S'to'
p1280
sg8
S'O'
sg9
S'TO'
p1281
sg11
S'to'
p1282
sg13
Nsba(ibuftoken
BufToken
p1283
(dp1284
g5
I44
sg6
S'geography'
p1285
sg8
S'O'
sg9
S'NN'
p1286
sg11
S'geography'
p1287
sg13
Nsba(ibuftoken
BufToken
p1288
(dp1289
g5
I45
sg6
S','
sg8
S'O'
sg9
S','
sg11
S','
sg13
Nsba(ibuftoken
BufToken
p1290
(dp1291
g5
I46
sg6
S'history'
p1292
sg8
S'O'
sg9
S'NN'
p1293
sg11
S'history'
p1294
sg13
Nsba(ibuftoken
BufToken
p1295
(dp1296
g5
I47
sg6
S','
sg8
S'O'
sg9
S','
sg11
S','
sg13
Nsba(ibuftoken
BufToken
p1297
(dp1298
g5
I48
sg6
S'arithmetic'
p1299
sg8
S'O'
sg9
S'NN'
p1300
sg11
S'arithmetic'
p1301
sg13
Nsba(ibuftoken
BufToken
p1302
(dp1303
g5
I49
sg6
S'and'
p1304
sg8
S'O'
sg9
S'CC'
p1305
sg11
S'and'
p1306
sg13
Nsba(ibuftoken
BufToken
p1307
(dp1308
g5
I50
sg6
S'grammar'
p1309
sg8
S'O'
sg9
S'NN'
p1310
sg11
S'grammar'
p1311
sg13
Nsba(ibuftoken
BufToken
p1312
(dp1313
g5
I51
sg6
S'.'
sg8
S'O'
sg9
S'.'
sg11
S'.'
sg13
Nsbaa(lp1314
(ibuftoken
BufToken
p1315
(dp1316
g5
I0
sg6
S'That'
p1317
sg8
S'O'
sg9
S'DT'
p1318
sg11
S'that'
p1319
sg13
Nsba(ibuftoken
BufToken
p1320
(dp1321
g5
I1
sg6
S'is'
p1322
sg8
S'O'
sg9
S'VBZ'
p1323
sg11
S'be'
p1324
sg13
Nsba(ibuftoken
BufToken
p1325
(dp1326
g5
I2
sg6
S'why'
p1327
sg8
S'O'
sg9
S'WRB'
p1328
sg11
S'why'
p1329
sg13
Nsba(ibuftoken
BufToken
p1330
(dp1331
g5
I3
sg6
S','
sg8
S'O'
sg9
S','
sg11
S','
sg13
Nsba(ibuftoken
BufToken
p1332
(dp1333
g5
I4
sg6
S'at'
p1334
sg8
S'O'
sg9
S'IN'
p1335
sg11
S'at'
p1336
sg13
Nsba(ibuftoken
BufToken
p1337
(dp1338
g5
I5
sg6
S'the'
p1339
sg8
S'O'
sg9
S'DT'
p1340
sg11
S'the'
p1341
sg13
Nsba(ibuftoken
BufToken
p1342
(dp1343
g5
I6
sg6
S'age'
p1344
sg8
S'O'
sg9
S'NN'
p1345
sg11
S'age'
p1346
sg13
Nsba(ibuftoken
BufToken
p1347
(dp1348
g5
I7
sg6
S'of'
p1349
sg8
S'O'
sg9
S'IN'
p1350
sg11
S'of'
p1351
sg13
Nsba(ibuftoken
BufToken
p1352
(dp1353
g5
I8
sg6
S'6'
sg8
S'NUMBER'
p1354
sg9
S'CD'
p1355
sg11
S'six'
p1356
sg13
Nsba(ibuftoken
BufToken
p1357
(dp1358
g5
I9
sg6
S','
sg8
S'O'
sg9
S','
sg11
S','
sg13
Nsba(ibuftoken
BufToken
p1359
(dp1360
g5
I10
sg6
S'I'
sg8
S'O'
sg9
S'PRP'
p1361
sg11
S'I'
sg13
Nsba(ibuftoken
BufToken
p1362
(dp1363
g5
I11
sg6
S'gave'
p1364
sg8
S'O'
sg9
S'VBD'
p1365
sg11
S'give'
p1366
sg13
Nsba(ibuftoken
BufToken
p1367
(dp1368
g5
I12
sg6
S'up'
p1369
sg8
S'O'
sg9
S'RP'
p1370
sg11
S'up'
p1371
sg13
Nsba(ibuftoken
BufToken
p1372
(dp1373
g5
I13
sg6
S'what'
p1374
sg8
S'O'
sg9
S'WP'
p1375
sg11
S'what'
p1376
sg13
Nsba(ibuftoken
BufToken
p1377
(dp1378
g5
I14
sg6
S'might'
p1379
sg8
S'O'
sg9
S'MD'
p1380
sg11
S'might'
p1381
sg13
Nsba(ibuftoken
BufToken
p1382
(dp1383
g5
I15
sg6
S'have'
p1384
sg8
S'O'
sg9
S'VB'
p1385
sg11
S'have'
p1386
sg13
Nsba(ibuftoken
BufToken
p1387
(dp1388
g5
I16
sg6
S'been'
p1389
sg8
S'O'
sg9
S'VBN'
p1390
sg11
S'be'
p1391
sg13
Nsba(ibuftoken
BufToken
p1392
(dp1393
g5
I17
sg6
S'a'
sg8
S'O'
sg9
S'DT'
p1394
sg11
S'a'
sg13
Nsba(ibuftoken
BufToken
p1395
(dp1396
g5
I18
sg6
S'magnificent'
p1397
sg8
S'O'
sg9
S'JJ'
p1398
sg11
S'magnificent'
p1399
sg13
Nsba(ibuftoken
BufToken
p1400
(dp1401
g5
I19
sg6
S'career'
p1402
sg8
S'O'
sg9
S'NN'
p1403
sg11
S'career'
p1404
sg13
Nsba(ibuftoken
BufToken
p1405
(dp1406
g5
I20
sg6
S'as'
p1407
sg8
S'O'
sg9
S'IN'
p1408
sg11
S'as'
p1409
sg13
Nsba(ibuftoken
BufToken
p1410
(dp1411
g5
I21
sg6
S'a'
sg8
S'O'
sg9
S'DT'
p1412
sg11
S'a'
sg13
Nsba(ibuftoken
BufToken
p1413
(dp1414
g5
I22
sg6
S'painter'
p1415
sg8
S'O'
sg9
S'NN'
p1416
sg11
S'painter'
p1417
sg13
Nsba(ibuftoken
BufToken
p1418
(dp1419
g5
I23
sg6
S'.'
sg8
S'O'
sg9
S'.'
sg11
S'.'
sg13
Nsbaa(lp1420
(ibuftoken
BufToken
p1421
(dp1422
g5
I0
sg6
S'I'
sg8
S'O'
sg9
S'PRP'
p1423
sg11
S'I'
sg13
Nsba(ibuftoken
BufToken
p1424
(dp1425
g5
I1
sg6
S'had'
p1426
sg8
S'O'
sg9
S'VBD'
p1427
sg11
S'have'
p1428
sg13
Nsba(ibuftoken
BufToken
p1429
(dp1430
g5
I2
sg6
S'been'
p1431
sg8
S'O'
sg9
S'VBN'
p1432
sg11
S'be'
p1433
sg13
Nsba(ibuftoken
BufToken
p1434
(dp1435
g5
I3
sg6
S'disheartened'
p1436
sg8
S'O'
sg9
S'VBN'
p1437
sg11
S'dishearten'
p1438
sg13
Nsba(ibuftoken
BufToken
p1439
(dp1440
g5
I4
sg6
S'by'
p1441
sg8
S'O'
sg9
S'IN'
p1442
sg11
S'by'
p1443
sg13
Nsba(ibuftoken
BufToken
p1444
(dp1445
g5
I5
sg6
S'the'
p1446
sg8
S'O'
sg9
S'DT'
p1447
sg11
S'the'
p1448
sg13
Nsba(ibuftoken
BufToken
p1449
(dp1450
g5
I6
sg6
S'failure'
p1451
sg8
S'O'
sg9
S'NN'
p1452
sg11
S'failure'
p1453
sg13
Nsba(ibuftoken
BufToken
p1454
(dp1455
g5
I7
sg6
S'of'
p1456
sg8
S'O'
sg9
S'IN'
p1457
sg11
S'of'
p1458
sg13
Nsba(ibuftoken
BufToken
p1459
(dp1460
g5
I8
sg6
S'my'
p1461
sg8
S'O'
sg9
S'PRP$'
p1462
sg11
S'my'
p1463
sg13
Nsba(ibuftoken
BufToken
p1464
(dp1465
g5
I9
sg6
S'Drawing'
p1466
sg8
S'O'
sg9
S'NNP'
p1467
sg11
S'Drawing'
p1468
sg13
Nsba(ibuftoken
BufToken
p1469
(dp1470
g5
I10
sg6
S'Number'
p1471
sg8
S'O'
sg9
S'NNP'
p1472
sg11
S'Number'
p1473
sg13
Nsba(ibuftoken
BufToken
p1474
(dp1475
g5
I11
sg6
S'1'
sg8
S'NUMBER'
p1476
sg9
S'CD'
p1477
sg11
S'One'
p1478
sg13
Nsba(ibuftoken
BufToken
p1479
(dp1480
g5
I12
sg6
S'and'
p1481
sg8
S'O'
sg9
S'CC'
p1482
sg11
S'and'
p1483
sg13
Nsba(ibuftoken
BufToken
p1484
(dp1485
g5
I13
sg6
S'my'
p1486
sg8
S'O'
sg9
S'PRP$'
p1487
sg11
S'my'
p1488
sg13
Nsba(ibuftoken
BufToken
p1489
(dp1490
g5
I14
sg6
S'Drawing'
p1491
sg8
S'O'
sg9
S'NNP'
p1492
sg11
S'Drawing'
p1493
sg13
Nsba(ibuftoken
BufToken
p1494
(dp1495
g5
I15
sg6
S'Number'
p1496
sg8
S'O'
sg9
S'NNP'
p1497
sg11
S'Number'
p1498
sg13
Nsba(ibuftoken
BufToken
p1499
(dp1500
g5
I16
sg6
S'2'
sg8
S'NUMBER'
p1501
sg9
S'CD'
p1502
sg11
S'Two'
p1503
sg13
Nsba(ibuftoken
BufToken
p1504
(dp1505
g5
I17
sg6
S'.'
sg8
S'O'
sg9
S'.'
sg11
S'.'
sg13
Nsbaa(lp1506
(ibuftoken
BufToken
p1507
(dp1508
g5
I0
sg6
S'Grown'
p1509
sg8
S'O'
sg9
S'VBN'
p1510
sg11
S'grow'
p1511
sg13
Nsba(ibuftoken
BufToken
p1512
(dp1513
g5
I1
sg6
S'-'
sg8
S'O'
sg9
S':'
sg11
S'-'
sg13
Nsba(ibuftoken
BufToken
p1514
(dp1515
g5
I2
sg6
S'ups'
p1516
sg8
S'O'
sg9
S'NNS'
p1517
sg11
S'up'
p1518
sg13
Nsba(ibuftoken
BufToken
p1519
(dp1520
g5
I3
sg6
S'never'
p1521
sg8
S'O'
sg9
S'RB'
p1522
sg11
S'never'
p1523
sg13
Nsba(ibuftoken
BufToken
p1524
(dp1525
g5
I4
sg6
S'understand'
p1526
sg8
S'O'
sg9
S'VBP'
p1527
sg11
S'understand'
p1528
sg13
Nsba(ibuftoken
BufToken
p1529
(dp1530
g5
I5
sg6
S'anything'
p1531
sg8
S'O'
sg9
S'NN'
p1532
sg11
S'anything'
p1533
sg13
Nsba(ibuftoken
BufToken
p1534
(dp1535
g5
I6
sg6
S'by'
p1536
sg8
S'O'
sg9
S'IN'
p1537
sg11
S'by'
p1538
sg13
Nsba(ibuftoken
BufToken
p1539
(dp1540
g5
I7
sg6
S'themselves'
p1541
sg8
S'O'
sg9
S'PRP'
p1542
sg11
S'themselves'
p1543
sg13
Nsba(ibuftoken
BufToken
p1544
(dp1545
g5
I8
sg6
S','
sg8
S'O'
sg9
S','
sg11
S','
sg13
Nsba(ibuftoken
BufToken
p1546
(dp1547
g5
I9
sg6
S'and'
p1548
sg8
S'O'
sg9
S'CC'
p1549
sg11
S'and'
p1550
sg13
Nsba(ibuftoken
BufToken
p1551
(dp1552
g5
I10
sg6
S'it'
p1553
sg8
S'O'
sg9
S'PRP'
p1554
sg11
S'it'
p1555
sg13
Nsba(ibuftoken
BufToken
p1556
(dp1557
g5
I11
sg6
S'is'
p1558
sg8
S'O'
sg9
S'VBZ'
p1559
sg11
S'be'
p1560
sg13
Nsba(ibuftoken
BufToken
p1561
(dp1562
g5
I12
sg6
S'tiresome'
p1563
sg8
S'O'
sg9
S'JJ'
p1564
sg11
S'tiresome'
p1565
sg13
Nsba(ibuftoken
BufToken
p1566
(dp1567
g5
I13
sg6
S'for'
p1568
sg8
S'O'
sg9
S'IN'
p1569
sg11
S'for'
p1570
sg13
Nsba(ibuftoken
BufToken
p1571
(dp1572
g5
I14
sg6
S'children'
p1573
sg8
S'O'
sg9
S'NNS'
p1574
sg11
S'child'
p1575
sg13
Nsba(ibuftoken
BufToken
p1576
(dp1577
g5
I15
sg6
S'to'
p1578
sg8
S'O'
sg9
S'TO'
p1579
sg11
S'to'
p1580
sg13
Nsba(ibuftoken
BufToken
p1581
(dp1582
g5
I16
sg6
S'be'
p1583
sg8
S'O'
sg9
S'VB'
p1584
sg11
S'be'
p1585
sg13
Nsba(ibuftoken
BufToken
p1586
(dp1587
g5
I17
sg6
S'always'
p1588
sg8
S'O'
sg9
S'RB'
p1589
sg11
S'always'
p1590
sg13
Nsba(ibuftoken
BufToken
p1591
(dp1592
g5
I18
sg6
S'and'
p1593
sg8
S'O'
sg9
S'CC'
p1594
sg11
S'and'
p1595
sg13
Nsba(ibuftoken
BufToken
p1596
(dp1597
g5
I19
sg6
S'forever'
p1598
sg8
S'O'
sg9
S'RB'
p1599
sg11
S'forever'
p1600
sg13
Nsba(ibuftoken
BufToken
p1601
(dp1602
g5
I20
sg6
S'explaining'
p1603
sg8
S'O'
sg9
S'VBG'
p1604
sg11
S'explain'
p1605
sg13
Nsba(ibuftoken
BufToken
p1606
(dp1607
g5
I21
sg6
S'things'
p1608
sg8
S'O'
sg9
S'NNS'
p1609
sg11
S'thing'
p1610
sg13
Nsba(ibuftoken
BufToken
p1611
(dp1612
g5
I22
sg6
S'to'
p1613
sg8
S'O'
sg9
S'TO'
p1614
sg11
S'to'
p1615
sg13
Nsba(ibuftoken
BufToken
p1616
(dp1617
g5
I23
sg6
S'them'
p1618
sg8
S'O'
sg9
S'PRP'
p1619
sg11
S'they'
p1620
sg13
Nsba(ibuftoken
BufToken
p1621
(dp1622
g5
I24
sg6
S'.'
sg8
S'O'
sg9
S'.'
sg11
S'.'
sg13
Nsbaa(lp1623
(ibuftoken
BufToken
p1624
(dp1625
g5
I0
sg6
S'So'
p1626
sg8
S'O'
sg9
S'RB'
p1627
sg11
S'so'
p1628
sg13
Nsba(ibuftoken
BufToken
p1629
(dp1630
g5
I1
sg6
S'then'
p1631
sg8
S'O'
sg9
S'RB'
p1632
sg11
S'then'
p1633
sg13
Nsba(ibuftoken
BufToken
p1634
(dp1635
g5
I2
sg6
S'I'
sg8
S'O'
sg9
S'PRP'
p1636
sg11
S'I'
sg13
Nsba(ibuftoken
BufToken
p1637
(dp1638
g5
I3
sg6
S'chose'
p1639
sg8
S'O'
sg9
S'VBD'
p1640
sg11
S'choose'
p1641
sg13
Nsba(ibuftoken
BufToken
p1642
(dp1643
g5
I4
sg6
S'another'
p1644
sg8
S'O'
sg9
S'DT'
p1645
sg11
S'another'
p1646
sg13
Nsba(ibuftoken
BufToken
p1647
(dp1648
g5
I5
sg6
S'profession'
p1649
sg8
S'O'
sg9
S'NN'
p1650
sg11
S'profession'
p1651
sg13
Nsba(ibuftoken
BufToken
p1652
(dp1653
g5
I6
sg6
S','
sg8
S'O'
sg9
S','
sg11
S','
sg13
Nsba(ibuftoken
BufToken
p1654
(dp1655
g5
I7
sg6
S'and'
p1656
sg8
S'O'
sg9
S'CC'
p1657
sg11
S'and'
p1658
sg13
Nsba(ibuftoken
BufToken
p1659
(dp1660
g5
I8
sg6
S'learned'
p1661
sg8
S'O'
sg9
S'VBD'
p1662
sg11
S'learn'
p1663
sg13
Nsba(ibuftoken
BufToken
p1664
(dp1665
g5
I9
sg6
S'to'
p1666
sg8
S'O'
sg9
S'TO'
p1667
sg11
S'to'
p1668
sg13
Nsba(ibuftoken
BufToken
p1669
(dp1670
g5
I10
sg6
S'pilot'
p1671
sg8
S'O'
sg9
S'NN'
p1672
sg11
S'pilot'
p1673
sg13
Nsba(ibuftoken
BufToken
p1674
(dp1675
g5
I11
sg6
S'airplanes'
p1676
sg8
S'O'
sg9
S'NNS'
p1677
sg11
S'airplane'
p1678
sg13
Nsba(ibuftoken
BufToken
p1679
(dp1680
g5
I12
sg6
S'.'
sg8
S'O'
sg9
S'.'
sg11
S'.'
sg13
Nsbaa(lp1681
(ibuftoken
BufToken
p1682
(dp1683
g5
I0
sg6
S'I'
sg8
S'O'
sg9
S'PRP'
p1684
sg11
S'I'
sg13
Nsba(ibuftoken
BufToken
p1685
(dp1686
g5
I1
sg6
S'have'
p1687
sg8
S'O'
sg9
S'VBP'
p1688
sg11
S'have'
p1689
sg13
Nsba(ibuftoken
BufToken
p1690
(dp1691
g5
I2
sg6
S'flown'
p1692
sg8
S'O'
sg9
S'VBN'
p1693
sg11
S'fly'
p1694
sg13
Nsba(ibuftoken
BufToken
p1695
(dp1696
g5
I3
sg6
S'a'
sg8
S'O'
sg9
S'DT'
p1697
sg11
S'a'
sg13
Nsba(ibuftoken
BufToken
p1698
(dp1699
g5
I4
sg6
S'little'
p1700
sg8
S'O'
sg9
S'JJ'
p1701
sg11
S'little'
p1702
sg13
Nsba(ibuftoken
BufToken
p1703
(dp1704
g5
I5
sg6
S'over'
p1705
sg8
S'O'
sg9
S'IN'
p1706
sg11
S'over'
p1707
sg13
Nsba(ibuftoken
BufToken
p1708
(dp1709
g5
I6
sg6
S'all'
p1710
sg8
S'O'
sg9
S'DT'
p1711
sg11
S'all'
p1712
sg13
Nsba(ibuftoken
BufToken
p1713
(dp1714
g5
I7
sg6
S'parts'
p1715
sg8
S'O'
sg9
S'NNS'
p1716
sg11
S'part'
p1717
sg13
Nsba(ibuftoken
BufToken
p1718
(dp1719
g5
I8
sg6
S'of'
p1720
sg8
S'O'
sg9
S'IN'
p1721
sg11
S'of'
p1722
sg13
Nsba(ibuftoken
BufToken
p1723
(dp1724
g5
I9
sg6
S'the'
p1725
sg8
S'O'
sg9
S'DT'
p1726
sg11
S'the'
p1727
sg13
Nsba(ibuftoken
BufToken
p1728
(dp1729
g5
I10
sg6
S'world'
p1730
sg8
S'O'
sg9
S'NN'
p1731
sg11
S'world'
p1732
sg13
Nsba(ibuftoken
BufToken
p1733
(dp1734
g5
I11
sg6
S';'
sg8
S'O'
sg9
S':'
sg11
S';'
sg13
Nsba(ibuftoken
BufToken
p1735
(dp1736
g5
I12
sg6
S'and'
p1737
sg8
S'O'
sg9
S'CC'
p1738
sg11
S'and'
p1739
sg13
Nsba(ibuftoken
BufToken
p1740
(dp1741
g5
I13
sg6
S'it'
p1742
sg8
S'O'
sg9
S'PRP'
p1743
sg11
S'it'
p1744
sg13
Nsba(ibuftoken
BufToken
p1745
(dp1746
g5
I14
sg6
S'is'
p1747
sg8
S'O'
sg9
S'VBZ'
p1748
sg11
S'be'
p1749
sg13
Nsba(ibuftoken
BufToken
p1750
(dp1751
g5
I15
sg6
S'true'
p1752
sg8
S'O'
sg9
S'JJ'
p1753
sg11
S'true'
p1754
sg13
Nsba(ibuftoken
BufToken
p1755
(dp1756
g5
I16
sg6
S'that'
p1757
sg8
S'O'
sg9
S'IN'
p1758
sg11
S'that'
p1759
sg13
Nsba(ibuftoken
BufToken
p1760
(dp1761
g5
I17
sg6
S'geography'
p1762
sg8
S'O'
sg9
S'NN'
p1763
sg11
S'geography'
p1764
sg13
Nsba(ibuftoken
BufToken
p1765
(dp1766
g5
I18
sg6
S'has'
p1767
sg8
S'O'
sg9
S'VBZ'
p1768
sg11
S'have'
p1769
sg13
Nsba(ibuftoken
BufToken
p1770
(dp1771
g5
I19
sg6
S'been'
p1772
sg8
S'O'
sg9
S'VBN'
p1773
sg11
S'be'
p1774
sg13
Nsba(ibuftoken
BufToken
p1775
(dp1776
g5
I20
sg6
S'very'
p1777
sg8
S'O'
sg9
S'RB'
p1778
sg11
S'very'
p1779
sg13
Nsba(ibuftoken
BufToken
p1780
(dp1781
g5
I21
sg6
S'useful'
p1782
sg8
S'O'
sg9
S'JJ'
p1783
sg11
S'useful'
p1784
sg13
Nsba(ibuftoken
BufToken
p1785
(dp1786
g5
I22
sg6
S'to'
p1787
sg8
S'O'
sg9
S'TO'
p1788
sg11
S'to'
p1789
sg13
Nsba(ibuftoken
BufToken
p1790
(dp1791
g5
I23
sg6
S'me'
p1792
sg8
S'O'
sg9
S'PRP'
p1793
sg11
S'I'
sg13
Nsba(ibuftoken
BufToken
p1794
(dp1795
g5
I24
sg6
S'.'
sg8
S'O'
sg9
S'.'
sg11
S'.'
sg13
Nsbaa(lp1796
(ibuftoken
BufToken
p1797
(dp1798
g5
I0
sg6
S'At'
p1799
sg8
S'O'
sg9
S'IN'
p1800
sg11
S'at'
p1801
sg13
Nsba(ibuftoken
BufToken
p1802
(dp1803
g5
I1
sg6
S'a'
sg8
S'O'
sg9
S'DT'
p1804
sg11
S'a'
sg13
Nsba(ibuftoken
BufToken
p1805
(dp1806
g5
I2
sg6
S'glance'
p1807
sg8
S'O'
sg9
S'NN'
p1808
sg11
S'glance'
p1809
sg13
Nsba(ibuftoken
BufToken
p1810
(dp1811
g5
I3
sg6
S'I'
sg8
S'O'
sg9
S'PRP'
p1812
sg11
S'I'
sg13
Nsba(ibuftoken
BufToken
p1813
(dp1814
g5
I4
sg6
S'can'
p1815
sg8
S'O'
sg9
S'MD'
p1816
sg11
S'can'
p1817
sg13
Nsba(ibuftoken
BufToken
p1818
(dp1819
g5
I5
sg6
S'distinguish'
p1820
sg8
S'O'
sg9
S'VB'
p1821
sg11
S'distinguish'
p1822
sg13
Nsba(ibuftoken
BufToken
p1823
(dp1824
g5
I6
sg6
S'China'
p1825
sg8
S'LOCATION'
p1826
sg9
S'NNP'
p1827
sg11
S'China'
p1828
sg13
Nsba(ibuftoken
BufToken
p1829
(dp1830
g5
I7
sg6
S'from'
p1831
sg8
S'O'
sg9
S'IN'
p1832
sg11
S'from'
p1833
sg13
Nsba(ibuftoken
BufToken
p1834
(dp1835
g5
I8
sg6
S'Arizona'
p1836
sg8
S'LOCATION'
p1837
sg9
S'NNP'
p1838
sg11
S'Arizona'
p1839
sg13
Nsba(ibuftoken
BufToken
p1840
(dp1841
g5
I9
sg6
S'.'
sg8
S'O'
sg9
S'.'
sg11
S'.'
sg13
Nsbaa(lp1842
(ibuftoken
BufToken
p1843
(dp1844
g5
I0
sg6
S'If'
p1845
sg8
S'O'
sg9
S'IN'
p1846
sg11
S'if'
p1847
sg13
Nsba(ibuftoken
BufToken
p1848
(dp1849
g5
I1
sg6
S'1'
sg8
S'NUMBER'
p1850
sg9
S'CD'
p1851
sg11
S'one'
p1852
sg13
Nsba(ibuftoken
BufToken
p1853
(dp1854
g5
I2
sg6
S'gets'
p1855
sg8
S'O'
sg9
S'VBZ'
p1856
sg11
S'get'
p1857
sg13
Nsba(ibuftoken
BufToken
p1858
(dp1859
g5
I3
sg6
S'lost'
p1860
sg8
S'O'
sg9
S'VBN'
p1861
sg11
S'lose'
p1862
sg13
Nsba(ibuftoken
BufToken
p1863
(dp1864
g5
I4
sg6
S'in'
p1865
sg8
S'O'
sg9
S'IN'
p1866
sg11
S'in'
p1867
sg13
Nsba(ibuftoken
BufToken
p1868
(dp1869
g5
I5
sg6
S'the'
p1870
sg8
S'O'
sg9
S'DT'
p1871
sg11
S'the'
p1872
sg13
Nsba(ibuftoken
BufToken
p1873
(dp1874
g5
I6
sg6
S'night'
p1875
sg8
S'TIME'
p1876
sg9
S'NN'
p1877
sg11
S'night'
p1878
sg13
Nsba(ibuftoken
BufToken
p1879
(dp1880
g5
I7
sg6
S','
sg8
S'O'
sg9
S','
sg11
S','
sg13
Nsba(ibuftoken
BufToken
p1881
(dp1882
g5
I8
sg6
S'such'
p1883
sg8
S'O'
sg9
S'JJ'
p1884
sg11
S'such'
p1885
sg13
Nsba(ibuftoken
BufToken
p1886
(dp1887
g5
I9
sg6
S'knowledge'
p1888
sg8
S'O'
sg9
S'NN'
p1889
sg11
S'knowledge'
p1890
sg13
Nsba(ibuftoken
BufToken
p1891
(dp1892
g5
I10
sg6
S'is'
p1893
sg8
S'O'
sg9
S'VBZ'
p1894
sg11
S'be'
p1895
sg13
Nsba(ibuftoken
BufToken
p1896
(dp1897
g5
I11
sg6
S'valuable'
p1898
sg8
S'O'
sg9
S'JJ'
p1899
sg11
S'valuable'
p1900
sg13
Nsba(ibuftoken
BufToken
p1901
(dp1902
g5
I12
sg6
S'.'
sg8
S'O'
sg9
S'.'
sg11
S'.'
sg13
Nsbaa(lp1903
(ibuftoken
BufToken
p1904
(dp1905
g5
I0
sg6
S'In'
p1906
sg8
S'O'
sg9
S'IN'
p1907
sg11
S'in'
p1908
sg13
Nsba(ibuftoken
BufToken
p1909
(dp1910
g5
I1
sg6
S'the'
p1911
sg8
S'O'
sg9
S'DT'
p1912
sg11
S'the'
p1913
sg13
Nsba(ibuftoken
BufToken
p1914
(dp1915
g5
I2
sg6
S'course'
p1916
sg8
S'O'
sg9
S'NN'
p1917
sg11
S'course'
p1918
sg13
Nsba(ibuftoken
BufToken
p1919
(dp1920
g5
I3
sg6
S'of'
p1921
sg8
S'O'
sg9
S'IN'
p1922
sg11
S'of'
p1923
sg13
Nsba(ibuftoken
BufToken
p1924
(dp1925
g5
I4
sg6
S'this'
p1926
sg8
S'O'
sg9
S'DT'
p1927
sg11
S'this'
p1928
sg13
Nsba(ibuftoken
BufToken
p1929
(dp1930
g5
I5
sg6
S'life'
p1931
sg8
S'O'
sg9
S'NN'
p1932
sg11
S'life'
p1933
sg13
Nsba(ibuftoken
BufToken
p1934
(dp1935
g5
I6
sg6
S'I'
sg8
S'O'
sg9
S'PRP'
p1936
sg11
S'I'
sg13
Nsba(ibuftoken
BufToken
p1937
(dp1938
g5
I7
sg6
S'have'
p1939
sg8
S'O'
sg9
S'VBP'
p1940
sg11
S'have'
p1941
sg13
Nsba(ibuftoken
BufToken
p1942
(dp1943
g5
I8
sg6
S'had'
p1944
sg8
S'O'
sg9
S'VBD'
p1945
sg11
S'have'
p1946
sg13
Nsba(ibuftoken
BufToken
p1947
(dp1948
g5
I9
sg6
S'a'
sg8
S'O'
sg9
S'DT'
p1949
sg11
S'a'
sg13
Nsba(ibuftoken
BufToken
p1950
(dp1951
g5
I10
sg6
S'great'
p1952
sg8
S'O'
sg9
S'JJ'
p1953
sg11
S'great'
p1954
sg13
Nsba(ibuftoken
BufToken
p1955
(dp1956
g5
I11
sg6
S'many'
p1957
sg8
S'O'
sg9
S'JJ'
p1958
sg11
S'many'
p1959
sg13
Nsba(ibuftoken
BufToken
p1960
(dp1961
g5
I12
sg6
S'encounters'
p1962
sg8
S'O'
sg9
S'NNS'
p1963
sg11
S'encounter'
p1964
sg13
Nsba(ibuftoken
BufToken
p1965
(dp1966
g5
I13
sg6
S'with'
p1967
sg8
S'O'
sg9
S'IN'
p1968
sg11
S'with'
p1969
sg13
Nsba(ibuftoken
BufToken
p1970
(dp1971
g5
I14
sg6
S'a'
sg8
S'O'
sg9
S'DT'
p1972
sg11
S'a'
sg13
Nsba(ibuftoken
BufToken
p1973
(dp1974
g5
I15
sg6
S'great'
p1975
sg8
S'O'
sg9
S'JJ'
p1976
sg11
S'great'
p1977
sg13
Nsba(ibuftoken
BufToken
p1978
(dp1979
g5
I16
sg6
S'many'
p1980
sg8
S'O'
sg9
S'JJ'
p1981
sg11
S'many'
p1982
sg13
Nsba(ibuftoken
BufToken
p1983
(dp1984
g5
I17
sg6
S'people'
p1985
sg8
S'O'
sg9
S'NNS'
p1986
sg11
S'people'
p1987
sg13
Nsba(ibuftoken
BufToken
p1988
(dp1989
g5
I18
sg6
S'who'
p1990
sg8
S'O'
sg9
S'WP'
p1991
sg11
S'who'
p1992
sg13
Nsba(ibuftoken
BufToken
p1993
(dp1994
g5
I19
sg6
S'have'
p1995
sg8
S'O'
sg9
S'VBP'
p1996
sg11
S'have'
p1997
sg13
Nsba(ibuftoken
BufToken
p1998
(dp1999
g5
I20
sg6
S'been'
p2000
sg8
S'O'
sg9
S'VBN'
p2001
sg11
S'be'
p2002
sg13
Nsba(ibuftoken
BufToken
p2003
(dp2004
g5
I21
sg6
S'concerned'
p2005
sg8
S'O'
sg9
S'VBN'
p2006
sg11
S'concern'
p2007
sg13
Nsba(ibuftoken
BufToken
p2008
(dp2009
g5
I22
sg6
S'with'
p2010
sg8
S'O'
sg9
S'IN'
p2011
sg11
S'with'
p2012
sg13
Nsba(ibuftoken
BufToken
p2013
(dp2014
g5
I23
sg6
S'matters'
p2015
sg8
S'O'
sg9
S'NNS'
p2016
sg11
S'matter'
p2017
sg13
Nsba(ibuftoken
BufToken
p2018
(dp2019
g5
I24
sg6
S'of'
p2020
sg8
S'O'
sg9
S'IN'
p2021
sg11
S'of'
p2022
sg13
Nsba(ibuftoken
BufToken
p2023
(dp2024
g5
I25
sg6
S'consequence'
p2025
sg8
S'O'
sg9
S'NN'
p2026
sg11
S'consequence'
p2027
sg13
Nsba(ibuftoken
BufToken
p2028
(dp2029
g5
I26
sg6
S'.'
sg8
S'O'
sg9
S'.'
sg11
S'.'
sg13
Nsbaa(lp2030
(ibuftoken
BufToken
p2031
(dp2032
g5
I0
sg6
S'I'
sg8
S'O'
sg9
S'PRP'
p2033
sg11
S'I'
sg13
Nsba(ibuftoken
BufToken
p2034
(dp2035
g5
I1
sg6
S'have'
p2036
sg8
S'O'
sg9
S'VBP'
p2037
sg11
S'have'
p2038
sg13
Nsba(ibuftoken
BufToken
p2039
(dp2040
g5
I2
sg6
S'lived'
p2041
sg8
S'O'
sg9
S'VBN'
p2042
sg11
S'live'
p2043
sg13
Nsba(ibuftoken
BufToken
p2044
(dp2045
g5
I3
sg6
S'a'
sg8
S'O'
sg9
S'DT'
p2046
sg11
S'a'
sg13
Nsba(ibuftoken
BufToken
p2047
(dp2048
g5
I4
sg6
S'great'
p2049
sg8
S'O'
sg9
S'JJ'
p2050
sg11
S'great'
p2051
sg13
Nsba(ibuftoken
BufToken
p2052
(dp2053
g5
I5
sg6
S'deal'
p2054
sg8
S'O'
sg9
S'NN'
p2055
sg11
S'deal'
p2056
sg13
Nsba(ibuftoken
BufToken
p2057
(dp2058
g5
I6
sg6
S'among'
p2059
sg8
S'O'
sg9
S'IN'
p2060
sg11
S'among'
p2061
sg13
Nsba(ibuftoken
BufToken
p2062
(dp2063
g5
I7
sg6
S'grown'
p2064
sg8
S'O'
sg9
S'JJ'
p2065
sg11
S'grown'
p2066
sg13
Nsba(ibuftoken
BufToken
p2067
(dp2068
g5
I8
sg6
S'-'
sg8
S'O'
sg9
S':'
sg11
S'-'
sg13
Nsba(ibuftoken
BufToken
p2069
(dp2070
g5
I9
sg6
S'ups'
p2071
sg8
S'O'
sg9
S'NNS'
p2072
sg11
S'up'
p2073
sg13
Nsba(ibuftoken
BufToken
p2074
(dp2075
g5
I10
sg6
S'.'
sg8
S'O'
sg9
S'.'
sg11
S'.'
sg13
Nsbaa(lp2076
(ibuftoken
BufToken
p2077
(dp2078
g5
I0
sg6
S'I'
sg8
S'O'
sg9
S'PRP'
p2079
sg11
S'I'
sg13
Nsba(ibuftoken
BufToken
p2080
(dp2081
g5
I1
sg6
S'have'
p2082
sg8
S'O'
sg9
S'VBP'
p2083
sg11
S'have'
p2084
sg13
Nsba(ibuftoken
BufToken
p2085
(dp2086
g5
I2
sg6
S'seen'
p2087
sg8
S'O'
sg9
S'VBN'
p2088
sg11
S'see'
p2089
sg13
Nsba(ibuftoken
BufToken
p2090
(dp2091
g5
I3
sg6
S'them'
p2092
sg8
S'O'
sg9
S'PRP'
p2093
sg11
S'they'
p2094
sg13
Nsba(ibuftoken
BufToken
p2095
(dp2096
g5
I4
sg6
S'intimately'
p2097
sg8
S'O'
sg9
S'RB'
p2098
sg11
S'intimately'
p2099
sg13
Nsba(ibuftoken
BufToken
p2100
(dp2101
g5
I5
sg6
S','
sg8
S'O'
sg9
S','
sg11
S','
sg13
Nsba(ibuftoken
BufToken
p2102
(dp2103
g5
I6
sg6
S'close'
p2104
sg8
S'O'
sg9
S'RB'
p2105
sg11
S'close'
p2106
sg13
Nsba(ibuftoken
BufToken
p2107
(dp2108
g5
I7
sg6
S'at'
p2109
sg8
S'O'
sg9
S'IN'
p2110
sg11
S'at'
p2111
sg13
Nsba(ibuftoken
BufToken
p2112
(dp2113
g5
I8
sg6
S'hand'
p2114
sg8
S'O'
sg9
S'NN'
p2115
sg11
S'hand'
p2116
sg13
Nsba(ibuftoken
BufToken
p2117
(dp2118
g5
I9
sg6
S'.'
sg8
S'O'
sg9
S'.'
sg11
S'.'
sg13
Nsbaa(lp2119
(ibuftoken
BufToken
p2120
(dp2121
g5
I0
sg6
S'And'
p2122
sg8
S'O'
sg9
S'CC'
p2123
sg11
S'and'
p2124
sg13
Nsba(ibuftoken
BufToken
p2125
(dp2126
g5
I1
sg6
S'that'
p2127
sg8
S'O'
sg9
S'DT'
p2128
sg11
S'that'
p2129
sg13
Nsba(ibuftoken
BufToken
p2130
(dp2131
g5
I2
sg6
S'has'
p2132
sg8
S'O'
sg9
S'VBZ'
p2133
sg11
S'have'
p2134
sg13
Nsba(ibuftoken
BufToken
p2135
(dp2136
g5
I3
sg6
S"n't"
p2137
sg8
S'O'
sg9
S'RB'
p2138
sg11
S'not'
p2139
sg13
Nsba(ibuftoken
BufToken
p2140
(dp2141
g5
I4
sg6
S'much'
p2142
sg8
S'O'
sg9
S'JJ'
p2143
sg11
S'much'
p2144
sg13
Nsba(ibuftoken
BufToken
p2145
(dp2146
g5
I5
sg6
S'improved'
p2147
sg8
S'O'
sg9
S'VBN'
p2148
sg11
S'improve'
p2149
sg13
Nsba(ibuftoken
BufToken
p2150
(dp2151
g5
I6
sg6
S'my'
p2152
sg8
S'O'
sg9
S'PRP$'
p2153
sg11
S'my'
p2154
sg13
Nsba(ibuftoken
BufToken
p2155
(dp2156
g5
I7
sg6
S'opinion'
p2157
sg8
S'O'
sg9
S'NN'
p2158
sg11
S'opinion'
p2159
sg13
Nsba(ibuftoken
BufToken
p2160
(dp2161
g5
I8
sg6
S'of'
p2162
sg8
S'O'
sg9
S'IN'
p2163
sg11
S'of'
p2164
sg13
Nsba(ibuftoken
BufToken
p2165
(dp2166
g5
I9
sg6
S'them'
p2167
sg8
S'O'
sg9
S'PRP'
p2168
sg11
S'they'
p2169
sg13
Nsba(ibuftoken
BufToken
p2170
(dp2171
g5
I10
sg6
S'.'
sg8
S'O'
sg9
S'.'
sg11
S'.'
sg13
Nsbaa(lp2172
(ibuftoken
BufToken
p2173
(dp2174
g5
I0
sg6
S'Whenever'
p2175
sg8
S'O'
sg9
S'NNP'
p2176
sg11
S'Whenever'
p2177
sg13
Nsba(ibuftoken
BufToken
p2178
(dp2179
g5
I1
sg6
S'I'
sg8
S'O'
sg9
S'PRP'
p2180
sg11
S'I'
sg13
Nsba(ibuftoken
BufToken
p2181
(dp2182
g5
I2
sg6
S'met'
p2183
sg8
S'O'
sg9
S'VBD'
p2184
sg11
S'meet'
p2185
sg13
Nsba(ibuftoken
BufToken
p2186
(dp2187
g5
I3
sg6
S'1'
sg8
S'NUMBER'
p2188
sg9
S'CD'
p2189
sg11
S'one'
p2190
sg13
Nsba(ibuftoken
BufToken
p2191
(dp2192
g5
I4
sg6
S'of'
p2193
sg8
S'O'
sg9
S'IN'
p2194
sg11
S'of'
p2195
sg13
Nsba(ibuftoken
BufToken
p2196
(dp2197
g5
I5
sg6
S'them'
p2198
sg8
S'O'
sg9
S'PRP'
p2199
sg11
S'they'
p2200
sg13
Nsba(ibuftoken
BufToken
p2201
(dp2202
g5
I6
sg6
S'who'
p2203
sg8
S'O'
sg9
S'WP'
p2204
sg11
S'who'
p2205
sg13
Nsba(ibuftoken
BufToken
p2206
(dp2207
g5
I7
sg6
S'seemed'
p2208
sg8
S'O'
sg9
S'VBD'
p2209
sg11
S'seem'
p2210
sg13
Nsba(ibuftoken
BufToken
p2211
(dp2212
g5
I8
sg6
S'to'
p2213
sg8
S'O'
sg9
S'TO'
p2214
sg11
S'to'
p2215
sg13
Nsba(ibuftoken
BufToken
p2216
(dp2217
g5
I9
sg6
S'me'
p2218
sg8
S'O'
sg9
S'PRP'
p2219
sg11
S'I'
sg13
Nsba(ibuftoken
BufToken
p2220
(dp2221
g5
I10
sg6
S'at'
p2222
sg8
S'O'
sg9
S'IN'
p2223
sg11
S'at'
p2224
sg13
Nsba(ibuftoken
BufToken
p2225
(dp2226
g5
I11
sg6
S'all'
p2227
sg8
S'O'
sg9
S'DT'
p2228
sg11
S'all'
p2229
sg13
Nsba(ibuftoken
BufToken
p2230
(dp2231
g5
I12
sg6
S'clear'
p2232
sg8
S'O'
sg9
S'JJ'
p2233
sg11
S'clear'
p2234
sg13
Nsba(ibuftoken
BufToken
p2235
(dp2236
g5
I13
sg6
S'-'
sg8
S'O'
sg9
S':'
sg11
S'-'
sg13
Nsba(ibuftoken
BufToken
p2237
(dp2238
g5
I14
sg6
S'sighted'
p2239
sg8
S'O'
sg9
S'VBN'
p2240
sg11
S'sight'
p2241
sg13
Nsba(ibuftoken
BufToken
p2242
(dp2243
g5
I15
sg6
S','
sg8
S'O'
sg9
S','
sg11
S','
sg13
Nsba(ibuftoken
BufToken
p2244
(dp2245
g5
I16
sg6
S'I'
sg8
S'O'
sg9
S'PRP'
p2246
sg11
S'I'
sg13
Nsba(ibuftoken
BufToken
p2247
(dp2248
g5
I17
sg6
S'tried'
p2249
sg8
S'O'
sg9
S'VBD'
p2250
sg11
S'try'
p2251
sg13
Nsba(ibuftoken
BufToken
p2252
(dp2253
g5
I18
sg6
S'the'
p2254
sg8
S'O'
sg9
S'DT'
p2255
sg11
S'the'
p2256
sg13
Nsba(ibuftoken
BufToken
p2257
(dp2258
g5
I19
sg6
S'experiment'
p2259
sg8
S'O'
sg9
S'NN'
p2260
sg11
S'experiment'
p2261
sg13
Nsba(ibuftoken
BufToken
p2262
(dp2263
g5
I20
sg6
S'of'
p2264
sg8
S'O'
sg9
S'IN'
p2265
sg11
S'of'
p2266
sg13
Nsba(ibuftoken
BufToken
p2267
(dp2268
g5
I21
sg6
S'showing'
p2269
sg8
S'O'
sg9
S'VBG'
p2270
sg11
S'show'
p2271
sg13
Nsba(ibuftoken
BufToken
p2272
(dp2273
g5
I22
sg6
S'him'
p2274
sg8
S'O'
sg9
S'PRP'
p2275
sg11
S'he'
p2276
sg13
Nsba(ibuftoken
BufToken
p2277
(dp2278
g5
I23
sg6
S'my'
p2279
sg8
S'O'
sg9
S'PRP$'
p2280
sg11
S'my'
p2281
sg13
Nsba(ibuftoken
BufToken
p2282
(dp2283
g5
I24
sg6
S'Drawing_Number'
p2284
sg8
S'MISC'
p2285
sg9
S'NNP'
p2286
sg11
S'Number'
p2287
sg13
Nsba(ibuftoken
BufToken
p2288
(dp2289
g5
I25
sg6
S'1'
sg8
S'NUMBER'
p2290
sg9
S'CD'
p2291
sg11
S'One'
p2292
sg13
Nsba(ibuftoken
BufToken
p2293
(dp2294
g5
I26
sg6
S','
sg8
S'O'
sg9
S','
sg11
S','
sg13
Nsba(ibuftoken
BufToken
p2295
(dp2296
g5
I27
sg6
S'which'
p2297
sg8
S'O'
sg9
S'WDT'
p2298
sg11
S'which'
p2299
sg13
Nsba(ibuftoken
BufToken
p2300
(dp2301
g5
I28
sg6
S'I'
sg8
S'O'
sg9
S'PRP'
p2302
sg11
S'I'
sg13
Nsba(ibuftoken
BufToken
p2303
(dp2304
g5
I29
sg6
S'have'
p2305
sg8
S'O'
sg9
S'VBP'
p2306
sg11
S'have'
p2307
sg13
Nsba(ibuftoken
BufToken
p2308
(dp2309
g5
I30
sg6
S'always'
p2310
sg8
S'O'
sg9
S'RB'
p2311
sg11
S'always'
p2312
sg13
Nsba(ibuftoken
BufToken
p2313
(dp2314
g5
I31
sg6
S'kept'
p2315
sg8
S'O'
sg9
S'VBN'
p2316
sg11
S'keep'
p2317
sg13
Nsba(ibuftoken
BufToken
p2318
(dp2319
g5
I32
sg6
S'.'
sg8
S'O'
sg9
S'.'
sg11
S'.'
sg13
Nsbaa(lp2320
(ibuftoken
BufToken
p2321
(dp2322
g5
I0
sg6
S'I'
sg8
S'O'
sg9
S'PRP'
p2323
sg11
S'I'
sg13
Nsba(ibuftoken
BufToken
p2324
(dp2325
g5
I1
sg6
S'would'
p2326
sg8
S'O'
sg9
S'MD'
p2327
sg11
S'would'
p2328
sg13
Nsba(ibuftoken
BufToken
p2329
(dp2330
g5
I2
sg6
S'try'
p2331
sg8
S'O'
sg9
S'VB'
p2332
sg11
S'try'
p2333
sg13
Nsba(ibuftoken
BufToken
p2334
(dp2335
g5
I3
sg6
S'to'
p2336
sg8
S'O'
sg9
S'TO'
p2337
sg11
S'to'
p2338
sg13
Nsba(ibuftoken
BufToken
p2339
(dp2340
g5
I4
sg6
S'find'
p2341
sg8
S'O'
sg9
S'VB'
p2342
sg11
S'find'
p2343
sg13
Nsba(ibuftoken
BufToken
p2344
(dp2345
g5
I5
sg6
S'out'
p2346
sg8
S'O'
sg9
S'RP'
p2347
sg11
S'out'
p2348
sg13
Nsba(ibuftoken
BufToken
p2349
(dp2350
g5
I6
sg6
S','
sg8
S'O'
sg9
S','
sg11
S','
sg13
Nsba(ibuftoken
BufToken
p2351
(dp2352
g5
I7
sg6
S'so'
p2353
sg8
S'O'
sg9
S'RB'
p2354
sg11
S'so'
p2355
sg13
Nsba(ibuftoken
BufToken
p2356
(dp2357
g5
I8
sg6
S','
sg8
S'O'
sg9
S','
sg11
S','
sg13
Nsba(ibuftoken
BufToken
p2358
(dp2359
g5
I9
sg6
S'if'
p2360
sg8
S'O'
sg9
S'IN'
p2361
sg11
S'if'
p2362
sg13
Nsba(ibuftoken
BufToken
p2363
(dp2364
g5
I10
sg6
S'this'
p2365
sg8
S'O'
sg9
S'DT'
p2366
sg11
S'this'
p2367
sg13
Nsba(ibuftoken
BufToken
p2368
(dp2369
g5
I11
sg6
S'was'
p2370
sg8
S'O'
sg9
S'VBD'
p2371
sg11
S'be'
p2372
sg13
Nsba(ibuftoken
BufToken
p2373
(dp2374
g5
I12
sg6
S'a'
sg8
S'O'
sg9
S'DT'
p2375
sg11
S'a'
sg13
Nsba(ibuftoken
BufToken
p2376
(dp2377
g5
I13
sg6
S'person'
p2378
sg8
S'O'
sg9
S'NN'
p2379
sg11
S'person'
p2380
sg13
Nsba(ibuftoken
BufToken
p2381
(dp2382
g5
I14
sg6
S'of'
p2383
sg8
S'O'
sg9
S'IN'
p2384
sg11
S'of'
p2385
sg13
Nsba(ibuftoken
BufToken
p2386
(dp2387
g5
I15
sg6
S'true'
p2388
sg8
S'O'
sg9
S'JJ'
p2389
sg11
S'true'
p2390
sg13
Nsba(ibuftoken
BufToken
p2391
(dp2392
g5
I16
sg6
S'understanding'
p2393
sg8
S'O'
sg9
S'NN'
p2394
sg11
S'understanding'
p2395
sg13
Nsba(ibuftoken
BufToken
p2396
(dp2397
g5
I17
sg6
S'.'
sg8
S'O'
sg9
S'.'
sg11
S'.'
sg13
Nsbaa(lp2398
(ibuftoken
BufToken
p2399
(dp2400
g5
I0
sg6
S'But'
p2401
sg8
S'O'
sg9
S'CC'
p2402
sg11
S'but'
p2403
sg13
Nsba(ibuftoken
BufToken
p2404
(dp2405
g5
I1
sg6
S','
sg8
S'O'
sg9
S','
sg11
S','
sg13
Nsba(ibuftoken
BufToken
p2406
(dp2407
g5
I2
sg6
S'whoever'
p2408
sg8
S'O'
sg9
S'WP'
p2409
sg11
S'whoever'
p2410
sg13
Nsba(ibuftoken
BufToken
p2411
(dp2412
g5
I3
sg6
S'it'
p2413
sg8
S'O'
sg9
S'PRP'
p2414
sg11
S'it'
p2415
sg13
Nsba(ibuftoken
BufToken
p2416
(dp2417
g5
I4
sg6
S'was'
p2418
sg8
S'O'
sg9
S'VBD'
p2419
sg11
S'be'
p2420
sg13
Nsba(ibuftoken
BufToken
p2421
(dp2422
g5
I5
sg6
S','
sg8
S'O'
sg9
S','
sg11
S','
sg13
Nsba(ibuftoken
BufToken
p2423
(dp2424
g5
I6
sg6
S'he'
p2425
sg8
S'O'
sg9
S'PRP'
p2426
sg11
S'he'
p2427
sg13
Nsba(ibuftoken
BufToken
p2428
(dp2429
g5
I7
sg6
S','
sg8
S'O'
sg9
S','
sg11
S','
sg13
Nsba(ibuftoken
BufToken
p2430
(dp2431
g5
I8
sg6
S'or'
p2432
sg8
S'O'
sg9
S'CC'
p2433
sg11
S'or'
p2434
sg13
Nsba(ibuftoken
BufToken
p2435
(dp2436
g5
I9
sg6
S'she'
p2437
sg8
S'O'
sg9
S'PRP'
p2438
sg11
S'she'
p2439
sg13
Nsba(ibuftoken
BufToken
p2440
(dp2441
g5
I10
sg6
S','
sg8
S'O'
sg9
S','
sg11
S','
sg13
Nsba(ibuftoken
BufToken
p2442
(dp2443
g5
I11
sg6
S'would'
p2444
sg8
S'O'
sg9
S'MD'
p2445
sg11
S'would'
p2446
sg13
Nsba(ibuftoken
BufToken
p2447
(dp2448
g5
I12
sg6
S'always'
p2449
sg8
S'O'
sg9
S'RB'
p2450
sg11
S'always'
p2451
sg13
Nsba(ibuftoken
BufToken
p2452
(dp2453
g5
I13
sg6
S'say'
p2454
sg8
S'O'
sg9
S'VB'
p2455
sg11
S'say'
p2456
sg13
Nsba(ibuftoken
BufToken
p2457
(dp2458
g5
I14
sg6
S':'
sg8
S'O'
sg9
S':'
sg11
S':'
sg13
Nsba(ibuftoken
BufToken
p2459
(dp2460
g5
I15
sg6
S'"'
sg8
S'O'
sg9
S'``'
p2461
sg11
S'"'
sg13
Nsba(ibuftoken
BufToken
p2462
(dp2463
g5
I16
sg6
S'That'
p2464
sg8
S'O'
sg9
S'WDT'
p2465
sg11
S'that'
p2466
sg13
Nsba(ibuftoken
BufToken
p2467
(dp2468
g5
I17
sg6
S'is'
p2469
sg8
S'O'
sg9
S'VBZ'
p2470
sg11
S'be'
p2471
sg13
Nsba(ibuftoken
BufToken
p2472
(dp2473
g5
I18
sg6
S'a'
sg8
S'O'
sg9
S'DT'
p2474
sg11
S'a'
sg13
Nsba(ibuftoken
BufToken
p2475
(dp2476
g5
I19
sg6
S'hat'
p2477
sg8
S'O'
sg9
S'NN'
p2478
sg11
S'hat'
p2479
sg13
Nsba(ibuftoken
BufToken
p2480
(dp2481
g5
I20
sg6
S'.'
sg8
S'O'
sg9
S'.'
sg11
S'.'
sg13
Nsba(ibuftoken
BufToken
p2482
(dp2483
g5
I21
sg6
S'"'
sg8
S'O'
sg9
S"''"
p2484
sg11
S'"'
sg13
Nsbaa(lp2485
(ibuftoken
BufToken
p2486
(dp2487
g5
I0
sg6
S'Then'
p2488
sg8
S'O'
sg9
S'RB'
p2489
sg11
S'then'
p2490
sg13
Nsba(ibuftoken
BufToken
p2491
(dp2492
g5
I1
sg6
S'I'
sg8
S'O'
sg9
S'PRP'
p2493
sg11
S'I'
sg13
Nsba(ibuftoken
BufToken
p2494
(dp2495
g5
I2
sg6
S'would'
p2496
sg8
S'O'
sg9
S'MD'
p2497
sg11
S'would'
p2498
sg13
Nsba(ibuftoken
BufToken
p2499
(dp2500
g5
I3
sg6
S'never'
p2501
sg8
S'O'
sg9
S'RB'
p2502
sg11
S'never'
p2503
sg13
Nsba(ibuftoken
BufToken
p2504
(dp2505
g5
I4
sg6
S'talk'
p2506
sg8
S'O'
sg9
S'VB'
p2507
sg11
S'talk'
p2508
sg13
Nsba(ibuftoken
BufToken
p2509
(dp2510
g5
I5
sg6
S'to'
p2511
sg8
S'O'
sg9
S'TO'
p2512
sg11
S'to'
p2513
sg13
Nsba(ibuftoken
BufToken
p2514
(dp2515
g5
I6
sg6
S'that'
p2516
sg8
S'O'
sg9
S'DT'
p2517
sg11
S'that'
p2518
sg13
Nsba(ibuftoken
BufToken
p2519
(dp2520
g5
I7
sg6
S'person'
p2521
sg8
S'O'
sg9
S'NN'
p2522
sg11
S'person'
p2523
sg13
Nsba(ibuftoken
BufToken
p2524
(dp2525
g5
I8
sg6
S'about'
p2526
sg8
S'O'
sg9
S'IN'
p2527
sg11
S'about'
p2528
sg13
Nsba(ibuftoken
BufToken
p2529
(dp2530
g5
I9
sg6
S'boa'
p2531
sg8
S'O'
sg9
S'NN'
p2532
sg11
S'boa'
p2533
sg13
Nsba(ibuftoken
BufToken
p2534
(dp2535
g5
I10
sg6
S'constrictors'
p2536
sg8
S'O'
sg9
S'NNS'
p2537
sg11
S'constrictor'
p2538
sg13
Nsba(ibuftoken
BufToken
p2539
(dp2540
g5
I11
sg6
S','
sg8
S'O'
sg9
S','
sg11
S','
sg13
Nsba(ibuftoken
BufToken
p2541
(dp2542
g5
I12
sg6
S'or'
p2543
sg8
S'O'
sg9
S'CC'
p2544
sg11
S'or'
p2545
sg13
Nsba(ibuftoken
BufToken
p2546
(dp2547
g5
I13
sg6
S'primeval'
p2548
sg8
S'O'
sg9
S'JJ'
p2549
sg11
S'primeval'
p2550
sg13
Nsba(ibuftoken
BufToken
p2551
(dp2552
g5
I14
sg6
S'forests'
p2553
sg8
S'O'
sg9
S'NNS'
p2554
sg11
S'forest'
p2555
sg13
Nsba(ibuftoken
BufToken
p2556
(dp2557
g5
I15
sg6
S','
sg8
S'O'
sg9
S','
sg11
S','
sg13
Nsba(ibuftoken
BufToken
p2558
(dp2559
g5
I16
sg6
S'or'
p2560
sg8
S'O'
sg9
S'CC'
p2561
sg11
S'or'
p2562
sg13
Nsba(ibuftoken
BufToken
p2563
(dp2564
g5
I17
sg6
S'stars'
p2565
sg8
S'O'
sg9
S'NNS'
p2566
sg11
S'star'
p2567
sg13
Nsba(ibuftoken
BufToken
p2568
(dp2569
g5
I18
sg6
S'.'
sg8
S'O'
sg9
S'.'
sg11
S'.'
sg13
Nsbaa(lp2570
(ibuftoken
BufToken
p2571
(dp2572
g5
I0
sg6
S'I'
sg8
S'O'
sg9
S'PRP'
p2573
sg11
S'I'
sg13
Nsba(ibuftoken
BufToken
p2574
(dp2575
g5
I1
sg6
S'would'
p2576
sg8
S'O'
sg9
S'MD'
p2577
sg11
S'would'
p2578
sg13
Nsba(ibuftoken
BufToken
p2579
(dp2580
g5
I2
sg6
S'bring'
p2581
sg8
S'O'
sg9
S'VB'
p2582
sg11
S'bring'
p2583
sg13
Nsba(ibuftoken
BufToken
p2584
(dp2585
g5
I3
sg6
S'myself'
p2586
sg8
S'O'
sg9
S'PRP'
p2587
sg11
S'myself'
p2588
sg13
Nsba(ibuftoken
BufToken
p2589
(dp2590
g5
I4
sg6
S'down'
p2591
sg8
S'O'
sg9
S'RB'
p2592
sg11
S'down'
p2593
sg13
Nsba(ibuftoken
BufToken
p2594
(dp2595
g5
I5
sg6
S'to'
p2596
sg8
S'O'
sg9
S'TO'
p2597
sg11
S'to'
p2598
sg13
Nsba(ibuftoken
BufToken
p2599
(dp2600
g5
I6
sg6
S'his'
p2601
sg8
S'O'
sg9
S'PRP$'
p2602
sg11
S'he'
p2603
sg13
Nsba(ibuftoken
BufToken
p2604
(dp2605
g5
I7
sg6
S'level'
p2606
sg8
S'O'
sg9
S'NN'
p2607
sg11
S'level'
p2608
sg13
Nsba(ibuftoken
BufToken
p2609
(dp2610
g5
I8
sg6
S'.'
sg8
S'O'
sg9
S'.'
sg11
S'.'
sg13
Nsbaa(lp2611
(ibuftoken
BufToken
p2612
(dp2613
g5
I0
sg6
S'I'
sg8
S'O'
sg9
S'PRP'
p2614
sg11
S'I'
sg13
Nsba(ibuftoken
BufToken
p2615
(dp2616
g5
I1
sg6
S'would'
p2617
sg8
S'O'
sg9
S'MD'
p2618
sg11
S'would'
p2619
sg13
Nsba(ibuftoken
BufToken
p2620
(dp2621
g5
I2
sg6
S'talk'
p2622
sg8
S'O'
sg9
S'VB'
p2623
sg11
S'talk'
p2624
sg13
Nsba(ibuftoken
BufToken
p2625
(dp2626
g5
I3
sg6
S'to'
p2627
sg8
S'O'
sg9
S'TO'
p2628
sg11
S'to'
p2629
sg13
Nsba(ibuftoken
BufToken
p2630
(dp2631
g5
I4
sg6
S'him'
p2632
sg8
S'O'
sg9
S'PRP'
p2633
sg11
S'he'
p2634
sg13
Nsba(ibuftoken
BufToken
p2635
(dp2636
g5
I5
sg6
S'about'
p2637
sg8
S'O'
sg9
S'IN'
p2638
sg11
S'about'
p2639
sg13
Nsba(ibuftoken
BufToken
p2640
(dp2641
g5
I6
sg6
S'bridge'
p2642
sg8
S'O'
sg9
S'NN'
p2643
sg11
S'bridge'
p2644
sg13
Nsba(ibuftoken
BufToken
p2645
(dp2646
g5
I7
sg6
S','
sg8
S'O'
sg9
S','
sg11
S','
sg13
Nsba(ibuftoken
BufToken
p2647
(dp2648
g5
I8
sg6
S'and'
p2649
sg8
S'O'
sg9
S'CC'
p2650
sg11
S'and'
p2651
sg13
Nsba(ibuftoken
BufToken
p2652
(dp2653
g5
I9
sg6
S'golf'
p2654
sg8
S'O'
sg9
S'NN'
p2655
sg11
S'golf'
p2656
sg13
Nsba(ibuftoken
BufToken
p2657
(dp2658
g5
I10
sg6
S','
sg8
S'O'
sg9
S','
sg11
S','
sg13
Nsba(ibuftoken
BufToken
p2659
(dp2660
g5
I11
sg6
S'and'
p2661
sg8
S'O'
sg9
S'CC'
p2662
sg11
S'and'
p2663
sg13
Nsba(ibuftoken
BufToken
p2664
(dp2665
g5
I12
sg6
S'politics'
p2666
sg8
S'O'
sg9
S'NNS'
p2667
sg11
S'politics'
p2668
sg13
Nsba(ibuftoken
BufToken
p2669
(dp2670
g5
I13
sg6
S','
sg8
S'O'
sg9
S','
sg11
S','
sg13
Nsba(ibuftoken
BufToken
p2671
(dp2672
g5
I14
sg6
S'and'
p2673
sg8
S'O'
sg9
S'CC'
p2674
sg11
S'and'
p2675
sg13
Nsba(ibuftoken
BufToken
p2676
(dp2677
g5
I15
sg6
S'neckties'
p2678
sg8
S'O'
sg9
S'NNS'
p2679
sg11
S'necktie'
p2680
sg13
Nsba(ibuftoken
BufToken
p2681
(dp2682
g5
I16
sg6
S'.'
sg8
S'O'
sg9
S'.'
sg11
S'.'
sg13
Nsbaa(lp2683
(ibuftoken
BufToken
p2684
(dp2685
g5
I0
sg6
S'And'
p2686
sg8
S'O'
sg9
S'CC'
p2687
sg11
S'and'
p2688
sg13
Nsba(ibuftoken
BufToken
p2689
(dp2690
g5
I1
sg6
S'the'
p2691
sg8
S'O'
sg9
S'DT'
p2692
sg11
S'the'
p2693
sg13
Nsba(ibuftoken
BufToken
p2694
(dp2695
g5
I2
sg6
S'grown'
p2696
sg8
S'O'
sg9
S'VBN'
p2697
sg11
S'grow'
p2698
sg13
Nsba(ibuftoken
BufToken
p2699
(dp2700
g5
I3
sg6
S'-'
sg8
S'O'
sg9
S':'
sg11
S'-'
sg13
Nsba(ibuftoken
BufToken
p2701
(dp2702
g5
I4
sg6
S'up'
p2703
sg8
S'O'
sg9
S'RP'
p2704
sg11
S'up'
p2705
sg13
Nsba(ibuftoken
BufToken
p2706
(dp2707
g5
I5
sg6
S'would'
p2708
sg8
S'O'
sg9
S'MD'
p2709
sg11
S'would'
p2710
sg13
Nsba(ibuftoken
BufToken
p2711
(dp2712
g5
I6
sg6
S'be'
p2713
sg8
S'O'
sg9
S'VB'
p2714
sg11
S'be'
p2715
sg13
Nsba(ibuftoken
BufToken
p2716
(dp2717
g5
I7
sg6
S'greatly'
p2718
sg8
S'O'
sg9
S'RB'
p2719
sg11
S'greatly'
p2720
sg13
Nsba(ibuftoken
BufToken
p2721
(dp2722
g5
I8
sg6
S'pleased'
p2723
sg8
S'O'
sg9
S'JJ'
p2724
sg11
S'pleased'
p2725
sg13
Nsba(ibuftoken
BufToken
p2726
(dp2727
g5
I9
sg6
S'to'
p2728
sg8
S'O'
sg9
S'TO'
p2729
sg11
S'to'
p2730
sg13
Nsba(ibuftoken
BufToken
p2731
(dp2732
g5
I10
sg6
S'have'
p2733
sg8
S'O'
sg9
S'VB'
p2734
sg11
S'have'
p2735
sg13
Nsba(ibuftoken
BufToken
p2736
(dp2737
g5
I11
sg6
S'met'
p2738
sg8
S'O'
sg9
S'VBN'
p2739
sg11
S'meet'
p2740
sg13
Nsba(ibuftoken
BufToken
p2741
(dp2742
g5
I12
sg6
S'such'
p2743
sg8
S'O'
sg9
S'PDT'
p2744
sg11
S'such'
p2745
sg13
Nsba(ibuftoken
BufToken
p2746
(dp2747
g5
I13
sg6
S'a'
sg8
S'O'
sg9
S'DT'
p2748
sg11
S'a'
sg13
Nsba(ibuftoken
BufToken
p2749
(dp2750
g5
I14
sg6
S'sensible'
p2751
sg8
S'O'
sg9
S'JJ'
p2752
sg11
S'sensible'
p2753
sg13
Nsba(ibuftoken
BufToken
p2754
(dp2755
g5
I15
sg6
S'man'
p2756
sg8
S'O'
sg9
S'NN'
p2757
sg11
S'man'
p2758
sg13
Nsba(ibuftoken
BufToken
p2759
(dp2760
g5
I16
sg6
S'.'
sg8
S'O'
sg9
S'.'
sg11
S'.'
sg13
Nsbaa(lp2761
(ibuftoken
BufToken
p2762
(dp2763
g5
I0
sg6
S'Chapter'
p2764
sg8
S'O'
sg9
S'NN'
p2765
sg11
S'chapter'
p2766
sg13
Nsba(ibuftoken
BufToken
p2767
(dp2768
g5
I1
sg6
S'2'
sg8
S'NUMBER'
p2769
sg9
S'CD'
p2770
sg11
S'2'
sg13
Nsba(ibuftoken
BufToken
p2771
(dp2772
g5
I2
sg6
S'.'
sg8
S'O'
sg9
S'.'
sg11
S'.'
sg13
Nsbaa(lp2773
(ibuftoken
BufToken
p2774
(dp2775
g5
I0
sg6
S'So'
p2776
sg8
S'O'
sg9
S'IN'
p2777
sg11
S'so'
p2778
sg13
Nsba(ibuftoken
BufToken
p2779
(dp2780
g5
I1
sg6
S'I'
sg8
S'O'
sg9
S'PRP'
p2781
sg11
S'I'
sg13
Nsba(ibuftoken
BufToken
p2782
(dp2783
g5
I2
sg6
S'lived'
p2784
sg8
S'O'
sg9
S'VBD'
p2785
sg11
S'live'
p2786
sg13
Nsba(ibuftoken
BufToken
p2787
(dp2788
g5
I3
sg6
S'my'
p2789
sg8
S'O'
sg9
S'PRP$'
p2790
sg11
S'my'
p2791
sg13
Nsba(ibuftoken
BufToken
p2792
(dp2793
g5
I4
sg6
S'life'
p2794
sg8
S'O'
sg9
S'NN'
p2795
sg11
S'life'
p2796
sg13
Nsba(ibuftoken
BufToken
p2797
(dp2798
g5
I5
sg6
S'alone'
p2799
sg8
S'O'
sg9
S'RB'
p2800
sg11
S'alone'
p2801
sg13
Nsba(ibuftoken
BufToken
p2802
(dp2803
g5
I6
sg6
S','
sg8
S'O'
sg9
S','
sg11
S','
sg13
Nsba(ibuftoken
BufToken
p2804
(dp2805
g5
I7
sg6
S'without'
p2806
sg8
S'O'
sg9
S'IN'
p2807
sg11
S'without'
p2808
sg13
Nsba(ibuftoken
BufToken
p2809
(dp2810
g5
I8
sg6
S'anyone'
p2811
sg8
S'O'
sg9
S'NN'
p2812
sg11
S'anyone'
p2813
sg13
Nsba(ibuftoken
BufToken
p2814
(dp2815
g5
I9
sg6
S'that'
p2816
sg8
S'O'
sg9
S'IN'
p2817
sg11
S'that'
p2818
sg13
Nsba(ibuftoken
BufToken
p2819
(dp2820
g5
I10
sg6
S'I'
sg8
S'O'
sg9
S'PRP'
p2821
sg11
S'I'
sg13
Nsba(ibuftoken
BufToken
p2822
(dp2823
g5
I11
sg6
S'could'
p2824
sg8
S'O'
sg9
S'MD'
p2825
sg11
S'could'
p2826
sg13
Nsba(ibuftoken
BufToken
p2827
(dp2828
g5
I12
sg6
S'really'
p2829
sg8
S'O'
sg9
S'RB'
p2830
sg11
S'really'
p2831
sg13
Nsba(ibuftoken
BufToken
p2832
(dp2833
g5
I13
sg6
S'talk'
p2834
sg8
S'O'
sg9
S'VB'
p2835
sg11
S'talk'
p2836
sg13
Nsba(ibuftoken
BufToken
p2837
(dp2838
g5
I14
sg6
S'to'
p2839
sg8
S'O'
sg9
S'TO'
p2840
sg11
S'to'
p2841
sg13
Nsba(ibuftoken
BufToken
p2842
(dp2843
g5
I15
sg6
S','
sg8
S'O'
sg9
S','
sg11
S','
sg13
Nsba(ibuftoken
BufToken
p2844
(dp2845
g5
I16
sg6
S'until'
p2846
sg8
S'O'
sg9
S'IN'
p2847
sg11
S'until'
p2848
sg13
Nsba(ibuftoken
BufToken
p2849
(dp2850
g5
I17
sg6
S'I'
sg8
S'O'
sg9
S'PRP'
p2851
sg11
S'I'
sg13
Nsba(ibuftoken
BufToken
p2852
(dp2853
g5
I18
sg6
S'had'
p2854
sg8
S'O'
sg9
S'VBD'
p2855
sg11
S'have'
p2856
sg13
Nsba(ibuftoken
BufToken
p2857
(dp2858
g5
I19
sg6
S'an'
p2859
sg8
S'O'
sg9
S'DT'
p2860
sg11
S'a'
sg13
Nsba(ibuftoken
BufToken
p2861
(dp2862
g5
I20
sg6
S'accident'
p2863
sg8
S'O'
sg9
S'NN'
p2864
sg11
S'accident'
p2865
sg13
Nsba(ibuftoken
BufToken
p2866
(dp2867
g5
I21
sg6
S'with'
p2868
sg8
S'O'
sg9
S'IN'
p2869
sg11
S'with'
p2870
sg13
Nsba(ibuftoken
BufToken
p2871
(dp2872
g5
I22
sg6
S'my'
p2873
sg8
S'O'
sg9
S'PRP$'
p2874
sg11
S'my'
p2875
sg13
Nsba(ibuftoken
BufToken
p2876
(dp2877
g5
I23
sg6
S'plane'
p2878
sg8
S'O'
sg9
S'NN'
p2879
sg11
S'plane'
p2880
sg13
Nsba(ibuftoken
BufToken
p2881
(dp2882
g5
I24
sg6
S'in'
p2883
sg8
S'O'
sg9
S'IN'
p2884
sg11
S'in'
p2885
sg13
Nsba(ibuftoken
BufToken
p2886
(dp2887
g5
I25
sg6
S'the'
p2888
sg8
S'O'
sg9
S'DT'
p2889
sg11
S'the'
p2890
sg13
Nsba(ibuftoken
BufToken
p2891
(dp2892
g5
I26
sg6
S'Desert_of_Sahara'
p2893
sg8
S'LOCATION'
p2894
sg9
S'NNP'
p2895
sg11
S'Sahara'
p2896
sg13
Nsba(ibuftoken
BufToken
p2897
(dp2898
g5
I27
sg6
S','
sg8
S'O'
sg9
S','
sg11
S','
sg13
Nsba(ibuftoken
BufToken
p2899
(dp2900
g5
I28
sg6
S'six'
p2901
sg8
S'DATE'
p2902
sg9
S'CD'
p2903
sg11
S'six'
p2904
sg13
Nsba(ibuftoken
BufToken
p2905
(dp2906
g5
I29
sg6
S'years'
p2907
sg8
S'DATE'
p2908
sg9
S'NNS'
p2909
sg11
S'year'
p2910
sg13
Nsba(ibuftoken
BufToken
p2911
(dp2912
g5
I30
sg6
S'ago'
p2913
sg8
S'DATE'
p2914
sg9
S'RB'
p2915
sg11
S'ago'
p2916
sg13
Nsba(ibuftoken
BufToken
p2917
(dp2918
g5
I31
sg6
S'.'
sg8
S'O'
sg9
S'.'
sg11
S'.'
sg13
Nsbaa(lp2919
(ibuftoken
BufToken
p2920
(dp2921
g5
I0
sg6
S'Something'
p2922
sg8
S'O'
sg9
S'NN'
p2923
sg11
S'something'
p2924
sg13
Nsba(ibuftoken
BufToken
p2925
(dp2926
g5
I1
sg6
S'was'
p2927
sg8
S'O'
sg9
S'VBD'
p2928
sg11
S'be'
p2929
sg13
Nsba(ibuftoken
BufToken
p2930
(dp2931
g5
I2
sg6
S'broken'
p2932
sg8
S'O'
sg9
S'VBN'
p2933
sg11
S'break'
p2934
sg13
Nsba(ibuftoken
BufToken
p2935
(dp2936
g5
I3
sg6
S'in'
p2937
sg8
S'O'
sg9
S'IN'
p2938
sg11
S'in'
p2939
sg13
Nsba(ibuftoken
BufToken
p2940
(dp2941
g5
I4
sg6
S'my'
p2942
sg8
S'O'
sg9
S'PRP$'
p2943
sg11
S'my'
p2944
sg13
Nsba(ibuftoken
BufToken
p2945
(dp2946
g5
I5
sg6
S'engine'
p2947
sg8
S'O'
sg9
S'NN'
p2948
sg11
S'engine'
p2949
sg13
Nsba(ibuftoken
BufToken
p2950
(dp2951
g5
I6
sg6
S'.'
sg8
S'O'
sg9
S'.'
sg11
S'.'
sg13
Nsbaa(lp2952
(ibuftoken
BufToken
p2953
(dp2954
g5
I0
sg6
S'And'
p2955
sg8
S'O'
sg9
S'CC'
p2956
sg11
S'and'
p2957
sg13
Nsba(ibuftoken
BufToken
p2958
(dp2959
g5
I1
sg6
S'as'
p2960
sg8
S'O'
sg9
S'IN'
p2961
sg11
S'as'
p2962
sg13
Nsba(ibuftoken
BufToken
p2963
(dp2964
g5
I2
sg6
S'I'
sg8
S'O'
sg9
S'PRP'
p2965
sg11
S'I'
sg13
Nsba(ibuftoken
BufToken
p2966
(dp2967
g5
I3
sg6
S'had'
p2968
sg8
S'O'
sg9
S'VBD'
p2969
sg11
S'have'
p2970
sg13
Nsba(ibuftoken
BufToken
p2971
(dp2972
g5
I4
sg6
S'with'
p2973
sg8
S'O'
sg9
S'IN'
p2974
sg11
S'with'
p2975
sg13
Nsba(ibuftoken
BufToken
p2976
(dp2977
g5
I5
sg6
S'me'
p2978
sg8
S'O'
sg9
S'PRP'
p2979
sg11
S'I'
sg13
Nsba(ibuftoken
BufToken
p2980
(dp2981
g5
I6
sg6
S'neither'
p2982
sg8
S'O'
sg9
S'CC'
p2983
sg11
S'neither'
p2984
sg13
Nsba(ibuftoken
BufToken
p2985
(dp2986
g5
I7
sg6
S'a'
sg8
S'O'
sg9
S'DT'
p2987
sg11
S'a'
sg13
Nsba(ibuftoken
BufToken
p2988
(dp2989
g5
I8
sg6
S'mechanic'
p2990
sg8
S'O'
sg9
S'NN'
p2991
sg11
S'mechanic'
p2992
sg13
Nsba(ibuftoken
BufToken
p2993
(dp2994
g5
I9
sg6
S'nor'
p2995
sg8
S'O'
sg9
S'CC'
p2996
sg11
S'nor'
p2997
sg13
Nsba(ibuftoken
BufToken
p2998
(dp2999
g5
I10
sg6
S'any'
p3000
sg8
S'O'
sg9
S'DT'
p3001
sg11
S'any'
p3002
sg13
Nsba(ibuftoken
BufToken
p3003
(dp3004
g5
I11
sg6
S'passengers'
p3005
sg8
S'O'
sg9
S'NNS'
p3006
sg11
S'passenger'
p3007
sg13
Nsba(ibuftoken
BufToken
p3008
(dp3009
g5
I12
sg6
S','
sg8
S'O'
sg9
S','
sg11
S','
sg13
Nsba(ibuftoken
BufToken
p3010
(dp3011
g5
I13
sg6
S'I'
sg8
S'O'
sg9
S'PRP'
p3012
sg11
S'I'
sg13
Nsba(ibuftoken
BufToken
p3013
(dp3014
g5
I14
sg6
S'set'
p3015
sg8
S'O'
sg9
S'VBD'
p3016
sg11
S'set'
p3017
sg13
Nsba(ibuftoken
BufToken
p3018
(dp3019
g5
I15
sg6
S'myself'
p3020
sg8
S'O'
sg9
S'PRP'
p3021
sg11
S'myself'
p3022
sg13
Nsba(ibuftoken
BufToken
p3023
(dp3024
g5
I16
sg6
S'to'
p3025
sg8
S'O'
sg9
S'TO'
p3026
sg11
S'to'
p3027
sg13
Nsba(ibuftoken
BufToken
p3028
(dp3029
g5
I17
sg6
S'attempt'
p3030
sg8
S'O'
sg9
S'VB'
p3031
sg11
S'attempt'
p3032
sg13
Nsba(ibuftoken
BufToken
p3033
(dp3034
g5
I18
sg6
S'the'
p3035
sg8
S'O'
sg9
S'DT'
p3036
sg11
S'the'
p3037
sg13
Nsba(ibuftoken
BufToken
p3038
(dp3039
g5
I19
sg6
S'difficult'
p3040
sg8
S'O'
sg9
S'JJ'
p3041
sg11
S'difficult'
p3042
sg13
Nsba(ibuftoken
BufToken
p3043
(dp3044
g5
I20
sg6
S'repairs'
p3045
sg8
S'O'
sg9
S'NNS'
p3046
sg11
S'repair'
p3047
sg13
Nsba(ibuftoken
BufToken
p3048
(dp3049
g5
I21
sg6
S'all'
p3050
sg8
S'O'
sg9
S'DT'
p3051
sg11
S'all'
p3052
sg13
Nsba(ibuftoken
BufToken
p3053
(dp3054
g5
I22
sg6
S'alone'
p3055
sg8
S'O'
sg9
S'RB'
p3056
sg11
S'alone'
p3057
sg13
Nsba(ibuftoken
BufToken
p3058
(dp3059
g5
I23
sg6
S'.'
sg8
S'O'
sg9
S'.'
sg11
S'.'
sg13
Nsbaa(lp3060
(ibuftoken
BufToken
p3061
(dp3062
g5
I0
sg6
S'It'
p3063
sg8
S'O'
sg9
S'PRP'
p3064
sg11
S'it'
p3065
sg13
Nsba(ibuftoken
BufToken
p3066
(dp3067
g5
I1
sg6
S'was'
p3068
sg8
S'O'
sg9
S'VBD'
p3069
sg11
S'be'
p3070
sg13
Nsba(ibuftoken
BufToken
p3071
(dp3072
g5
I2
sg6
S'a'
sg8
S'O'
sg9
S'DT'
p3073
sg11
S'a'
sg13
Nsba(ibuftoken
BufToken
p3074
(dp3075
g5
I3
sg6
S'question'
p3076
sg8
S'O'
sg9
S'NN'
p3077
sg11
S'question'
p3078
sg13
Nsba(ibuftoken
BufToken
p3079
(dp3080
g5
I4
sg6
S'of'
p3081
sg8
S'O'
sg9
S'IN'
p3082
sg11
S'of'
p3083
sg13
Nsba(ibuftoken
BufToken
p3084
(dp3085
g5
I5
sg6
S'life'
p3086
sg8
S'O'
sg9
S'NN'
p3087
sg11
S'life'
p3088
sg13
Nsba(ibuftoken
BufToken
p3089
(dp3090
g5
I6
sg6
S'or'
p3091
sg8
S'O'
sg9
S'CC'
p3092
sg11
S'or'
p3093
sg13
Nsba(ibuftoken
BufToken
p3094
(dp3095
g5
I7
sg6
S'death'
p3096
sg8
S'O'
sg9
S'NN'
p3097
sg11
S'death'
p3098
sg13
Nsba(ibuftoken
BufToken
p3099
(dp3100
g5
I8
sg6
S'for'
p3101
sg8
S'O'
sg9
S'IN'
p3102
sg11
S'for'
p3103
sg13
Nsba(ibuftoken
BufToken
p3104
(dp3105
g5
I9
sg6
S'me'
p3106
sg8
S'O'
sg9
S'PRP'
p3107
sg11
S'I'
sg13
Nsba(ibuftoken
BufToken
p3108
(dp3109
g5
I10
sg6
S':'
sg8
S'O'
sg9
S':'
sg11
S':'
sg13
Nsba(ibuftoken
BufToken
p3110
(dp3111
g5
I11
sg6
S'I'
sg8
S'O'
sg9
S'PRP'
p3112
sg11
S'I'
sg13
Nsba(ibuftoken
BufToken
p3113
(dp3114
g5
I12
sg6
S'had'
p3115
sg8
S'O'
sg9
S'VBD'
p3116
sg11
S'have'
p3117
sg13
Nsba(ibuftoken
BufToken
p3118
(dp3119
g5
I13
sg6
S'scarcely'
p3120
sg8
S'O'
sg9
S'RB'
p3121
sg11
S'scarcely'
p3122
sg13
Nsba(ibuftoken
BufToken
p3123
(dp3124
g5
I14
sg6
S'enough'
p3125
sg8
S'O'
sg9
S'JJ'
p3126
sg11
S'enough'
p3127
sg13
Nsba(ibuftoken
BufToken
p3128
(dp3129
g5
I15
sg6
S'drinking'
p3130
sg8
S'O'
sg9
S'NN'
p3131
sg11
S'drinking'
p3132
sg13
Nsba(ibuftoken
BufToken
p3133
(dp3134
g5
I16
sg6
S'water'
p3135
sg8
S'O'
sg9
S'NN'
p3136
sg11
S'water'
p3137
sg13
Nsba(ibuftoken
BufToken
p3138
(dp3139
g5
I17
sg6
S'to'
p3140
sg8
S'O'
sg9
S'TO'
p3141
sg11
S'to'
p3142
sg13
Nsba(ibuftoken
BufToken
p3143
(dp3144
g5
I18
sg6
S'last'
p3145
sg8
S'DATE'
p3146
sg9
S'VB'
p3147
sg11
S'last'
p3148
sg13
Nsba(ibuftoken
BufToken
p3149
(dp3150
g5
I19
sg6
S'a'
sg8
S'DATE'
p3151
sg9
S'DT'
p3152
sg11
S'a'
sg13
Nsba(ibuftoken
BufToken
p3153
(dp3154
g5
I20
sg6
S'week'
p3155
sg8
S'DATE'
p3156
sg9
S'NN'
p3157
sg11
S'week'
p3158
sg13
Nsba(ibuftoken
BufToken
p3159
(dp3160
g5
I21
sg6
S'.'
sg8
S'O'
sg9
S'.'
sg11
S'.'
sg13
Nsbaa(lp3161
(ibuftoken
BufToken
p3162
(dp3163
g5
I0
sg6
S'The'
p3164
sg8
S'O'
sg9
S'DT'
p3165
sg11
S'the'
p3166
sg13
Nsba(ibuftoken
BufToken
p3167
(dp3168
g5
I1
sg6
S'1'
sg8
S'ORDINAL'
p3169
sg9
S'JJ'
p3170
sg11
S'first'
p3171
sg13
Nsba(ibuftoken
BufToken
p3172
(dp3173
g5
I2
sg6
S'night'
p3174
sg8
S'TIME'
p3175
sg9
S'NN'
p3176
sg11
S'night'
p3177
sg13
Nsba(ibuftoken
BufToken
p3178
(dp3179
g5
I3
sg6
S','
sg8
S'O'
sg9
S','
sg11
S','
sg13
Nsba(ibuftoken
BufToken
p3180
(dp3181
g5
I4
sg6
S'then'
p3182
sg8
S'O'
sg9
S'RB'
p3183
sg11
S'then'
p3184
sg13
Nsba(ibuftoken
BufToken
p3185
(dp3186
g5
I5
sg6
S','
sg8
S'O'
sg9
S','
sg11
S','
sg13
Nsba(ibuftoken
BufToken
p3187
(dp3188
g5
I6
sg6
S'I'
sg8
S'O'
sg9
S'PRP'
p3189
sg11
S'I'
sg13
Nsba(ibuftoken
BufToken
p3190
(dp3191
g5
I7
sg6
S'went'
p3192
sg8
S'O'
sg9
S'VBD'
p3193
sg11
S'go'
p3194
sg13
Nsba(ibuftoken
BufToken
p3195
(dp3196
g5
I8
sg6
S'to'
p3197
sg8
S'O'
sg9
S'TO'
p3198
sg11
S'to'
p3199
sg13
Nsba(ibuftoken
BufToken
p3200
(dp3201
g5
I9
sg6
S'sleep'
p3202
sg8
S'O'
sg9
S'VB'
p3203
sg11
S'sleep'
p3204
sg13
Nsba(ibuftoken
BufToken
p3205
(dp3206
g5
I10
sg6
S'on'
p3207
sg8
S'O'
sg9
S'IN'
p3208
sg11
S'on'
p3209
sg13
Nsba(ibuftoken
BufToken
p3210
(dp3211
g5
I11
sg6
S'the'
p3212
sg8
S'O'
sg9
S'DT'
p3213
sg11
S'the'
p3214
sg13
Nsba(ibuftoken
BufToken
p3215
(dp3216
g5
I12
sg6
S'sand'
p3217
sg8
S'O'
sg9
S'NN'
p3218
sg11
S'sand'
p3219
sg13
Nsba(ibuftoken
BufToken
p3220
(dp3221
g5
I13
sg6
S','
sg8
S'O'
sg9
S','
sg11
S','
sg13
Nsba(ibuftoken
BufToken
p3222
(dp3223
g5
I14
sg6
S'a'
sg8
S'O'
sg9
S'DT'
p3224
sg11
S'a'
sg13
Nsba(ibuftoken
BufToken
p3225
(dp3226
g5
I15
sg6
S'1000'
p3227
sg8
S'NUMBER'
p3228
sg9
S'CD'
p3229
sg11
S'thousand'
p3230
sg13
Nsba(ibuftoken
BufToken
p3231
(dp3232
g5
I16
sg6
S'miles'
p3233
sg8
S'O'
sg9
S'NNS'
p3234
sg11
S'mile'
p3235
sg13
Nsba(ibuftoken
BufToken
p3236
(dp3237
g5
I17
sg6
S'from'
p3238
sg8
S'O'
sg9
S'IN'
p3239
sg11
S'from'
p3240
sg13
Nsba(ibuftoken
BufToken
p3241
(dp3242
g5
I18
sg6
S'any'
p3243
sg8
S'O'
sg9
S'DT'
p3244
sg11
S'any'
p3245
sg13
Nsba(ibuftoken
BufToken
p3246
(dp3247
g5
I19
sg6
S'human'
p3248
sg8
S'O'
sg9
S'JJ'
p3249
sg11
S'human'
p3250
sg13
Nsba(ibuftoken
BufToken
p3251
(dp3252
g5
I20
sg6
S'habitation'
p3253
sg8
S'O'
sg9
S'NN'
p3254
sg11
S'habitation'
p3255
sg13
Nsba(ibuftoken
BufToken
p3256
(dp3257
g5
I21
sg6
S'.'
sg8
S'O'
sg9
S'.'
sg11
S'.'
sg13
Nsbaa(lp3258
(ibuftoken
BufToken
p3259
(dp3260
g5
I0
sg6
S'I'
sg8
S'O'
sg9
S'PRP'
p3261
sg11
S'I'
sg13
Nsba(ibuftoken
BufToken
p3262
(dp3263
g5
I1
sg6
S'was'
p3264
sg8
S'O'
sg9
S'VBD'
p3265
sg11
S'be'
p3266
sg13
Nsba(ibuftoken
BufToken
p3267
(dp3268
g5
I2
sg6
S'more'
p3269
sg8
S'O'
sg9
S'RBR'
p3270
sg11
S'more'
p3271
sg13
Nsba(ibuftoken
BufToken
p3272
(dp3273
g5
I3
sg6
S'isolated'
p3274
sg8
S'O'
sg9
S'VBN'
p3275
sg11
S'isolate'
p3276
sg13
Nsba(ibuftoken
BufToken
p3277
(dp3278
g5
I4
sg6
S'than'
p3279
sg8
S'O'
sg9
S'IN'
p3280
sg11
S'than'
p3281
sg13
Nsba(ibuftoken
BufToken
p3282
(dp3283
g5
I5
sg6
S'a'
sg8
S'O'
sg9
S'DT'
p3284
sg11
S'a'
sg13
Nsba(ibuftoken
BufToken
p3285
(dp3286
g5
I6
sg6
S'shipwrecked'
p3287
sg8
S'O'
sg9
S'JJ'
p3288
sg11
S'shipwrecked'
p3289
sg13
Nsba(ibuftoken
BufToken
p3290
(dp3291
g5
I7
sg6
S'sailor'
p3292
sg8
S'O'
sg9
S'NN'
p3293
sg11
S'sailor'
p3294
sg13
Nsba(ibuftoken
BufToken
p3295
(dp3296
g5
I8
sg6
S'on'
p3297
sg8
S'O'
sg9
S'IN'
p3298
sg11
S'on'
p3299
sg13
Nsba(ibuftoken
BufToken
p3300
(dp3301
g5
I9
sg6
S'a'
sg8
S'O'
sg9
S'DT'
p3302
sg11
S'a'
sg13
Nsba(ibuftoken
BufToken
p3303
(dp3304
g5
I10
sg6
S'raft'
p3305
sg8
S'O'
sg9
S'NN'
p3306
sg11
S'raft'
p3307
sg13
Nsba(ibuftoken
BufToken
p3308
(dp3309
g5
I11
sg6
S'in'
p3310
sg8
S'O'
sg9
S'IN'
p3311
sg11
S'in'
p3312
sg13
Nsba(ibuftoken
BufToken
p3313
(dp3314
g5
I12
sg6
S'the'
p3315
sg8
S'O'
sg9
S'DT'
p3316
sg11
S'the'
p3317
sg13
Nsba(ibuftoken
BufToken
p3318
(dp3319
g5
I13
sg6
S'middle'
p3320
sg8
S'O'
sg9
S'NN'
p3321
sg11
S'middle'
p3322
sg13
Nsba(ibuftoken
BufToken
p3323
(dp3324
g5
I14
sg6
S'of'
p3325
sg8
S'O'
sg9
S'IN'
p3326
sg11
S'of'
p3327
sg13
Nsba(ibuftoken
BufToken
p3328
(dp3329
g5
I15
sg6
S'the'
p3330
sg8
S'O'
sg9
S'DT'
p3331
sg11
S'the'
p3332
sg13
Nsba(ibuftoken
BufToken
p3333
(dp3334
g5
I16
sg6
S'ocean'
p3335
sg8
S'O'
sg9
S'NN'
p3336
sg11
S'ocean'
p3337
sg13
Nsba(ibuftoken
BufToken
p3338
(dp3339
g5
I17
sg6
S'.'
sg8
S'O'
sg9
S'.'
sg11
S'.'
sg13
Nsbaa(lp3340
(ibuftoken
BufToken
p3341
(dp3342
g5
I0
sg6
S'Thus'
p3343
sg8
S'O'
sg9
S'RB'
p3344
sg11
S'thus'
p3345
sg13
Nsba(ibuftoken
BufToken
p3346
(dp3347
g5
I1
sg6
S'you'
p3348
sg8
S'O'
sg9
S'PRP'
p3349
sg11
S'you'
p3350
sg13
Nsba(ibuftoken
BufToken
p3351
(dp3352
g5
I2
sg6
S'can'
p3353
sg8
S'O'
sg9
S'MD'
p3354
sg11
S'can'
p3355
sg13
Nsba(ibuftoken
BufToken
p3356
(dp3357
g5
I3
sg6
S'imagine'
p3358
sg8
S'O'
sg9
S'VB'
p3359
sg11
S'imagine'
p3360
sg13
Nsba(ibuftoken
BufToken
p3361
(dp3362
g5
I4
sg6
S'my'
p3363
sg8
S'O'
sg9
S'PRP$'
p3364
sg11
S'my'
p3365
sg13
Nsba(ibuftoken
BufToken
p3366
(dp3367
g5
I5
sg6
S'amazement'
p3368
sg8
S'O'
sg9
S'NN'
p3369
sg11
S'amazement'
p3370
sg13
Nsba(ibuftoken
BufToken
p3371
(dp3372
g5
I6
sg6
S','
sg8
S'O'
sg9
S','
sg11
S','
sg13
Nsba(ibuftoken
BufToken
p3373
(dp3374
g5
I7
sg6
S'at'
p3375
sg8
S'O'
sg9
S'IN'
p3376
sg11
S'at'
p3377
sg13
Nsba(ibuftoken
BufToken
p3378
(dp3379
g5
I8
sg6
S'sunrise'
p3380
sg8
S'O'
sg9
S'NN'
p3381
sg11
S'sunrise'
p3382
sg13
Nsba(ibuftoken
BufToken
p3383
(dp3384
g5
I9
sg6
S','
sg8
S'O'
sg9
S','
sg11
S','
sg13
Nsba(ibuftoken
BufToken
p3385
(dp3386
g5
I10
sg6
S'when'
p3387
sg8
S'O'
sg9
S'WRB'
p3388
sg11
S'when'
p3389
sg13
Nsba(ibuftoken
BufToken
p3390
(dp3391
g5
I11
sg6
S'I'
sg8
S'O'
sg9
S'PRP'
p3392
sg11
S'I'
sg13
Nsba(ibuftoken
BufToken
p3393
(dp3394
g5
I12
sg6
S'was'
p3395
sg8
S'O'
sg9
S'VBD'
p3396
sg11
S'be'
p3397
sg13
Nsba(ibuftoken
BufToken
p3398
(dp3399
g5
I13
sg6
S'awakened'
p3400
sg8
S'O'
sg9
S'VBN'
p3401
sg11
S'awaken'
p3402
sg13
Nsba(ibuftoken
BufToken
p3403
(dp3404
g5
I14
sg6
S'by'
p3405
sg8
S'O'
sg9
S'IN'
p3406
sg11
S'by'
p3407
sg13
Nsba(ibuftoken
BufToken
p3408
(dp3409
g5
I15
sg6
S'an'
p3410
sg8
S'O'
sg9
S'DT'
p3411
sg11
S'a'
sg13
Nsba(ibuftoken
BufToken
p3412
(dp3413
g5
I16
sg6
S'odd'
p3414
sg8
S'O'
sg9
S'JJ'
p3415
sg11
S'odd'
p3416
sg13
Nsba(ibuftoken
BufToken
p3417
(dp3418
g5
I17
sg6
S'little'
p3419
sg8
S'O'
sg9
S'JJ'
p3420
sg11
S'little'
p3421
sg13
Nsba(ibuftoken
BufToken
p3422
(dp3423
g5
I18
sg6
S'voice'
p3424
sg8
S'O'
sg9
S'NN'
p3425
sg11
S'voice'
p3426
sg13
Nsba(ibuftoken
BufToken
p3427
(dp3428
g5
I19
sg6
S'.'
sg8
S'O'
sg9
S'.'
sg11
S'.'
sg13
Nsbaa(lp3429
(ibuftoken
BufToken
p3430
(dp3431
g5
I0
sg6
S'It'
p3432
sg8
S'O'
sg9
S'PRP'
p3433
sg11
S'it'
p3434
sg13
Nsba(ibuftoken
BufToken
p3435
(dp3436
g5
I1
sg6
S'said'
p3437
sg8
S'O'
sg9
S'VBD'
p3438
sg11
S'say'
p3439
sg13
Nsba(ibuftoken
BufToken
p3440
(dp3441
g5
I2
sg6
S':'
sg8
S'O'
sg9
S':'
sg11
S':'
sg13
Nsba(ibuftoken
BufToken
p3442
(dp3443
g5
I3
sg6
S'"'
sg8
S'O'
sg9
S'``'
p3444
sg11
S'"'
sg13
Nsba(ibuftoken
BufToken
p3445
(dp3446
g5
I4
sg6
S'If'
p3447
sg8
S'O'
sg9
S'IN'
p3448
sg11
S'if'
p3449
sg13
Nsba(ibuftoken
BufToken
p3450
(dp3451
g5
I5
sg6
S'you'
p3452
sg8
S'O'
sg9
S'PRP'
p3453
sg11
S'you'
p3454
sg13
Nsba(ibuftoken
BufToken
p3455
(dp3456
g5
I6
sg6
S'please'
p3457
sg8
S'O'
sg9
S'VB'
p3458
sg11
S'please'
p3459
sg13
Nsba(ibuftoken
BufToken
p3460
(dp3461
g5
I7
sg6
S'--'
p3462
sg8
S'O'
sg9
S':'
sg11
S'--'
p3463
sg13
Nsba(ibuftoken
BufToken
p3464
(dp3465
g5
I8
sg6
S'draw'
p3466
sg8
S'O'
sg9
S'VB'
p3467
sg11
S'draw'
p3468
sg13
Nsba(ibuftoken
BufToken
p3469
(dp3470
g5
I9
sg6
S'me'
p3471
sg8
S'O'
sg9
S'PRP'
p3472
sg11
S'I'
sg13
Nsba(ibuftoken
BufToken
p3473
(dp3474
g5
I10
sg6
S'a'
sg8
S'O'
sg9
S'DT'
p3475
sg11
S'a'
sg13
Nsba(ibuftoken
BufToken
p3476
(dp3477
g5
I11
sg6
S'sheep'
p3478
sg8
S'O'
sg9
S'NN'
p3479
sg11
S'sheep'
p3480
sg13
Nsba(ibuftoken
BufToken
p3481
(dp3482
g5
I12
sg6
S'!'
sg8
S'O'
sg9
S'.'
sg11
S'!'
sg13
Nsba(ibuftoken
BufToken
p3483
(dp3484
g5
I13
sg6
S'"'
sg8
S'O'
sg9
S"''"
p3485
sg11
S'"'
sg13
Nsbaa(lp3486
(ibuftoken
BufToken
p3487
(dp3488
g5
I0
sg6
S'"'
sg8
S'O'
sg9
S'``'
p3489
sg11
S'"'
sg13
Nsba(ibuftoken
BufToken
p3490
(dp3491
g5
I1
sg6
S'What'
p3492
sg8
S'O'
sg9
S'WP'
p3493
sg11
S'what'
p3494
sg13
Nsba(ibuftoken
BufToken
p3495
(dp3496
g5
I2
sg6
S'!'
sg8
S'O'
sg9
S'.'
sg11
S'!'
sg13
Nsba(ibuftoken
BufToken
p3497
(dp3498
g5
I3
sg6
S'"'
sg8
S'O'
sg9
S"''"
p3499
sg11
S'"'
sg13
Nsbaa(lp3500
(ibuftoken
BufToken
p3501
(dp3502
g5
I0
sg6
S'"'
sg8
S'O'
sg9
S'``'
p3503
sg11
S'"'
sg13
Nsba(ibuftoken
BufToken
p3504
(dp3505
g5
I1
sg6
S'Draw'
p3506
sg8
S'O'
sg9
S'VB'
p3507
sg11
S'draw'
p3508
sg13
Nsba(ibuftoken
BufToken
p3509
(dp3510
g5
I2
sg6
S'me'
p3511
sg8
S'O'
sg9
S'PRP'
p3512
sg11
S'I'
sg13
Nsba(ibuftoken
BufToken
p3513
(dp3514
g5
I3
sg6
S'a'
sg8
S'O'
sg9
S'DT'
p3515
sg11
S'a'
sg13
Nsba(ibuftoken
BufToken
p3516
(dp3517
g5
I4
sg6
S'sheep'
p3518
sg8
S'O'
sg9
S'NN'
p3519
sg11
S'sheep'
p3520
sg13
Nsba(ibuftoken
BufToken
p3521
(dp3522
g5
I5
sg6
S'!'
sg8
S'O'
sg9
S'.'
sg11
S'!'
sg13
Nsba(ibuftoken
BufToken
p3523
(dp3524
g5
I6
sg6
S'"'
sg8
S'O'
sg9
S"''"
p3525
sg11
S'"'
sg13
Nsbaa(lp3526
(ibuftoken
BufToken
p3527
(dp3528
g5
I0
sg6
S'I'
sg8
S'O'
sg9
S'PRP'
p3529
sg11
S'I'
sg13
Nsba(ibuftoken
BufToken
p3530
(dp3531
g5
I1
sg6
S'jumped'
p3532
sg8
S'O'
sg9
S'VBD'
p3533
sg11
S'jump'
p3534
sg13
Nsba(ibuftoken
BufToken
p3535
(dp3536
g5
I2
sg6
S'to'
p3537
sg8
S'O'
sg9
S'TO'
p3538
sg11
S'to'
p3539
sg13
Nsba(ibuftoken
BufToken
p3540
(dp3541
g5
I3
sg6
S'my'
p3542
sg8
S'O'
sg9
S'PRP$'
p3543
sg11
S'my'
p3544
sg13
Nsba(ibuftoken
BufToken
p3545
(dp3546
g5
I4
sg6
S'feet'
p3547
sg8
S'O'
sg9
S'NNS'
p3548
sg11
S'foot'
p3549
sg13
Nsba(ibuftoken
BufToken
p3550
(dp3551
g5
I5
sg6
S','
sg8
S'O'
sg9
S','
sg11
S','
sg13
Nsba(ibuftoken
BufToken
p3552
(dp3553
g5
I6
sg6
S'completely'
p3554
sg8
S'O'
sg9
S'RB'
p3555
sg11
S'completely'
p3556
sg13
Nsba(ibuftoken
BufToken
p3557
(dp3558
g5
I7
sg6
S'thunderstruck'
p3559
sg8
S'O'
sg9
S'RB'
p3560
sg11
S'thunderstruck'
p3561
sg13
Nsba(ibuftoken
BufToken
p3562
(dp3563
g5
I8
sg6
S'.'
sg8
S'O'
sg9
S'.'
sg11
S'.'
sg13
Nsbaa(lp3564
(ibuftoken
BufToken
p3565
(dp3566
g5
I0
sg6
S'I'
sg8
S'O'
sg9
S'PRP'
p3567
sg11
S'I'
sg13
Nsba(ibuftoken
BufToken
p3568
(dp3569
g5
I1
sg6
S'blinked'
p3570
sg8
S'O'
sg9
S'VBD'
p3571
sg11
S'blink'
p3572
sg13
Nsba(ibuftoken
BufToken
p3573
(dp3574
g5
I2
sg6
S'my'
p3575
sg8
S'O'
sg9
S'PRP$'
p3576
sg11
S'my'
p3577
sg13
Nsba(ibuftoken
BufToken
p3578
(dp3579
g5
I3
sg6
S'eyes'
p3580
sg8
S'O'
sg9
S'NNS'
p3581
sg11
S'eye'
p3582
sg13
Nsba(ibuftoken
BufToken
p3583
(dp3584
g5
I4
sg6
S'hard'
p3585
sg8
S'O'
sg9
S'RB'
p3586
sg11
S'hard'
p3587
sg13
Nsba(ibuftoken
BufToken
p3588
(dp3589
g5
I5
sg6
S'.'
sg8
S'O'
sg9
S'.'
sg11
S'.'
sg13
Nsbaa(lp3590
(ibuftoken
BufToken
p3591
(dp3592
g5
I0
sg6
S'I'
sg8
S'O'
sg9
S'PRP'
p3593
sg11
S'I'
sg13
Nsba(ibuftoken
BufToken
p3594
(dp3595
g5
I1
sg6
S'looked'
p3596
sg8
S'O'
sg9
S'VBD'
p3597
sg11
S'look'
p3598
sg13
Nsba(ibuftoken
BufToken
p3599
(dp3600
g5
I2
sg6
S'carefully'
p3601
sg8
S'O'
sg9
S'RB'
p3602
sg11
S'carefully'
p3603
sg13
Nsba(ibuftoken
BufToken
p3604
(dp3605
g5
I3
sg6
S'all'
p3606
sg8
S'O'
sg9
S'DT'
p3607
sg11
S'all'
p3608
sg13
Nsba(ibuftoken
BufToken
p3609
(dp3610
g5
I4
sg6
S'around'
p3611
sg8
S'O'
sg9
S'IN'
p3612
sg11
S'around'
p3613
sg13
Nsba(ibuftoken
BufToken
p3614
(dp3615
g5
I5
sg6
S'me'
p3616
sg8
S'O'
sg9
S'PRP'
p3617
sg11
S'I'
sg13
Nsba(ibuftoken
BufToken
p3618
(dp3619
g5
I6
sg6
S'.'
sg8
S'O'
sg9
S'.'
sg11
S'.'
sg13
Nsbaa(lp3620
(ibuftoken
BufToken
p3621
(dp3622
g5
I0
sg6
S'And'
p3623
sg8
S'O'
sg9
S'CC'
p3624
sg11
S'and'
p3625
sg13
Nsba(ibuftoken
BufToken
p3626
(dp3627
g5
I1
sg6
S'I'
sg8
S'O'
sg9
S'PRP'
p3628
sg11
S'I'
sg13
Nsba(ibuftoken
BufToken
p3629
(dp3630
g5
I2
sg6
S'saw'
p3631
sg8
S'O'
sg9
S'VBD'
p3632
sg11
S'see'
p3633
sg13
Nsba(ibuftoken
BufToken
p3634
(dp3635
g5
I3
sg6
S'a'
sg8
S'O'
sg9
S'DT'
p3636
sg11
S'a'
sg13
Nsba(ibuftoken
BufToken
p3637
(dp3638
g5
I4
sg6
S'most'
p3639
sg8
S'O'
sg9
S'RBS'
p3640
sg11
S'most'
p3641
sg13
Nsba(ibuftoken
BufToken
p3642
(dp3643
g5
I5
sg6
S'extraordinary'
p3644
sg8
S'O'
sg9
S'JJ'
p3645
sg11
S'extraordinary'
p3646
sg13
Nsba(ibuftoken
BufToken
p3647
(dp3648
g5
I6
sg6
S'small'
p3649
sg8
S'O'
sg9
S'JJ'
p3650
sg11
S'small'
p3651
sg13
Nsba(ibuftoken
BufToken
p3652
(dp3653
g5
I7
sg6
S'person'
p3654
sg8
S'O'
sg9
S'NN'
p3655
sg11
S'person'
p3656
sg13
Nsba(ibuftoken
BufToken
p3657
(dp3658
g5
I8
sg6
S','
sg8
S'O'
sg9
S','
sg11
S','
sg13
Nsba(ibuftoken
BufToken
p3659
(dp3660
g5
I9
sg6
S'who'
p3661
sg8
S'O'
sg9
S'WP'
p3662
sg11
S'who'
p3663
sg13
Nsba(ibuftoken
BufToken
p3664
(dp3665
g5
I10
sg6
S'stood'
p3666
sg8
S'O'
sg9
S'VBD'
p3667
sg11
S'stand'
p3668
sg13
Nsba(ibuftoken
BufToken
p3669
(dp3670
g5
I11
sg6
S'there'
p3671
sg8
S'O'
sg9
S'EX'
p3672
sg11
S'there'
p3673
sg13
Nsba(ibuftoken
BufToken
p3674
(dp3675
g5
I12
sg6
S'examining'
p3676
sg8
S'O'
sg9
S'VBG'
p3677
sg11
S'examine'
p3678
sg13
Nsba(ibuftoken
BufToken
p3679
(dp3680
g5
I13
sg6
S'me'
p3681
sg8
S'O'
sg9
S'PRP'
p3682
sg11
S'I'
sg13
Nsba(ibuftoken
BufToken
p3683
(dp3684
g5
I14
sg6
S'with'
p3685
sg8
S'O'
sg9
S'IN'
p3686
sg11
S'with'
p3687
sg13
Nsba(ibuftoken
BufToken
p3688
(dp3689
g5
I15
sg6
S'great'
p3690
sg8
S'O'
sg9
S'JJ'
p3691
sg11
S'great'
p3692
sg13
Nsba(ibuftoken
BufToken
p3693
(dp3694
g5
I16
sg6
S'seriousness'
p3695
sg8
S'O'
sg9
S'NN'
p3696
sg11
S'seriousness'
p3697
sg13
Nsba(ibuftoken
BufToken
p3698
(dp3699
g5
I17
sg6
S'.'
sg8
S'O'
sg9
S'.'
sg11
S'.'
sg13
Nsbaa(lp3700
(ibuftoken
BufToken
p3701
(dp3702
g5
I0
sg6
S'Here'
p3703
sg8
S'O'
sg9
S'RB'
p3704
sg11
S'here'
p3705
sg13
Nsba(ibuftoken
BufToken
p3706
(dp3707
g5
I1
sg6
S'you'
p3708
sg8
S'O'
sg9
S'PRP'
p3709
sg11
S'you'
p3710
sg13
Nsba(ibuftoken
BufToken
p3711
(dp3712
g5
I2
sg6
S'may'
p3713
sg8
S'O'
sg9
S'MD'
p3714
sg11
S'may'
p3715
sg13
Nsba(ibuftoken
BufToken
p3716
(dp3717
g5
I3
sg6
S'see'
p3718
sg8
S'O'
sg9
S'VB'
p3719
sg11
S'see'
p3720
sg13
Nsba(ibuftoken
BufToken
p3721
(dp3722
g5
I4
sg6
S'the'
p3723
sg8
S'O'
sg9
S'DT'
p3724
sg11
S'the'
p3725
sg13
Nsba(ibuftoken
BufToken
p3726
(dp3727
g5
I5
sg6
S'best'
p3728
sg8
S'O'
sg9
S'JJS'
p3729
sg11
S'best'
p3730
sg13
Nsba(ibuftoken
BufToken
p3731
(dp3732
g5
I6
sg6
S'portrait'
p3733
sg8
S'O'
sg9
S'NN'
p3734
sg11
S'portrait'
p3735
sg13
Nsba(ibuftoken
BufToken
p3736
(dp3737
g5
I7
sg6
S'that'
p3738
sg8
S'O'
sg9
S'IN'
p3739
sg11
S'that'
p3740
sg13
Nsba(ibuftoken
BufToken
p3741
(dp3742
g5
I8
sg6
S','
sg8
S'O'
sg9
S','
sg11
S','
sg13
Nsba(ibuftoken
BufToken
p3743
(dp3744
g5
I9
sg6
S'later'
p3745
sg8
S'O'
sg9
S'RB'
p3746
sg11
S'later'
p3747
sg13
Nsba(ibuftoken
BufToken
p3748
(dp3749
g5
I10
sg6
S','
sg8
S'O'
sg9
S','
sg11
S','
sg13
Nsba(ibuftoken
BufToken
p3750
(dp3751
g5
I11
sg6
S'I'
sg8
S'O'
sg9
S'PRP'
p3752
sg11
S'I'
sg13
Nsba(ibuftoken
BufToken
p3753
(dp3754
g5
I12
sg6
S'was'
p3755
sg8
S'O'
sg9
S'VBD'
p3756
sg11
S'be'
p3757
sg13
Nsba(ibuftoken
BufToken
p3758
(dp3759
g5
I13
sg6
S'able'
p3760
sg8
S'O'
sg9
S'JJ'
p3761
sg11
S'able'
p3762
sg13
Nsba(ibuftoken
BufToken
p3763
(dp3764
g5
I14
sg6
S'to'
p3765
sg8
S'O'
sg9
S'TO'
p3766
sg11
S'to'
p3767
sg13
Nsba(ibuftoken
BufToken
p3768
(dp3769
g5
I15
sg6
S'make'
p3770
sg8
S'O'
sg9
S'VB'
p3771
sg11
S'make'
p3772
sg13
Nsba(ibuftoken
BufToken
p3773
(dp3774
g5
I16
sg6
S'of'
p3775
sg8
S'O'
sg9
S'IN'
p3776
sg11
S'of'
p3777
sg13
Nsba(ibuftoken
BufToken
p3778
(dp3779
g5
I17
sg6
S'him'
p3780
sg8
S'O'
sg9
S'PRP'
p3781
sg11
S'he'
p3782
sg13
Nsba(ibuftoken
BufToken
p3783
(dp3784
g5
I18
sg6
S'.'
sg8
S'O'
sg9
S'.'
sg11
S'.'
sg13
Nsbaa(lp3785
(ibuftoken
BufToken
p3786
(dp3787
g5
I0
sg6
S'But'
p3788
sg8
S'O'
sg9
S'CC'
p3789
sg11
S'but'
p3790
sg13
Nsba(ibuftoken
BufToken
p3791
(dp3792
g5
I1
sg6
S'my'
p3793
sg8
S'O'
sg9
S'PRP$'
p3794
sg11
S'my'
p3795
sg13
Nsba(ibuftoken
BufToken
p3796
(dp3797
g5
I2
sg6
S'drawing'
p3798
sg8
S'O'
sg9
S'NN'
p3799
sg11
S'drawing'
p3800
sg13
Nsba(ibuftoken
BufToken
p3801
(dp3802
g5
I3
sg6
S'is'
p3803
sg8
S'O'
sg9
S'VBZ'
p3804
sg11
S'be'
p3805
sg13
Nsba(ibuftoken
BufToken
p3806
(dp3807
g5
I4
sg6
S'certainly'
p3808
sg8
S'O'
sg9
S'RB'
p3809
sg11
S'certainly'
p3810
sg13
Nsba(ibuftoken
BufToken
p3811
(dp3812
g5
I5
sg6
S'very'
p3813
sg8
S'O'
sg9
S'RB'
p3814
sg11
S'very'
p3815
sg13
Nsba(ibuftoken
BufToken
p3816
(dp3817
g5
I6
sg6
S'much'
p3818
sg8
S'O'
sg9
S'RB'
p3819
sg11
S'much'
p3820
sg13
Nsba(ibuftoken
BufToken
p3821
(dp3822
g5
I7
sg6
S'less'
p3823
sg8
S'O'
sg9
S'JJR'
p3824
sg11
S'less'
p3825
sg13
Nsba(ibuftoken
BufToken
p3826
(dp3827
g5
I8
sg6
S'charming'
p3828
sg8
S'O'
sg9
S'JJ'
p3829
sg11
S'charming'
p3830
sg13
Nsba(ibuftoken
BufToken
p3831
(dp3832
g5
I9
sg6
S'than'
p3833
sg8
S'O'
sg9
S'IN'
p3834
sg11
S'than'
p3835
sg13
Nsba(ibuftoken
BufToken
p3836
(dp3837
g5
I10
sg6
S'its'
p3838
sg8
S'O'
sg9
S'PRP$'
p3839
sg11
S'its'
p3840
sg13
Nsba(ibuftoken
BufToken
p3841
(dp3842
g5
I11
sg6
S'model'
p3843
sg8
S'O'
sg9
S'NN'
p3844
sg11
S'model'
p3845
sg13
Nsba(ibuftoken
BufToken
p3846
(dp3847
g5
I12
sg6
S'.'
sg8
S'O'
sg9
S'.'
sg11
S'.'
sg13
Nsbaa(lp3848
(ibuftoken
BufToken
p3849
(dp3850
g5
I0
sg6
S'That'
p3851
sg8
S'O'
sg9
S'DT'
p3852
sg11
S'that'
p3853
sg13
Nsba(ibuftoken
BufToken
p3854
(dp3855
g5
I1
sg6
S','
sg8
S'O'
sg9
S','
sg11
S','
sg13
Nsba(ibuftoken
BufToken
p3856
(dp3857
g5
I2
sg6
S'however'
p3858
sg8
S'O'
sg9
S'RB'
p3859
sg11
S'however'
p3860
sg13
Nsba(ibuftoken
BufToken
p3861
(dp3862
g5
I3
sg6
S','
sg8
S'O'
sg9
S','
sg11
S','
sg13
Nsba(ibuftoken
BufToken
p3863
(dp3864
g5
I4
sg6
S'is'
p3865
sg8
S'O'
sg9
S'VBZ'
p3866
sg11
S'be'
p3867
sg13
Nsba(ibuftoken
BufToken
p3868
(dp3869
g5
I5
sg6
S'not'
p3870
sg8
S'O'
sg9
S'RB'
p3871
sg11
S'not'
p3872
sg13
Nsba(ibuftoken
BufToken
p3873
(dp3874
g5
I6
sg6
S'my'
p3875
sg8
S'O'
sg9
S'PRP$'
p3876
sg11
S'my'
p3877
sg13
Nsba(ibuftoken
BufToken
p3878
(dp3879
g5
I7
sg6
S'fault'
p3880
sg8
S'O'
sg9
S'NN'
p3881
sg11
S'fault'
p3882
sg13
Nsba(ibuftoken
BufToken
p3883
(dp3884
g5
I8
sg6
S'.'
sg8
S'O'
sg9
S'.'
sg11
S'.'
sg13
Nsbaa(lp3885
(ibuftoken
BufToken
p3886
(dp3887
g5
I0
sg6
S'The'
p3888
sg8
S'O'
sg9
S'DT'
p3889
sg11
S'the'
p3890
sg13
Nsba(ibuftoken
BufToken
p3891
(dp3892
g5
I1
sg6
S'grown'
p3893
sg8
S'O'
sg9
S'JJ'
p3894
sg11
S'grown'
p3895
sg13
Nsba(ibuftoken
BufToken
p3896
(dp3897
g5
I2
sg6
S'-'
sg8
S'O'
sg9
S':'
sg11
S'-'
sg13
Nsba(ibuftoken
BufToken
p3898
(dp3899
g5
I3
sg6
S'ups'
p3900
sg8
S'O'
sg9
S'NNS'
p3901
sg11
S'up'
p3902
sg13
Nsba(ibuftoken
BufToken
p3903
(dp3904
g5
I4
sg6
S'discouraged'
p3905
sg8
S'O'
sg9
S'VBD'
p3906
sg11
S'discourage'
p3907
sg13
Nsba(ibuftoken
BufToken
p3908
(dp3909
g5
I5
sg6
S'me'
p3910
sg8
S'O'
sg9
S'PRP'
p3911
sg11
S'I'
sg13
Nsba(ibuftoken
BufToken
p3912
(dp3913
g5
I6
sg6
S'in'
p3914
sg8
S'O'
sg9
S'IN'
p3915
sg11
S'in'
p3916
sg13
Nsba(ibuftoken
BufToken
p3917
(dp3918
g5
I7
sg6
S'my'
p3919
sg8
S'O'
sg9
S'PRP$'
p3920
sg11
S'my'
p3921
sg13
Nsba(ibuftoken
BufToken
p3922
(dp3923
g5
I8
sg6
S'painter'
p3924
sg8
S'O'
sg9
S'NN'
p3925
sg11
S'painter'
p3926
sg13
Nsba(ibuftoken
BufToken
p3927
(dp3928
g5
I9
sg6
S"'s"
p3929
sg8
S'O'
sg9
S'POS'
p3930
sg11
S"'s"
p3931
sg13
Nsba(ibuftoken
BufToken
p3932
(dp3933
g5
I10
sg6
S'career'
p3934
sg8
S'O'
sg9
S'NN'
p3935
sg11
S'career'
p3936
sg13
Nsba(ibuftoken
BufToken
p3937
(dp3938
g5
I11
sg6
S'when'
p3939
sg8
S'O'
sg9
S'WRB'
p3940
sg11
S'when'
p3941
sg13
Nsba(ibuftoken
BufToken
p3942
(dp3943
g5
I12
sg6
S'I'
sg8
S'O'
sg9
S'PRP'
p3944
sg11
S'I'
sg13
Nsba(ibuftoken
BufToken
p3945
(dp3946
g5
I13
sg6
S'was'
p3947
sg8
S'O'
sg9
S'VBD'
p3948
sg11
S'be'
p3949
sg13
Nsba(ibuftoken
BufToken
p3950
(dp3951
g5
I14
sg6
S'six'
p3952
sg8
S'DURATION'
p3953
sg9
S'CD'
p3954
sg11
S'six'
p3955
sg13
Nsba(ibuftoken
BufToken
p3956
(dp3957
g5
I15
sg6
S'years'
p3958
sg8
S'DURATION'
p3959
sg9
S'NNS'
p3960
sg11
S'year'
p3961
sg13
Nsba(ibuftoken
BufToken
p3962
(dp3963
g5
I16
sg6
S'old'
p3964
sg8
S'DURATION'
p3965
sg9
S'JJ'
p3966
sg11
S'old'
p3967
sg13
Nsba(ibuftoken
BufToken
p3968
(dp3969
g5
I17
sg6
S','
sg8
S'O'
sg9
S','
sg11
S','
sg13
Nsba(ibuftoken
BufToken
p3970
(dp3971
g5
I18
sg6
S'and'
p3972
sg8
S'O'
sg9
S'CC'
p3973
sg11
S'and'
p3974
sg13
Nsba(ibuftoken
BufToken
p3975
(dp3976
g5
I19
sg6
S'I'
sg8
S'O'
sg9
S'PRP'
p3977
sg11
S'I'
sg13
Nsba(ibuftoken
BufToken
p3978
(dp3979
g5
I20
sg6
S'never'
p3980
sg8
S'O'
sg9
S'RB'
p3981
sg11
S'never'
p3982
sg13
Nsba(ibuftoken
BufToken
p3983
(dp3984
g5
I21
sg6
S'learned'
p3985
sg8
S'O'
sg9
S'VBD'
p3986
sg11
S'learn'
p3987
sg13
Nsba(ibuftoken
BufToken
p3988
(dp3989
g5
I22
sg6
S'to'
p3990
sg8
S'O'
sg9
S'TO'
p3991
sg11
S'to'
p3992
sg13
Nsba(ibuftoken
BufToken
p3993
(dp3994
g5
I23
sg6
S'draw'
p3995
sg8
S'O'
sg9
S'VB'
p3996
sg11
S'draw'
p3997
sg13
Nsba(ibuftoken
BufToken
p3998
(dp3999
g5
I24
sg6
S'anything'
p4000
sg8
S'O'
sg9
S'NN'
p4001
sg11
S'anything'
p4002
sg13
Nsba(ibuftoken
BufToken
p4003
(dp4004
g5
I25
sg6
S','
sg8
S'O'
sg9
S','
sg11
S','
sg13
Nsba(ibuftoken
BufToken
p4005
(dp4006
g5
I26
sg6
S'except'
p4007
sg8
S'O'
sg9
S'IN'
p4008
sg11
S'except'
p4009
sg13
Nsba(ibuftoken
BufToken
p4010
(dp4011
g5
I27
sg6
S'boas'
p4012
sg8
S'O'
sg9
S'NNS'
p4013
sg11
S'boa'
p4014
sg13
Nsba(ibuftoken
BufToken
p4015
(dp4016
g5
I28
sg6
S'from'
p4017
sg8
S'O'
sg9
S'IN'
p4018
sg11
S'from'
p4019
sg13
Nsba(ibuftoken
BufToken
p4020
(dp4021
g5
I29
sg6
S'the'
p4022
sg8
S'O'
sg9
S'DT'
p4023
sg11
S'the'
p4024
sg13
Nsba(ibuftoken
BufToken
p4025
(dp4026
g5
I30
sg6
S'outside'
p4027
sg8
S'O'
sg9
S'JJ'
p4028
sg11
S'outside'
p4029
sg13
Nsba(ibuftoken
BufToken
p4030
(dp4031
g5
I31
sg6
S'and'
p4032
sg8
S'O'
sg9
S'CC'
p4033
sg11
S'and'
p4034
sg13
Nsba(ibuftoken
BufToken
p4035
(dp4036
g5
I32
sg6
S'boas'
p4037
sg8
S'O'
sg9
S'NNS'
p4038
sg11
S'boa'
p4039
sg13
Nsba(ibuftoken
BufToken
p4040
(dp4041
g5
I33
sg6
S'from'
p4042
sg8
S'O'
sg9
S'IN'
p4043
sg11
S'from'
p4044
sg13
Nsba(ibuftoken
BufToken
p4045
(dp4046
g5
I34
sg6
S'the'
p4047
sg8
S'O'
sg9
S'DT'
p4048
sg11
S'the'
p4049
sg13
Nsba(ibuftoken
BufToken
p4050
(dp4051
g5
I35
sg6
S'inside'
p4052
sg8
S'O'
sg9
S'NN'
p4053
sg11
S'inside'
p4054
sg13
Nsba(ibuftoken
BufToken
p4055
(dp4056
g5
I36
sg6
S'.'
sg8
S'O'
sg9
S'.'
sg11
S'.'
sg13
Nsbaa(lp4057
(ibuftoken
BufToken
p4058
(dp4059
g5
I0
sg6
S'Now'
p4060
sg8
S'DATE'
p4061
sg9
S'RB'
p4062
sg11
S'now'
p4063
sg13
Nsba(ibuftoken
BufToken
p4064
(dp4065
g5
I1
sg6
S'I'
sg8
S'O'
sg9
S'PRP'
p4066
sg11
S'I'
sg13
Nsba(ibuftoken
BufToken
p4067
(dp4068
g5
I2
sg6
S'stared'
p4069
sg8
S'O'
sg9
S'VBD'
p4070
sg11
S'stare'
p4071
sg13
Nsba(ibuftoken
BufToken
p4072
(dp4073
g5
I3
sg6
S'at'
p4074
sg8
S'O'
sg9
S'IN'
p4075
sg11
S'at'
p4076
sg13
Nsba(ibuftoken
BufToken
p4077
(dp4078
g5
I4
sg6
S'this'
p4079
sg8
S'O'
sg9
S'DT'
p4080
sg11
S'this'
p4081
sg13
Nsba(ibuftoken
BufToken
p4082
(dp4083
g5
I5
sg6
S'sudden'
p4084
sg8
S'O'
sg9
S'JJ'
p4085
sg11
S'sudden'
p4086
sg13
Nsba(ibuftoken
BufToken
p4087
(dp4088
g5
I6
sg6
S'apparition'
p4089
sg8
S'O'
sg9
S'NN'
p4090
sg11
S'apparition'
p4091
sg13
Nsba(ibuftoken
BufToken
p4092
(dp4093
g5
I7
sg6
S'with'
p4094
sg8
S'O'
sg9
S'IN'
p4095
sg11
S'with'
p4096
sg13
Nsba(ibuftoken
BufToken
p4097
(dp4098
g5
I8
sg6
S'my'
p4099
sg8
S'O'
sg9
S'PRP$'
p4100
sg11
S'my'
p4101
sg13
Nsba(ibuftoken
BufToken
p4102
(dp4103
g5
I9
sg6
S'eyes'
p4104
sg8
S'O'
sg9
S'NNS'
p4105
sg11
S'eye'
p4106
sg13
Nsba(ibuftoken
BufToken
p4107
(dp4108
g5
I10
sg6
S'fairly'
p4109
sg8
S'O'
sg9
S'RB'
p4110
sg11
S'fairly'
p4111
sg13
Nsba(ibuftoken
BufToken
p4112
(dp4113
g5
I11
sg6
S'starting'
p4114
sg8
S'O'
sg9
S'VBG'
p4115
sg11
S'start'
p4116
sg13
Nsba(ibuftoken
BufToken
p4117
(dp4118
g5
I12
sg6
S'out'
p4119
sg8
S'O'
sg9
S'IN'
p4120
sg11
S'out'
p4121
sg13
Nsba(ibuftoken
BufToken
p4122
(dp4123
g5
I13
sg6
S'of'
p4124
sg8
S'O'
sg9
S'IN'
p4125
sg11
S'of'
p4126
sg13
Nsba(ibuftoken
BufToken
p4127
(dp4128
g5
I14
sg6
S'my'
p4129
sg8
S'O'
sg9
S'PRP$'
p4130
sg11
S'my'
p4131
sg13
Nsba(ibuftoken
BufToken
p4132
(dp4133
g5
I15
sg6
S'head'
p4134
sg8
S'O'
sg9
S'NN'
p4135
sg11
S'head'
p4136
sg13
Nsba(ibuftoken
BufToken
p4137
(dp4138
g5
I16
sg6
S'in'
p4139
sg8
S'O'
sg9
S'IN'
p4140
sg11
S'in'
p4141
sg13
Nsba(ibuftoken
BufToken
p4142
(dp4143
g5
I17
sg6
S'astonishment'
p4144
sg8
S'O'
sg9
S'NN'
p4145
sg11
S'astonishment'
p4146
sg13
Nsba(ibuftoken
BufToken
p4147
(dp4148
g5
I18
sg6
S'.'
sg8
S'O'
sg9
S'.'
sg11
S'.'
sg13
Nsbaa(lp4149
(ibuftoken
BufToken
p4150
(dp4151
g5
I0
sg6
S'Remember'
p4152
sg8
S'O'
sg9
S'VB'
p4153
sg11
S'remember'
p4154
sg13
Nsba(ibuftoken
BufToken
p4155
(dp4156
g5
I1
sg6
S','
sg8
S'O'
sg9
S','
sg11
S','
sg13
Nsba(ibuftoken
BufToken
p4157
(dp4158
g5
I2
sg6
S'I'
sg8
S'O'
sg9
S'PRP'
p4159
sg11
S'I'
sg13
Nsba(ibuftoken
BufToken
p4160
(dp4161
g5
I3
sg6
S'had'
p4162
sg8
S'O'
sg9
S'VBD'
p4163
sg11
S'have'
p4164
sg13
Nsba(ibuftoken
BufToken
p4165
(dp4166
g5
I4
sg6
S'crashed'
p4167
sg8
S'O'
sg9
S'VBN'
p4168
sg11
S'crash'
p4169
sg13
Nsba(ibuftoken
BufToken
p4170
(dp4171
g5
I5
sg6
S'in'
p4172
sg8
S'O'
sg9
S'IN'
p4173
sg11
S'in'
p4174
sg13
Nsba(ibuftoken
BufToken
p4175
(dp4176
g5
I6
sg6
S'the'
p4177
sg8
S'O'
sg9
S'DT'
p4178
sg11
S'the'
p4179
sg13
Nsba(ibuftoken
BufToken
p4180
(dp4181
g5
I7
sg6
S'desert'
p4182
sg8
S'O'
sg9
S'NN'
p4183
sg11
S'desert'
p4184
sg13
Nsba(ibuftoken
BufToken
p4185
(dp4186
g5
I8
sg6
S'a'
sg8
S'O'
sg9
S'DT'
p4187
sg11
S'a'
sg13
Nsba(ibuftoken
BufToken
p4188
(dp4189
g5
I9
sg6
S'1000'
p4190
sg8
S'NUMBER'
p4191
sg9
S'CD'
p4192
sg11
S'thousand'
p4193
sg13
Nsba(ibuftoken
BufToken
p4194
(dp4195
g5
I10
sg6
S'miles'
p4196
sg8
S'O'
sg9
S'NNS'
p4197
sg11
S'mile'
p4198
sg13
Nsba(ibuftoken
BufToken
p4199
(dp4200
g5
I11
sg6
S'from'
p4201
sg8
S'O'
sg9
S'IN'
p4202
sg11
S'from'
p4203
sg13
Nsba(ibuftoken
BufToken
p4204
(dp4205
g5
I12
sg6
S'any'
p4206
sg8
S'O'
sg9
S'DT'
p4207
sg11
S'any'
p4208
sg13
Nsba(ibuftoken
BufToken
p4209
(dp4210
g5
I13
sg6
S'inhabited'
p4211
sg8
S'O'
sg9
S'VBN'
p4212
sg11
S'inhabit'
p4213
sg13
Nsba(ibuftoken
BufToken
p4214
(dp4215
g5
I14
sg6
S'region'
p4216
sg8
S'O'
sg9
S'NN'
p4217
sg11
S'region'
p4218
sg13
Nsba(ibuftoken
BufToken
p4219
(dp4220
g5
I15
sg6
S'.'
sg8
S'O'
sg9
S'.'
sg11
S'.'
sg13
Nsbaa(lp4221
(ibuftoken
BufToken
p4222
(dp4223
g5
I0
sg6
S'And'
p4224
sg8
S'O'
sg9
S'CC'
p4225
sg11
S'and'
p4226
sg13
Nsba(ibuftoken
BufToken
p4227
(dp4228
g5
I1
sg6
S'yet'
p4229
sg8
S'O'
sg9
S'RB'
p4230
sg11
S'yet'
p4231
sg13
Nsba(ibuftoken
BufToken
p4232
(dp4233
g5
I2
sg6
S'my'
p4234
sg8
S'O'
sg9
S'PRP$'
p4235
sg11
S'my'
p4236
sg13
Nsba(ibuftoken
BufToken
p4237
(dp4238
g5
I3
sg6
S'little'
p4239
sg8
S'O'
sg9
S'JJ'
p4240
sg11
S'little'
p4241
sg13
Nsba(ibuftoken
BufToken
p4242
(dp4243
g5
I4
sg6
S'man'
p4244
sg8
S'O'
sg9
S'NN'
p4245
sg11
S'man'
p4246
sg13
Nsba(ibuftoken
BufToken
p4247
(dp4248
g5
I5
sg6
S'seemed'
p4249
sg8
S'O'
sg9
S'VBD'
p4250
sg11
S'seem'
p4251
sg13
Nsba(ibuftoken
BufToken
p4252
(dp4253
g5
I6
sg6
S'neither'
p4254
sg8
S'O'
sg9
S'CC'
p4255
sg11
S'neither'
p4256
sg13
Nsba(ibuftoken
BufToken
p4257
(dp4258
g5
I7
sg6
S'to'
p4259
sg8
S'O'
sg9
S'TO'
p4260
sg11
S'to'
p4261
sg13
Nsba(ibuftoken
BufToken
p4262
(dp4263
g5
I8
sg6
S'be'
p4264
sg8
S'O'
sg9
S'VB'
p4265
sg11
S'be'
p4266
sg13
Nsba(ibuftoken
BufToken
p4267
(dp4268
g5
I9
sg6
S'straying'
p4269
sg8
S'O'
sg9
S'VBG'
p4270
sg11
S'stray'
p4271
sg13
Nsba(ibuftoken
BufToken
p4272
(dp4273
g5
I10
sg6
S'uncertainly'
p4274
sg8
S'O'
sg9
S'RB'
p4275
sg11
S'uncertainly'
p4276
sg13
Nsba(ibuftoken
BufToken
p4277
(dp4278
g5
I11
sg6
S'among'
p4279
sg8
S'O'
sg9
S'IN'
p4280
sg11
S'among'
p4281
sg13
Nsba(ibuftoken
BufToken
p4282
(dp4283
g5
I12
sg6
S'the'
p4284
sg8
S'O'
sg9
S'DT'
p4285
sg11
S'the'
p4286
sg13
Nsba(ibuftoken
BufToken
p4287
(dp4288
g5
I13
sg6
S'sands'
p4289
sg8
S'O'
sg9
S'NNS'
p4290
sg11
S'sand'
p4291
sg13
Nsba(ibuftoken
BufToken
p4292
(dp4293
g5
I14
sg6
S','
sg8
S'O'
sg9
S','
sg11
S','
sg13
Nsba(ibuftoken
BufToken
p4294
(dp4295
g5
I15
sg6
S'nor'
p4296
sg8
S'O'
sg9
S'CC'
p4297
sg11
S'nor'
p4298
sg13
Nsba(ibuftoken
BufToken
p4299
(dp4300
g5
I16
sg6
S'to'
p4301
sg8
S'O'
sg9
S'TO'
p4302
sg11
S'to'
p4303
sg13
Nsba(ibuftoken
BufToken
p4304
(dp4305
g5
I17
sg6
S'be'
p4306
sg8
S'O'
sg9
S'VB'
p4307
sg11
S'be'
p4308
sg13
Nsba(ibuftoken
BufToken
p4309
(dp4310
g5
I18
sg6
S'fainting'
p4311
sg8
S'O'
sg9
S'VBG'
p4312
sg11
S'faint'
p4313
sg13
Nsba(ibuftoken
BufToken
p4314
(dp4315
g5
I19
sg6
S'from'
p4316
sg8
S'O'
sg9
S'IN'
p4317
sg11
S'from'
p4318
sg13
Nsba(ibuftoken
BufToken
p4319
(dp4320
g5
I20
sg6
S'fatigue'
p4321
sg8
S'O'
sg9
S'NN'
p4322
sg11
S'fatigue'
p4323
sg13
Nsba(ibuftoken
BufToken
p4324
(dp4325
g5
I21
sg6
S'or'
p4326
sg8
S'O'
sg9
S'CC'
p4327
sg11
S'or'
p4328
sg13
Nsba(ibuftoken
BufToken
p4329
(dp4330
g5
I22
sg6
S'hunger'
p4331
sg8
S'O'
sg9
S'NN'
p4332
sg11
S'hunger'
p4333
sg13
Nsba(ibuftoken
BufToken
p4334
(dp4335
g5
I23
sg6
S'or'
p4336
sg8
S'O'
sg9
S'CC'
p4337
sg11
S'or'
p4338
sg13
Nsba(ibuftoken
BufToken
p4339
(dp4340
g5
I24
sg6
S'thirst'
p4341
sg8
S'O'
sg9
S'NN'
p4342
sg11
S'thirst'
p4343
sg13
Nsba(ibuftoken
BufToken
p4344
(dp4345
g5
I25
sg6
S'or'
p4346
sg8
S'O'
sg9
S'CC'
p4347
sg11
S'or'
p4348
sg13
Nsba(ibuftoken
BufToken
p4349
(dp4350
g5
I26
sg6
S'fear'
p4351
sg8
S'O'
sg9
S'NN'
p4352
sg11
S'fear'
p4353
sg13
Nsba(ibuftoken
BufToken
p4354
(dp4355
g5
I27
sg6
S'.'
sg8
S'O'
sg9
S'.'
sg11
S'.'
sg13
Nsbaa(lp4356
(ibuftoken
BufToken
p4357
(dp4358
g5
I0
sg6
S'Nothing'
p4359
sg8
S'O'
sg9
S'NN'
p4360
sg11
S'nothing'
p4361
sg13
Nsba(ibuftoken
BufToken
p4362
(dp4363
g5
I1
sg6
S'about'
p4364
sg8
S'O'
sg9
S'IN'
p4365
sg11
S'about'
p4366
sg13
Nsba(ibuftoken
BufToken
p4367
(dp4368
g5
I2
sg6
S'him'
p4369
sg8
S'O'
sg9
S'PRP'
p4370
sg11
S'he'
p4371
sg13
Nsba(ibuftoken
BufToken
p4372
(dp4373
g5
I3
sg6
S'gave'
p4374
sg8
S'O'
sg9
S'VBD'
p4375
sg11
S'give'
p4376
sg13
Nsba(ibuftoken
BufToken
p4377
(dp4378
g5
I4
sg6
S'any'
p4379
sg8
S'O'
sg9
S'DT'
p4380
sg11
S'any'
p4381
sg13
Nsba(ibuftoken
BufToken
p4382
(dp4383
g5
I5
sg6
S'suggestion'
p4384
sg8
S'O'
sg9
S'NN'
p4385
sg11
S'suggestion'
p4386
sg13
Nsba(ibuftoken
BufToken
p4387
(dp4388
g5
I6
sg6
S'of'
p4389
sg8
S'O'
sg9
S'IN'
p4390
sg11
S'of'
p4391
sg13
Nsba(ibuftoken
BufToken
p4392
(dp4393
g5
I7
sg6
S'a'
sg8
S'O'
sg9
S'DT'
p4394
sg11
S'a'
sg13
Nsba(ibuftoken
BufToken
p4395
(dp4396
g5
I8
sg6
S'child'
p4397
sg8
S'O'
sg9
S'NN'
p4398
sg11
S'child'
p4399
sg13
Nsba(ibuftoken
BufToken
p4400
(dp4401
g5
I9
sg6
S'lost'
p4402
sg8
S'O'
sg9
S'VBN'
p4403
sg11
S'lose'
p4404
sg13
Nsba(ibuftoken
BufToken
p4405
(dp4406
g5
I10
sg6
S'in'
p4407
sg8
S'O'
sg9
S'IN'
p4408
sg11
S'in'
p4409
sg13
Nsba(ibuftoken
BufToken
p4410
(dp4411
g5
I11
sg6
S'the'
p4412
sg8
S'O'
sg9
S'DT'
p4413
sg11
S'the'
p4414
sg13
Nsba(ibuftoken
BufToken
p4415
(dp4416
g5
I12
sg6
S'middle'
p4417
sg8
S'O'
sg9
S'NN'
p4418
sg11
S'middle'
p4419
sg13
Nsba(ibuftoken
BufToken
p4420
(dp4421
g5
I13
sg6
S'of'
p4422
sg8
S'O'
sg9
S'IN'
p4423
sg11
S'of'
p4424
sg13
Nsba(ibuftoken
BufToken
p4425
(dp4426
g5
I14
sg6
S'the'
p4427
sg8
S'O'
sg9
S'DT'
p4428
sg11
S'the'
p4429
sg13
Nsba(ibuftoken
BufToken
p4430
(dp4431
g5
I15
sg6
S'desert'
p4432
sg8
S'O'
sg9
S'NN'
p4433
sg11
S'desert'
p4434
sg13
Nsba(ibuftoken
BufToken
p4435
(dp4436
g5
I16
sg6
S','
sg8
S'O'
sg9
S','
sg11
S','
sg13
Nsba(ibuftoken
BufToken
p4437
(dp4438
g5
I17
sg6
S'a'
sg8
S'O'
sg9
S'DT'
p4439
sg11
S'a'
sg13
Nsba(ibuftoken
BufToken
p4440
(dp4441
g5
I18
sg6
S'1000'
p4442
sg8
S'NUMBER'
p4443
sg9
S'CD'
p4444
sg11
S'thousand'
p4445
sg13
Nsba(ibuftoken
BufToken
p4446
(dp4447
g5
I19
sg6
S'miles'
p4448
sg8
S'O'
sg9
S'NNS'
p4449
sg11
S'mile'
p4450
sg13
Nsba(ibuftoken
BufToken
p4451
(dp4452
g5
I20
sg6
S'from'
p4453
sg8
S'O'
sg9
S'IN'
p4454
sg11
S'from'
p4455
sg13
Nsba(ibuftoken
BufToken
p4456
(dp4457
g5
I21
sg6
S'any'
p4458
sg8
S'O'
sg9
S'DT'
p4459
sg11
S'any'
p4460
sg13
Nsba(ibuftoken
BufToken
p4461
(dp4462
g5
I22
sg6
S'human'
p4463
sg8
S'O'
sg9
S'JJ'
p4464
sg11
S'human'
p4465
sg13
Nsba(ibuftoken
BufToken
p4466
(dp4467
g5
I23
sg6
S'habitation'
p4468
sg8
S'O'
sg9
S'NN'
p4469
sg11
S'habitation'
p4470
sg13
Nsba(ibuftoken
BufToken
p4471
(dp4472
g5
I24
sg6
S'.'
sg8
S'O'
sg9
S'.'
sg11
S'.'
sg13
Nsbaa(lp4473
(ibuftoken
BufToken
p4474
(dp4475
g5
I0
sg6
S'When'
p4476
sg8
S'O'
sg9
S'WRB'
p4477
sg11
S'when'
p4478
sg13
Nsba(ibuftoken
BufToken
p4479
(dp4480
g5
I1
sg6
S'at'
p4481
sg8
S'O'
sg9
S'IN'
p4482
sg11
S'at'
p4483
sg13
Nsba(ibuftoken
BufToken
p4484
(dp4485
g5
I2
sg6
S'last'
p4486
sg8
S'O'
sg9
S'JJ'
p4487
sg11
S'last'
p4488
sg13
Nsba(ibuftoken
BufToken
p4489
(dp4490
g5
I3
sg6
S'I'
sg8
S'O'
sg9
S'PRP'
p4491
sg11
S'I'
sg13
Nsba(ibuftoken
BufToken
p4492
(dp4493
g5
I4
sg6
S'was'
p4494
sg8
S'O'
sg9
S'VBD'
p4495
sg11
S'be'
p4496
sg13
Nsba(ibuftoken
BufToken
p4497
(dp4498
g5
I5
sg6
S'able'
p4499
sg8
S'O'
sg9
S'JJ'
p4500
sg11
S'able'
p4501
sg13
Nsba(ibuftoken
BufToken
p4502
(dp4503
g5
I6
sg6
S'to'
p4504
sg8
S'O'
sg9
S'TO'
p4505
sg11
S'to'
p4506
sg13
Nsba(ibuftoken
BufToken
p4507
(dp4508
g5
I7
sg6
S'speak'
p4509
sg8
S'O'
sg9
S'VB'
p4510
sg11
S'speak'
p4511
sg13
Nsba(ibuftoken
BufToken
p4512
(dp4513
g5
I8
sg6
S','
sg8
S'O'
sg9
S','
sg11
S','
sg13
Nsba(ibuftoken
BufToken
p4514
(dp4515
g5
I9
sg6
S'I'
sg8
S'O'
sg9
S'PRP'
p4516
sg11
S'I'
sg13
Nsba(ibuftoken
BufToken
p4517
(dp4518
g5
I10
sg6
S'said'
p4519
sg8
S'O'
sg9
S'VBD'
p4520
sg11
S'say'
p4521
sg13
Nsba(ibuftoken
BufToken
p4522
(dp4523
g5
I11
sg6
S'to'
p4524
sg8
S'O'
sg9
S'TO'
p4525
sg11
S'to'
p4526
sg13
Nsba(ibuftoken
BufToken
p4527
(dp4528
g5
I12
sg6
S'him'
p4529
sg8
S'O'
sg9
S'PRP'
p4530
sg11
S'he'
p4531
sg13
Nsba(ibuftoken
BufToken
p4532
(dp4533
g5
I13
sg6
S':'
sg8
S'O'
sg9
S':'
sg11
S':'
sg13
Nsba(ibuftoken
BufToken
p4534
(dp4535
g5
I14
sg6
S'"'
sg8
S'O'
sg9
S'``'
p4536
sg11
S'"'
sg13
Nsba(ibuftoken
BufToken
p4537
(dp4538
g5
I15
sg6
S'But'
p4539
sg8
S'O'
sg9
S'CC'
p4540
sg11
S'but'
p4541
sg13
Nsba(ibuftoken
BufToken
p4542
(dp4543
g5
I16
sg6
S'--'
p4544
sg8
S'O'
sg9
S':'
sg11
S'--'
p4545
sg13
Nsba(ibuftoken
BufToken
p4546
(dp4547
g5
I17
sg6
S'what'
p4548
sg8
S'O'
sg9
S'WP'
p4549
sg11
S'what'
p4550
sg13
Nsba(ibuftoken
BufToken
p4551
(dp4552
g5
I18
sg6
S'are'
p4553
sg8
S'O'
sg9
S'VBP'
p4554
sg11
S'be'
p4555
sg13
Nsba(ibuftoken
BufToken
p4556
(dp4557
g5
I19
sg6
S'you'
p4558
sg8
S'O'
sg9
S'PRP'
p4559
sg11
S'you'
p4560
sg13
Nsba(ibuftoken
BufToken
p4561
(dp4562
g5
I20
sg6
S'doing'
p4563
sg8
S'O'
sg9
S'VBG'
p4564
sg11
S'do'
p4565
sg13
Nsba(ibuftoken
BufToken
p4566
(dp4567
g5
I21
sg6
S'here'
p4568
sg8
S'O'
sg9
S'RB'
p4569
sg11
S'here'
p4570
sg13
Nsba(ibuftoken
BufToken
p4571
(dp4572
g5
I22
sg6
S'?'
sg8
S'O'
sg9
S'.'
sg11
S'?'
sg13
Nsba(ibuftoken
BufToken
p4573
(dp4574
g5
I23
sg6
S'"'
sg8
S'O'
sg9
S"''"
p4575
sg11
S'"'
sg13
Nsbaa(lp4576
(ibuftoken
BufToken
p4577
(dp4578
g5
I0
sg6
S'And'
p4579
sg8
S'O'
sg9
S'CC'
p4580
sg11
S'and'
p4581
sg13
Nsba(ibuftoken
BufToken
p4582
(dp4583
g5
I1
sg6
S'in'
p4584
sg8
S'O'
sg9
S'IN'
p4585
sg11
S'in'
p4586
sg13
Nsba(ibuftoken
BufToken
p4587
(dp4588
g5
I2
sg6
S'answer'
p4589
sg8
S'O'
sg9
S'NN'
p4590
sg11
S'answer'
p4591
sg13
Nsba(ibuftoken
BufToken
p4592
(dp4593
g5
I3
sg6
S'he'
p4594
sg8
S'O'
sg9
S'PRP'
p4595
sg11
S'he'
p4596
sg13
Nsba(ibuftoken
BufToken
p4597
(dp4598
g5
I4
sg6
S'repeated'
p4599
sg8
S'O'
sg9
S'VBD'
p4600
sg11
S'repeat'
p4601
sg13
Nsba(ibuftoken
BufToken
p4602
(dp4603
g5
I5
sg6
S','
sg8
S'O'
sg9
S','
sg11
S','
sg13
Nsba(ibuftoken
BufToken
p4604
(dp4605
g5
I6
sg6
S'very'
p4606
sg8
S'O'
sg9
S'RB'
p4607
sg11
S'very'
p4608
sg13
Nsba(ibuftoken
BufToken
p4609
(dp4610
g5
I7
sg6
S'slowly'
p4611
sg8
S'O'
sg9
S'RB'
p4612
sg11
S'slowly'
p4613
sg13
Nsba(ibuftoken
BufToken
p4614
(dp4615
g5
I8
sg6
S','
sg8
S'O'
sg9
S','
sg11
S','
sg13
Nsba(ibuftoken
BufToken
p4616
(dp4617
g5
I9
sg6
S'as'
p4618
sg8
S'O'
sg9
S'IN'
p4619
sg11
S'as'
p4620
sg13
Nsba(ibuftoken
BufToken
p4621
(dp4622
g5
I10
sg6
S'if'
p4623
sg8
S'O'
sg9
S'IN'
p4624
sg11
S'if'
p4625
sg13
Nsba(ibuftoken
BufToken
p4626
(dp4627
g5
I11
sg6
S'he'
p4628
sg8
S'O'
sg9
S'PRP'
p4629
sg11
S'he'
p4630
sg13
Nsba(ibuftoken
BufToken
p4631
(dp4632
g5
I12
sg6
S'were'
p4633
sg8
S'O'
sg9
S'VBD'
p4634
sg11
S'be'
p4635
sg13
Nsba(ibuftoken
BufToken
p4636
(dp4637
g5
I13
sg6
S'speaking'
p4638
sg8
S'O'
sg9
S'VBG'
p4639
sg11
S'speak'
p4640
sg13
Nsba(ibuftoken
BufToken
p4641
(dp4642
g5
I14
sg6
S'of'
p4643
sg8
S'O'
sg9
S'IN'
p4644
sg11
S'of'
p4645
sg13
Nsba(ibuftoken
BufToken
p4646
(dp4647
g5
I15
sg6
S'a'
sg8
S'O'
sg9
S'DT'
p4648
sg11
S'a'
sg13
Nsba(ibuftoken
BufToken
p4649
(dp4650
g5
I16
sg6
S'matter'
p4651
sg8
S'O'
sg9
S'NN'
p4652
sg11
S'matter'
p4653
sg13
Nsba(ibuftoken
BufToken
p4654
(dp4655
g5
I17
sg6
S'of'
p4656
sg8
S'O'
sg9
S'IN'
p4657
sg11
S'of'
p4658
sg13
Nsba(ibuftoken
BufToken
p4659
(dp4660
g5
I18
sg6
S'great'
p4661
sg8
S'O'
sg9
S'JJ'
p4662
sg11
S'great'
p4663
sg13
Nsba(ibuftoken
BufToken
p4664
(dp4665
g5
I19
sg6
S'consequence'
p4666
sg8
S'O'
sg9
S'NN'
p4667
sg11
S'consequence'
p4668
sg13
Nsba(ibuftoken
BufToken
p4669
(dp4670
g5
I20
sg6
S':'
sg8
S'O'
sg9
S':'
sg11
S':'
sg13
Nsba(ibuftoken
BufToken
p4671
(dp4672
g5
I21
sg6
S'"'
sg8
S'O'
sg9
S'``'
p4673
sg11
S'"'
sg13
Nsba(ibuftoken
BufToken
p4674
(dp4675
g5
I22
sg6
S'If'
p4676
sg8
S'O'
sg9
S'IN'
p4677
sg11
S'if'
p4678
sg13
Nsba(ibuftoken
BufToken
p4679
(dp4680
g5
I23
sg6
S'you'
p4681
sg8
S'O'
sg9
S'PRP'
p4682
sg11
S'you'
p4683
sg13
Nsba(ibuftoken
BufToken
p4684
(dp4685
g5
I24
sg6
S'please'
p4686
sg8
S'O'
sg9
S'VB'
p4687
sg11
S'please'
p4688
sg13
Nsba(ibuftoken
BufToken
p4689
(dp4690
g5
I25
sg6
S'--'
p4691
sg8
S'O'
sg9
S':'
sg11
S'--'
p4692
sg13
Nsba(ibuftoken
BufToken
p4693
(dp4694
g5
I26
sg6
S'draw'
p4695
sg8
S'O'
sg9
S'VB'
p4696
sg11
S'draw'
p4697
sg13
Nsba(ibuftoken
BufToken
p4698
(dp4699
g5
I27
sg6
S'me'
p4700
sg8
S'O'
sg9
S'PRP'
p4701
sg11
S'I'
sg13
Nsba(ibuftoken
BufToken
p4702
(dp4703
g5
I28
sg6
S'a'
sg8
S'O'
sg9
S'DT'
p4704
sg11
S'a'
sg13
Nsba(ibuftoken
BufToken
p4705
(dp4706
g5
I29
sg6
S'sheep'
p4707
sg8
S'O'
sg9
S'NN'
p4708
sg11
S'sheep'
p4709
sg13
Nsba(ibuftoken
BufToken
p4710
(dp4711
g5
I30
sg6
S'...'
p4712
sg8
S'O'
sg9
S':'
sg11
S'...'
p4713
sg13
Nsba(ibuftoken
BufToken
p4714
(dp4715
g5
I31
sg6
S'"'
sg8
S'O'
sg9
S"''"
p4716
sg11
S'"'
sg13
Nsbaa(lp4717
(ibuftoken
BufToken
p4718
(dp4719
g5
I0
sg6
S'When'
p4720
sg8
S'O'
sg9
S'WRB'
p4721
sg11
S'when'
p4722
sg13
Nsba(ibuftoken
BufToken
p4723
(dp4724
g5
I1
sg6
S'a'
sg8
S'O'
sg9
S'DT'
p4725
sg11
S'a'
sg13
Nsba(ibuftoken
BufToken
p4726
(dp4727
g5
I2
sg6
S'mystery'
p4728
sg8
S'O'
sg9
S'NN'
p4729
sg11
S'mystery'
p4730
sg13
Nsba(ibuftoken
BufToken
p4731
(dp4732
g5
I3
sg6
S'is'
p4733
sg8
S'O'
sg9
S'VBZ'
p4734
sg11
S'be'
p4735
sg13
Nsba(ibuftoken
BufToken
p4736
(dp4737
g5
I4
sg6
S'too'
p4738
sg8
S'O'
sg9
S'RB'
p4739
sg11
S'too'
p4740
sg13
Nsba(ibuftoken
BufToken
p4741
(dp4742
g5
I5
sg6
S'overpowering'
p4743
sg8
S'O'
sg9
S'JJ'
p4744
sg11
S'overpowering'
p4745
sg13
Nsba(ibuftoken
BufToken
p4746
(dp4747
g5
I6
sg6
S','
sg8
S'O'
sg9
S','
sg11
S','
sg13
Nsba(ibuftoken
BufToken
p4748
(dp4749
g5
I7
sg6
S'1'
sg8
S'NUMBER'
p4750
sg9
S'CD'
p4751
sg11
S'one'
p4752
sg13
Nsba(ibuftoken
BufToken
p4753
(dp4754
g5
I8
sg6
S'dare'
p4755
sg8
S'O'
sg9
S'MD'
p4756
sg11
S'dare'
p4757
sg13
Nsba(ibuftoken
BufToken
p4758
(dp4759
g5
I9
sg6
S'not'
p4760
sg8
S'O'
sg9
S'RB'
p4761
sg11
S'not'
p4762
sg13
Nsba(ibuftoken
BufToken
p4763
(dp4764
g5
I10
sg6
S'disobey'
p4765
sg8
S'O'
sg9
S'VB'
p4766
sg11
S'disobey'
p4767
sg13
Nsba(ibuftoken
BufToken
p4768
(dp4769
g5
I11
sg6
S'.'
sg8
S'O'
sg9
S'.'
sg11
S'.'
sg13
Nsbaa(lp4770
(ibuftoken
BufToken
p4771
(dp4772
g5
I0
sg6
S'Absurd'
p4773
sg8
S'O'
sg9
S'JJ'
p4774
sg11
S'absurd'
p4775
sg13
Nsba(ibuftoken
BufToken
p4776
(dp4777
g5
I1
sg6
S'as'
p4778
sg8
S'O'
sg9
S'IN'
p4779
sg11
S'as'
p4780
sg13
Nsba(ibuftoken
BufToken
p4781
(dp4782
g5
I2
sg6
S'it'
p4783
sg8
S'O'
sg9
S'PRP'
p4784
sg11
S'it'
p4785
sg13
Nsba(ibuftoken
BufToken
p4786
(dp4787
g5
I3
sg6
S'might'
p4788
sg8
S'O'
sg9
S'MD'
p4789
sg11
S'might'
p4790
sg13
Nsba(ibuftoken
BufToken
p4791
(dp4792
g5
I4
sg6
S'seem'
p4793
sg8
S'O'
sg9
S'VB'
p4794
sg11
S'seem'
p4795
sg13
Nsba(ibuftoken
BufToken
p4796
(dp4797
g5
I5
sg6
S'to'
p4798
sg8
S'O'
sg9
S'TO'
p4799
sg11
S'to'
p4800
sg13
Nsba(ibuftoken
BufToken
p4801
(dp4802
g5
I6
sg6
S'me'
p4803
sg8
S'O'
sg9
S'PRP'
p4804
sg11
S'I'
sg13
Nsba(ibuftoken
BufToken
p4805
(dp4806
g5
I7
sg6
S','
sg8
S'O'
sg9
S','
sg11
S','
sg13
Nsba(ibuftoken
BufToken
p4807
(dp4808
g5
I8
sg6
S'a'
sg8
S'O'
sg9
S'DT'
p4809
sg11
S'a'
sg13
Nsba(ibuftoken
BufToken
p4810
(dp4811
g5
I9
sg6
S'1000'
p4812
sg8
S'NUMBER'
p4813
sg9
S'CD'
p4814
sg11
S'thousand'
p4815
sg13
Nsba(ibuftoken
BufToken
p4816
(dp4817
g5
I10
sg6
S'miles'
p4818
sg8
S'O'
sg9
S'NNS'
p4819
sg11
S'mile'
p4820
sg13
Nsba(ibuftoken
BufToken
p4821
(dp4822
g5
I11
sg6
S'from'
p4823
sg8
S'O'
sg9
S'IN'
p4824
sg11
S'from'
p4825
sg13
Nsba(ibuftoken
BufToken
p4826
(dp4827
g5
I12
sg6
S'any'
p4828
sg8
S'O'
sg9
S'DT'
p4829
sg11
S'any'
p4830
sg13
Nsba(ibuftoken
BufToken
p4831
(dp4832
g5
I13
sg6
S'human'
p4833
sg8
S'O'
sg9
S'JJ'
p4834
sg11
S'human'
p4835
sg13
Nsba(ibuftoken
BufToken
p4836
(dp4837
g5
I14
sg6
S'habitation'
p4838
sg8
S'O'
sg9
S'NN'
p4839
sg11
S'habitation'
p4840
sg13
Nsba(ibuftoken
BufToken
p4841
(dp4842
g5
I15
sg6
S'and'
p4843
sg8
S'O'
sg9
S'CC'
p4844
sg11
S'and'
p4845
sg13
Nsba(ibuftoken
BufToken
p4846
(dp4847
g5
I16
sg6
S'in'
p4848
sg8
S'O'
sg9
S'IN'
p4849
sg11
S'in'
p4850
sg13
Nsba(ibuftoken
BufToken
p4851
(dp4852
g5
I17
sg6
S'danger'
p4853
sg8
S'O'
sg9
S'NN'
p4854
sg11
S'danger'
p4855
sg13
Nsba(ibuftoken
BufToken
p4856
(dp4857
g5
I18
sg6
S'of'
p4858
sg8
S'O'
sg9
S'IN'
p4859
sg11
S'of'
p4860
sg13
Nsba(ibuftoken
BufToken
p4861
(dp4862
g5
I19
sg6
S'death'
p4863
sg8
S'O'
sg9
S'NN'
p4864
sg11
S'death'
p4865
sg13
Nsba(ibuftoken
BufToken
p4866
(dp4867
g5
I20
sg6
S','
sg8
S'O'
sg9
S','
sg11
S','
sg13
Nsba(ibuftoken
BufToken
p4868
(dp4869
g5
I21
sg6
S'I'
sg8
S'O'
sg9
S'PRP'
p4870
sg11
S'I'
sg13
Nsba(ibuftoken
BufToken
p4871
(dp4872
g5
I22
sg6
S'took'
p4873
sg8
S'O'
sg9
S'VBD'
p4874
sg11
S'take'
p4875
sg13
Nsba(ibuftoken
BufToken
p4876
(dp4877
g5
I23
sg6
S'out'
p4878
sg8
S'O'
sg9
S'RP'
p4879
sg11
S'out'
p4880
sg13
Nsba(ibuftoken
BufToken
p4881
(dp4882
g5
I24
sg6
S'of'
p4883
sg8
S'O'
sg9
S'IN'
p4884
sg11
S'of'
p4885
sg13
Nsba(ibuftoken
BufToken
p4886
(dp4887
g5
I25
sg6
S'my'
p4888
sg8
S'O'
sg9
S'PRP$'
p4889
sg11
S'my'
p4890
sg13
Nsba(ibuftoken
BufToken
p4891
(dp4892
g5
I26
sg6
S'pocket'
p4893
sg8
S'O'
sg9
S'NN'
p4894
sg11
S'pocket'
p4895
sg13
Nsba(ibuftoken
BufToken
p4896
(dp4897
g5
I27
sg6
S'a'
sg8
S'O'
sg9
S'DT'
p4898
sg11
S'a'
sg13
Nsba(ibuftoken
BufToken
p4899
(dp4900
g5
I28
sg6
S'sheet'
p4901
sg8
S'O'
sg9
S'NN'
p4902
sg11
S'sheet'
p4903
sg13
Nsba(ibuftoken
BufToken
p4904
(dp4905
g5
I29
sg6
S'of'
p4906
sg8
S'O'
sg9
S'IN'
p4907
sg11
S'of'
p4908
sg13
Nsba(ibuftoken
BufToken
p4909
(dp4910
g5
I30
sg6
S'paper'
p4911
sg8
S'O'
sg9
S'NN'
p4912
sg11
S'paper'
p4913
sg13
Nsba(ibuftoken
BufToken
p4914
(dp4915
g5
I31
sg6
S'and'
p4916
sg8
S'O'
sg9
S'CC'
p4917
sg11
S'and'
p4918
sg13
Nsba(ibuftoken
BufToken
p4919
(dp4920
g5
I32
sg6
S'my'
p4921
sg8
S'O'
sg9
S'PRP$'
p4922
sg11
S'my'
p4923
sg13
Nsba(ibuftoken
BufToken
p4924
(dp4925
g5
I33
sg6
S'fountain'
p4926
sg8
S'O'
sg9
S'NN'
p4927
sg11
S'fountain'
p4928
sg13
Nsba(ibuftoken
BufToken
p4929
(dp4930
g5
I34
sg6
S'-'
sg8
S'O'
sg9
S':'
sg11
S'-'
sg13
Nsba(ibuftoken
BufToken
p4931
(dp4932
g5
I35
sg6
S'pen'
p4933
sg8
S'O'
sg9
S'NN'
p4934
sg11
S'pen'
p4935
sg13
Nsba(ibuftoken
BufToken
p4936
(dp4937
g5
I36
sg6
S'.'
sg8
S'O'
sg9
S'.'
sg11
S'.'
sg13
Nsbaa(lp4938
(ibuftoken
BufToken
p4939
(dp4940
g5
I0
sg6
S'But'
p4941
sg8
S'O'
sg9
S'CC'
p4942
sg11
S'but'
p4943
sg13
Nsba(ibuftoken
BufToken
p4944
(dp4945
g5
I1
sg6
S'then'
p4946
sg8
S'O'
sg9
S'RB'
p4947
sg11
S'then'
p4948
sg13
Nsba(ibuftoken
BufToken
p4949
(dp4950
g5
I2
sg6
S'I'
sg8
S'O'
sg9
S'PRP'
p4951
sg11
S'I'
sg13
Nsba(ibuftoken
BufToken
p4952
(dp4953
g5
I3
sg6
S'remembered'
p4954
sg8
S'O'
sg9
S'VBD'
p4955
sg11
S'remember'
p4956
sg13
Nsba(ibuftoken
BufToken
p4957
(dp4958
g5
I4
sg6
S'how'
p4959
sg8
S'O'
sg9
S'WRB'
p4960
sg11
S'how'
p4961
sg13
Nsba(ibuftoken
BufToken
p4962
(dp4963
g5
I5
sg6
S'my'
p4964
sg8
S'O'
sg9
S'PRP$'
p4965
sg11
S'my'
p4966
sg13
Nsba(ibuftoken
BufToken
p4967
(dp4968
g5
I6
sg6
S'studies'
p4969
sg8
S'O'
sg9
S'NNS'
p4970
sg11
S'study'
p4971
sg13
Nsba(ibuftoken
BufToken
p4972
(dp4973
g5
I7
sg6
S'had'
p4974
sg8
S'O'
sg9
S'VBD'
p4975
sg11
S'have'
p4976
sg13
Nsba(ibuftoken
BufToken
p4977
(dp4978
g5
I8
sg6
S'been'
p4979
sg8
S'O'
sg9
S'VBN'
p4980
sg11
S'be'
p4981
sg13
Nsba(ibuftoken
BufToken
p4982
(dp4983
g5
I9
sg6
S'concentrated'
p4984
sg8
S'O'
sg9
S'VBN'
p4985
sg11
S'concentrate'
p4986
sg13
Nsba(ibuftoken
BufToken
p4987
(dp4988
g5
I10
sg6
S'on'
p4989
sg8
S'O'
sg9
S'IN'
p4990
sg11
S'on'
p4991
sg13
Nsba(ibuftoken
BufToken
p4992
(dp4993
g5
I11
sg6
S'geography'
p4994
sg8
S'O'
sg9
S'NN'
p4995
sg11
S'geography'
p4996
sg13
Nsba(ibuftoken
BufToken
p4997
(dp4998
g5
I12
sg6
S','
sg8
S'O'
sg9
S','
sg11
S','
sg13
Nsba(ibuftoken
BufToken
p4999
(dp5000
g5
I13
sg6
S'history'
p5001
sg8
S'O'
sg9
S'NN'
p5002
sg11
S'history'
p5003
sg13
Nsba(ibuftoken
BufToken
p5004
(dp5005
g5
I14
sg6
S','
sg8
S'O'
sg9
S','
sg11
S','
sg13
Nsba(ibuftoken
BufToken
p5006
(dp5007
g5
I15
sg6
S'arithmetic'
p5008
sg8
S'O'
sg9
S'NN'
p5009
sg11
S'arithmetic'
p5010
sg13
Nsba(ibuftoken
BufToken
p5011
(dp5012
g5
I16
sg6
S','
sg8
S'O'
sg9
S','
sg11
S','
sg13
Nsba(ibuftoken
BufToken
p5013
(dp5014
g5
I17
sg6
S'and'
p5015
sg8
S'O'
sg9
S'CC'
p5016
sg11
S'and'
p5017
sg13
Nsba(ibuftoken
BufToken
p5018
(dp5019
g5
I18
sg6
S'grammar'
p5020
sg8
S'O'
sg9
S'NN'
p5021
sg11
S'grammar'
p5022
sg13
Nsba(ibuftoken
BufToken
p5023
(dp5024
g5
I19
sg6
S','
sg8
S'O'
sg9
S','
sg11
S','
sg13
Nsba(ibuftoken
BufToken
p5025
(dp5026
g5
I20
sg6
S'and'
p5027
sg8
S'O'
sg9
S'CC'
p5028
sg11
S'and'
p5029
sg13
Nsba(ibuftoken
BufToken
p5030
(dp5031
g5
I21
sg6
S'I'
sg8
S'O'
sg9
S'PRP'
p5032
sg11
S'I'
sg13
Nsba(ibuftoken
BufToken
p5033
(dp5034
g5
I22
sg6
S'told'
p5035
sg8
S'O'
sg9
S'VBD'
p5036
sg11
S'tell'
p5037
sg13
Nsba(ibuftoken
BufToken
p5038
(dp5039
g5
I23
sg6
S'the'
p5040
sg8
S'O'
sg9
S'DT'
p5041
sg11
S'the'
p5042
sg13
Nsba(ibuftoken
BufToken
p5043
(dp5044
g5
I24
sg6
S'little'
p5045
sg8
S'O'
sg9
S'JJ'
p5046
sg11
S'little'
p5047
sg13
Nsba(ibuftoken
BufToken
p5048
(dp5049
g5
I25
sg6
S'chap'
p5050
sg8
S'O'
sg9
S'NN'
p5051
sg11
S'chap'
p5052
sg13
Nsba(ibuftoken
BufToken
p5053
(dp5054
g5
I26
sg6
S'('
sg8
S'O'
sg9
S'VBD'
p5055
sg11
S'('
sg13
Nsba(ibuftoken
BufToken
p5056
(dp5057
g5
I27
sg6
S'a'
sg8
S'O'
sg9
S'DT'
p5058
sg11
S'a'
sg13
Nsba(ibuftoken
BufToken
p5059
(dp5060
g5
I28
sg6
S'little'
p5061
sg8
S'O'
sg9
S'JJ'
p5062
sg11
S'little'
p5063
sg13
Nsba(ibuftoken
BufToken
p5064
(dp5065
g5
I29
sg6
S'crossly'
p5066
sg8
S'O'
sg9
S'RB'
p5067
sg11
S'crossly'
p5068
sg13
Nsba(ibuftoken
BufToken
p5069
(dp5070
g5
I30
sg6
S','
sg8
S'O'
sg9
S','
sg11
S','
sg13
Nsba(ibuftoken
BufToken
p5071
(dp5072
g5
I31
sg6
S'too'
p5073
sg8
S'O'
sg9
S'RB'
p5074
sg11
S'too'
p5075
sg13
Nsba(ibuftoken
BufToken
p5076
(dp5077
g5
I32
sg6
S')'
sg8
S'O'
sg9
S'RB'
p5078
sg11
S')'
sg13
Nsba(ibuftoken
BufToken
p5079
(dp5080
g5
I33
sg6
S'that'
p5081
sg8
S'O'
sg9
S'IN'
p5082
sg11
S'that'
p5083
sg13
Nsba(ibuftoken
BufToken
p5084
(dp5085
g5
I34
sg6
S'I'
sg8
S'O'
sg9
S'PRP'
p5086
sg11
S'I'
sg13
Nsba(ibuftoken
BufToken
p5087
(dp5088
g5
I35
sg6
S'did'
p5089
sg8
S'O'
sg9
S'VBD'
p5090
sg11
S'do'
p5091
sg13
Nsba(ibuftoken
BufToken
p5092
(dp5093
g5
I36
sg6
S'not'
p5094
sg8
S'O'
sg9
S'RB'
p5095
sg11
S'not'
p5096
sg13
Nsba(ibuftoken
BufToken
p5097
(dp5098
g5
I37
sg6
S'know'
p5099
sg8
S'O'
sg9
S'VB'
p5100
sg11
S'know'
p5101
sg13
Nsba(ibuftoken
BufToken
p5102
(dp5103
g5
I38
sg6
S'how'
p5104
sg8
S'O'
sg9
S'WRB'
p5105
sg11
S'how'
p5106
sg13
Nsba(ibuftoken
BufToken
p5107
(dp5108
g5
I39
sg6
S'to'
p5109
sg8
S'O'
sg9
S'TO'
p5110
sg11
S'to'
p5111
sg13
Nsba(ibuftoken
BufToken
p5112
(dp5113
g5
I40
sg6
S'draw'
p5114
sg8
S'O'
sg9
S'VB'
p5115
sg11
S'draw'
p5116
sg13
Nsba(ibuftoken
BufToken
p5117
(dp5118
g5
I41
sg6
S'.'
sg8
S'O'
sg9
S'.'
sg11
S'.'
sg13
Nsbaa(lp5119
(ibuftoken
BufToken
p5120
(dp5121
g5
I0
sg6
S'He'
p5122
sg8
S'O'
sg9
S'PRP'
p5123
sg11
S'he'
p5124
sg13
Nsba(ibuftoken
BufToken
p5125
(dp5126
g5
I1
sg6
S'answered'
p5127
sg8
S'O'
sg9
S'VBD'
p5128
sg11
S'answer'
p5129
sg13
Nsba(ibuftoken
BufToken
p5130
(dp5131
g5
I2
sg6
S'me'
p5132
sg8
S'O'
sg9
S'PRP'
p5133
sg11
S'I'
sg13
Nsba(ibuftoken
BufToken
p5134
(dp5135
g5
I3
sg6
S':'
sg8
S'O'
sg9
S':'
sg11
S':'
sg13
Nsba(ibuftoken
BufToken
p5136
(dp5137
g5
I4
sg6
S'"'
sg8
S'O'
sg9
S'``'
p5138
sg11
S'"'
sg13
Nsba(ibuftoken
BufToken
p5139
(dp5140
g5
I5
sg6
S'That'
p5141
sg8
S'O'
sg9
S'IN'
p5142
sg11
S'that'
p5143
sg13
Nsba(ibuftoken
BufToken
p5144
(dp5145
g5
I6
sg6
S'does'
p5146
sg8
S'O'
sg9
S'VBZ'
p5147
sg11
S'do'
p5148
sg13
Nsba(ibuftoken
BufToken
p5149
(dp5150
g5
I7
sg6
S"n't"
p5151
sg8
S'O'
sg9
S'RB'
p5152
sg11
S'not'
p5153
sg13
Nsba(ibuftoken
BufToken
p5154
(dp5155
g5
I8
sg6
S'matter'
p5156
sg8
S'O'
sg9
S'VB'
p5157
sg11
S'matter'
p5158
sg13
Nsba(ibuftoken
BufToken
p5159
(dp5160
g5
I9
sg6
S'.'
sg8
S'O'
sg9
S'.'
sg11
S'.'
sg13
Nsbaa(lp5161
(ibuftoken
BufToken
p5162
(dp5163
g5
I0
sg6
S'Draw'
p5164
sg8
S'O'
sg9
S'VB'
p5165
sg11
S'draw'
p5166
sg13
Nsba(ibuftoken
BufToken
p5167
(dp5168
g5
I1
sg6
S'me'
p5169
sg8
S'O'
sg9
S'PRP'
p5170
sg11
S'I'
sg13
Nsba(ibuftoken
BufToken
p5171
(dp5172
g5
I2
sg6
S'a'
sg8
S'O'
sg9
S'DT'
p5173
sg11
S'a'
sg13
Nsba(ibuftoken
BufToken
p5174
(dp5175
g5
I3
sg6
S'sheep'
p5176
sg8
S'O'
sg9
S'NN'
p5177
sg11
S'sheep'
p5178
sg13
Nsba(ibuftoken
BufToken
p5179
(dp5180
g5
I4
sg6
S'...'
p5181
sg8
S'O'
sg9
S':'
sg11
S'...'
p5182
sg13
Nsba(ibuftoken
BufToken
p5183
(dp5184
g5
I5
sg6
S'"'
sg8
S'O'
sg9
S"''"
p5185
sg11
S'"'
sg13
Nsbaa(lp5186
(ibuftoken
BufToken
p5187
(dp5188
g5
I0
sg6
S'But'
p5189
sg8
S'O'
sg9
S'CC'
p5190
sg11
S'but'
p5191
sg13
Nsba(ibuftoken
BufToken
p5192
(dp5193
g5
I1
sg6
S'I'
sg8
S'O'
sg9
S'PRP'
p5194
sg11
S'I'
sg13
Nsba(ibuftoken
BufToken
p5195
(dp5196
g5
I2
sg6
S'had'
p5197
sg8
S'O'
sg9
S'VBD'
p5198
sg11
S'have'
p5199
sg13
Nsba(ibuftoken
BufToken
p5200
(dp5201
g5
I3
sg6
S'never'
p5202
sg8
S'O'
sg9
S'RB'
p5203
sg11
S'never'
p5204
sg13
Nsba(ibuftoken
BufToken
p5205
(dp5206
g5
I4
sg6
S'drawn'
p5207
sg8
S'O'
sg9
S'VBN'
p5208
sg11
S'draw'
p5209
sg13
Nsba(ibuftoken
BufToken
p5210
(dp5211
g5
I5
sg6
S'a'
sg8
S'O'
sg9
S'DT'
p5212
sg11
S'a'
sg13
Nsba(ibuftoken
BufToken
p5213
(dp5214
g5
I6
sg6
S'sheep'
p5215
sg8
S'O'
sg9
S'NN'
p5216
sg11
S'sheep'
p5217
sg13
Nsba(ibuftoken
BufToken
p5218
(dp5219
g5
I7
sg6
S'.'
sg8
S'O'
sg9
S'.'
sg11
S'.'
sg13
Nsbaa(lp5220
(ibuftoken
BufToken
p5221
(dp5222
g5
I0
sg6
S'So'
p5223
sg8
S'O'
sg9
S'IN'
p5224
sg11
S'so'
p5225
sg13
Nsba(ibuftoken
BufToken
p5226
(dp5227
g5
I1
sg6
S'I'
sg8
S'O'
sg9
S'PRP'
p5228
sg11
S'I'
sg13
Nsba(ibuftoken
BufToken
p5229
(dp5230
g5
I2
sg6
S'drew'
p5231
sg8
S'O'
sg9
S'VBD'
p5232
sg11
S'draw'
p5233
sg13
Nsba(ibuftoken
BufToken
p5234
(dp5235
g5
I3
sg6
S'for'
p5236
sg8
S'O'
sg9
S'IN'
p5237
sg11
S'for'
p5238
sg13
Nsba(ibuftoken
BufToken
p5239
(dp5240
g5
I4
sg6
S'him'
p5241
sg8
S'O'
sg9
S'PRP'
p5242
sg11
S'he'
p5243
sg13
Nsba(ibuftoken
BufToken
p5244
(dp5245
g5
I5
sg6
S'1'
sg8
S'NUMBER'
p5246
sg9
S'CD'
p5247
sg11
S'one'
p5248
sg13
Nsba(ibuftoken
BufToken
p5249
(dp5250
g5
I6
sg6
S'of'
p5251
sg8
S'O'
sg9
S'IN'
p5252
sg11
S'of'
p5253
sg13
Nsba(ibuftoken
BufToken
p5254
(dp5255
g5
I7
sg6
S'the'
p5256
sg8
S'O'
sg9
S'DT'
p5257
sg11
S'the'
p5258
sg13
Nsba(ibuftoken
BufToken
p5259
(dp5260
g5
I8
sg6
S'2'
sg8
S'NUMBER'
p5261
sg9
S'CD'
p5262
sg11
S'two'
p5263
sg13
Nsba(ibuftoken
BufToken
p5264
(dp5265
g5
I9
sg6
S'pictures'
p5266
sg8
S'O'
sg9
S'NNS'
p5267
sg11
S'picture'
p5268
sg13
Nsba(ibuftoken
BufToken
p5269
(dp5270
g5
I10
sg6
S'I'
sg8
S'O'
sg9
S'PRP'
p5271
sg11
S'I'
sg13
Nsba(ibuftoken
BufToken
p5272
(dp5273
g5
I11
sg6
S'had'
p5274
sg8
S'O'
sg9
S'VBD'
p5275
sg11
S'have'
p5276
sg13
Nsba(ibuftoken
BufToken
p5277
(dp5278
g5
I12
sg6
S'drawn'
p5279
sg8
S'O'
sg9
S'VBN'
p5280
sg11
S'draw'
p5281
sg13
Nsba(ibuftoken
BufToken
p5282
(dp5283
g5
I13
sg6
S'so'
p5284
sg8
S'O'
sg9
S'RB'
p5285
sg11
S'so'
p5286
sg13
Nsba(ibuftoken
BufToken
p5287
(dp5288
g5
I14
sg6
S'often'
p5289
sg8
S'O'
sg9
S'RB'
p5290
sg11
S'often'
p5291
sg13
Nsba(ibuftoken
BufToken
p5292
(dp5293
g5
I15
sg6
S'.'
sg8
S'O'
sg9
S'.'
sg11
S'.'
sg13
Nsbaa(lp5294
(ibuftoken
BufToken
p5295
(dp5296
g5
I0
sg6
S'It'
p5297
sg8
S'O'
sg9
S'PRP'
p5298
sg11
S'it'
p5299
sg13
Nsba(ibuftoken
BufToken
p5300
(dp5301
g5
I1
sg6
S'was'
p5302
sg8
S'O'
sg9
S'VBD'
p5303
sg11
S'be'
p5304
sg13
Nsba(ibuftoken
BufToken
p5305
(dp5306
g5
I2
sg6
S'that'
p5307
sg8
S'O'
sg9
S'IN'
p5308
sg11
S'that'
p5309
sg13
Nsba(ibuftoken
BufToken
p5310
(dp5311
g5
I3
sg6
S'of'
p5312
sg8
S'O'
sg9
S'IN'
p5313
sg11
S'of'
p5314
sg13
Nsba(ibuftoken
BufToken
p5315
(dp5316
g5
I4
sg6
S'the'
p5317
sg8
S'O'
sg9
S'DT'
p5318
sg11
S'the'
p5319
sg13
Nsba(ibuftoken
BufToken
p5320
(dp5321
g5
I5
sg6
S'boa'
p5322
sg8
S'O'
sg9
S'NN'
p5323
sg11
S'boa'
p5324
sg13
Nsba(ibuftoken
BufToken
p5325
(dp5326
g5
I6
sg6
S'constrictor'
p5327
sg8
S'O'
sg9
S'NN'
p5328
sg11
S'constrictor'
p5329
sg13
Nsba(ibuftoken
BufToken
p5330
(dp5331
g5
I7
sg6
S'from'
p5332
sg8
S'O'
sg9
S'IN'
p5333
sg11
S'from'
p5334
sg13
Nsba(ibuftoken
BufToken
p5335
(dp5336
g5
I8
sg6
S'the'
p5337
sg8
S'O'
sg9
S'DT'
p5338
sg11
S'the'
p5339
sg13
Nsba(ibuftoken
BufToken
p5340
(dp5341
g5
I9
sg6
S'outside'
p5342
sg8
S'O'
sg9
S'NN'
p5343
sg11
S'outside'
p5344
sg13
Nsba(ibuftoken
BufToken
p5345
(dp5346
g5
I10
sg6
S'.'
sg8
S'O'
sg9
S'.'
sg11
S'.'
sg13
Nsbaa(lp5347
(ibuftoken
BufToken
p5348
(dp5349
g5
I0
sg6
S'And'
p5350
sg8
S'O'
sg9
S'CC'
p5351
sg11
S'and'
p5352
sg13
Nsba(ibuftoken
BufToken
p5353
(dp5354
g5
I1
sg6
S'I'
sg8
S'O'
sg9
S'PRP'
p5355
sg11
S'I'
sg13
Nsba(ibuftoken
BufToken
p5356
(dp5357
g5
I2
sg6
S'was'
p5358
sg8
S'O'
sg9
S'VBD'
p5359
sg11
S'be'
p5360
sg13
Nsba(ibuftoken
BufToken
p5361
(dp5362
g5
I3
sg6
S'astounded'
p5363
sg8
S'O'
sg9
S'JJ'
p5364
sg11
S'astounded'
p5365
sg13
Nsba(ibuftoken
BufToken
p5366
(dp5367
g5
I4
sg6
S'to'
p5368
sg8
S'O'
sg9
S'TO'
p5369
sg11
S'to'
p5370
sg13
Nsba(ibuftoken
BufToken
p5371
(dp5372
g5
I5
sg6
S'hear'
p5373
sg8
S'O'
sg9
S'VB'
p5374
sg11
S'hear'
p5375
sg13
Nsba(ibuftoken
BufToken
p5376
(dp5377
g5
I6
sg6
S'the'
p5378
sg8
S'O'
sg9
S'DT'
p5379
sg11
S'the'
p5380
sg13
Nsba(ibuftoken
BufToken
p5381
(dp5382
g5
I7
sg6
S'little'
p5383
sg8
S'O'
sg9
S'JJ'
p5384
sg11
S'little'
p5385
sg13
Nsba(ibuftoken
BufToken
p5386
(dp5387
g5
I8
sg6
S'fellow'
p5388
sg8
S'O'
sg9
S'JJ'
p5389
sg11
S'fellow'
p5390
sg13
Nsba(ibuftoken
BufToken
p5391
(dp5392
g5
I9
sg6
S'greet'
p5393
sg8
S'O'
sg9
S'VB'
p5394
sg11
S'greet'
p5395
sg13
Nsba(ibuftoken
BufToken
p5396
(dp5397
g5
I10
sg6
S'it'
p5398
sg8
S'O'
sg9
S'PRP'
p5399
sg11
S'it'
p5400
sg13
Nsba(ibuftoken
BufToken
p5401
(dp5402
g5
I11
sg6
S'with'
p5403
sg8
S'O'
sg9
S'IN'
p5404
sg11
S'with'
p5405
sg13
Nsba(ibuftoken
BufToken
p5406
(dp5407
g5
I12
sg6
S','
sg8
S'O'
sg9
S','
sg11
S','
sg13
Nsba(ibuftoken
BufToken
p5408
(dp5409
g5
I13
sg6
S'"'
sg8
S'O'
sg9
S'``'
p5410
sg11
S'"'
sg13
Nsba(ibuftoken
BufToken
p5411
(dp5412
g5
I14
sg6
S'No'
p5413
sg8
S'O'
sg9
S'UH'
p5414
sg11
S'no'
p5415
sg13
Nsba(ibuftoken
BufToken
p5416
(dp5417
g5
I15
sg6
S','
sg8
S'O'
sg9
S','
sg11
S','
sg13
Nsba(ibuftoken
BufToken
p5418
(dp5419
g5
I16
sg6
S'no'
p5420
sg8
S'O'
sg9
S'DT'
p5421
sg11
S'no'
p5422
sg13
Nsba(ibuftoken
BufToken
p5423
(dp5424
g5
I17
sg6
S','
sg8
S'O'
sg9
S','
sg11
S','
sg13
Nsba(ibuftoken
BufToken
p5425
(dp5426
g5
I18
sg6
S'no'
p5427
sg8
S'O'
sg9
S'DT'
p5428
sg11
S'no'
p5429
sg13
Nsba(ibuftoken
BufToken
p5430
(dp5431
g5
I19
sg6
S'!'
sg8
S'O'
sg9
S'.'
sg11
S'!'
sg13
Nsbaa(lp5432
(ibuftoken
BufToken
p5433
(dp5434
g5
I0
sg6
S'I'
sg8
S'O'
sg9
S'PRP'
p5435
sg11
S'I'
sg13
Nsba(ibuftoken
BufToken
p5436
(dp5437
g5
I1
sg6
S'do'
p5438
sg8
S'O'
sg9
S'VBP'
p5439
sg11
S'do'
p5440
sg13
Nsba(ibuftoken
BufToken
p5441
(dp5442
g5
I2
sg6
S'not'
p5443
sg8
S'O'
sg9
S'RB'
p5444
sg11
S'not'
p5445
sg13
Nsba(ibuftoken
BufToken
p5446
(dp5447
g5
I3
sg6
S'want'
p5448
sg8
S'O'
sg9
S'VB'
p5449
sg11
S'want'
p5450
sg13
Nsba(ibuftoken
BufToken
p5451
(dp5452
g5
I4
sg6
S'an'
p5453
sg8
S'O'
sg9
S'DT'
p5454
sg11
S'a'
sg13
Nsba(ibuftoken
BufToken
p5455
(dp5456
g5
I5
sg6
S'elephant'
p5457
sg8
S'O'
sg9
S'NN'
p5458
sg11
S'elephant'
p5459
sg13
Nsba(ibuftoken
BufToken
p5460
(dp5461
g5
I6
sg6
S'inside'
p5462
sg8
S'O'
sg9
S'IN'
p5463
sg11
S'inside'
p5464
sg13
Nsba(ibuftoken
BufToken
p5465
(dp5466
g5
I7
sg6
S'a'
sg8
S'O'
sg9
S'DT'
p5467
sg11
S'a'
sg13
Nsba(ibuftoken
BufToken
p5468
(dp5469
g5
I8
sg6
S'boa'
p5470
sg8
S'O'
sg9
S'NN'
p5471
sg11
S'boa'
p5472
sg13
Nsba(ibuftoken
BufToken
p5473
(dp5474
g5
I9
sg6
S'constrictor'
p5475
sg8
S'O'
sg9
S'NN'
p5476
sg11
S'constrictor'
p5477
sg13
Nsba(ibuftoken
BufToken
p5478
(dp5479
g5
I10
sg6
S'.'
sg8
S'O'
sg9
S'.'
sg11
S'.'
sg13
Nsbaa(lp5480
(ibuftoken
BufToken
p5481
(dp5482
g5
I0
sg6
S'A'
sg8
S'O'
sg9
S'DT'
p5483
sg11
S'a'
sg13
Nsba(ibuftoken
BufToken
p5484
(dp5485
g5
I1
sg6
S'boa'
p5486
sg8
S'O'
sg9
S'NN'
p5487
sg11
S'boa'
p5488
sg13
Nsba(ibuftoken
BufToken
p5489
(dp5490
g5
I2
sg6
S'constrictor'
p5491
sg8
S'O'
sg9
S'NN'
p5492
sg11
S'constrictor'
p5493
sg13
Nsba(ibuftoken
BufToken
p5494
(dp5495
g5
I3
sg6
S'is'
p5496
sg8
S'O'
sg9
S'VBZ'
p5497
sg11
S'be'
p5498
sg13
Nsba(ibuftoken
BufToken
p5499
(dp5500
g5
I4
sg6
S'a'
sg8
S'O'
sg9
S'DT'
p5501
sg11
S'a'
sg13
Nsba(ibuftoken
BufToken
p5502
(dp5503
g5
I5
sg6
S'very'
p5504
sg8
S'O'
sg9
S'RB'
p5505
sg11
S'very'
p5506
sg13
Nsba(ibuftoken
BufToken
p5507
(dp5508
g5
I6
sg6
S'dangerous'
p5509
sg8
S'O'
sg9
S'JJ'
p5510
sg11
S'dangerous'
p5511
sg13
Nsba(ibuftoken
BufToken
p5512
(dp5513
g5
I7
sg6
S'creature'
p5514
sg8
S'O'
sg9
S'NN'
p5515
sg11
S'creature'
p5516
sg13
Nsba(ibuftoken
BufToken
p5517
(dp5518
g5
I8
sg6
S','
sg8
S'O'
sg9
S','
sg11
S','
sg13
Nsba(ibuftoken
BufToken
p5519
(dp5520
g5
I9
sg6
S'and'
p5521
sg8
S'O'
sg9
S'CC'
p5522
sg11
S'and'
p5523
sg13
Nsba(ibuftoken
BufToken
p5524
(dp5525
g5
I10
sg6
S'an'
p5526
sg8
S'O'
sg9
S'DT'
p5527
sg11
S'a'
sg13
Nsba(ibuftoken
BufToken
p5528
(dp5529
g5
I11
sg6
S'elephant'
p5530
sg8
S'O'
sg9
S'NN'
p5531
sg11
S'elephant'
p5532
sg13
Nsba(ibuftoken
BufToken
p5533
(dp5534
g5
I12
sg6
S'is'
p5535
sg8
S'O'
sg9
S'VBZ'
p5536
sg11
S'be'
p5537
sg13
Nsba(ibuftoken
BufToken
p5538
(dp5539
g5
I13
sg6
S'very'
p5540
sg8
S'O'
sg9
S'RB'
p5541
sg11
S'very'
p5542
sg13
Nsba(ibuftoken
BufToken
p5543
(dp5544
g5
I14
sg6
S'cumbersome'
p5545
sg8
S'O'
sg9
S'JJ'
p5546
sg11
S'cumbersome'
p5547
sg13
Nsba(ibuftoken
BufToken
p5548
(dp5549
g5
I15
sg6
S'.'
sg8
S'O'
sg9
S'.'
sg11
S'.'
sg13
Nsbaa(lp5550
(ibuftoken
BufToken
p5551
(dp5552
g5
I0
sg6
S'Where'
p5553
sg8
S'O'
sg9
S'WRB'
p5554
sg11
S'where'
p5555
sg13
Nsba(ibuftoken
BufToken
p5556
(dp5557
g5
I1
sg6
S'I'
sg8
S'O'
sg9
S'PRP'
p5558
sg11
S'I'
sg13
Nsba(ibuftoken
BufToken
p5559
(dp5560
g5
I2
sg6
S'live'
p5561
sg8
S'O'
sg9
S'VBP'
p5562
sg11
S'live'
p5563
sg13
Nsba(ibuftoken
BufToken
p5564
(dp5565
g5
I3
sg6
S','
sg8
S'O'
sg9
S','
sg11
S','
sg13
Nsba(ibuftoken
BufToken
p5566
(dp5567
g5
I4
sg6
S'everything'
p5568
sg8
S'O'
sg9
S'NN'
p5569
sg11
S'everything'
p5570
sg13
Nsba(ibuftoken
BufToken
p5571
(dp5572
g5
I5
sg6
S'is'
p5573
sg8
S'O'
sg9
S'VBZ'
p5574
sg11
S'be'
p5575
sg13
Nsba(ibuftoken
BufToken
p5576
(dp5577
g5
I6
sg6
S'very'
p5578
sg8
S'O'
sg9
S'RB'
p5579
sg11
S'very'
p5580
sg13
Nsba(ibuftoken
BufToken
p5581
(dp5582
g5
I7
sg6
S'small'
p5583
sg8
S'O'
sg9
S'JJ'
p5584
sg11
S'small'
p5585
sg13
Nsba(ibuftoken
BufToken
p5586
(dp5587
g5
I8
sg6
S'.'
sg8
S'O'
sg9
S'.'
sg11
S'.'
sg13
Nsbaa(lp5588
(ibuftoken
BufToken
p5589
(dp5590
g5
I0
sg6
S'What'
p5591
sg8
S'O'
sg9
S'WP'
p5592
sg11
S'what'
p5593
sg13
Nsba(ibuftoken
BufToken
p5594
(dp5595
g5
I1
sg6
S'I'
sg8
S'O'
sg9
S'PRP'
p5596
sg11
S'I'
sg13
Nsba(ibuftoken
BufToken
p5597
(dp5598
g5
I2
sg6
S'need'
p5599
sg8
S'O'
sg9
S'VBP'
p5600
sg11
S'need'
p5601
sg13
Nsba(ibuftoken
BufToken
p5602
(dp5603
g5
I3
sg6
S'is'
p5604
sg8
S'O'
sg9
S'VBZ'
p5605
sg11
S'be'
p5606
sg13
Nsba(ibuftoken
BufToken
p5607
(dp5608
g5
I4
sg6
S'a'
sg8
S'O'
sg9
S'DT'
p5609
sg11
S'a'
sg13
Nsba(ibuftoken
BufToken
p5610
(dp5611
g5
I5
sg6
S'sheep'
p5612
sg8
S'O'
sg9
S'NN'
p5613
sg11
S'sheep'
p5614
sg13
Nsba(ibuftoken
BufToken
p5615
(dp5616
g5
I6
sg6
S'.'
sg8
S'O'
sg9
S'.'
sg11
S'.'
sg13
Nsbaa(lp5617
(ibuftoken
BufToken
p5618
(dp5619
g5
I0
sg6
S'Draw'
p5620
sg8
S'O'
sg9
S'VB'
p5621
sg11
S'draw'
p5622
sg13
Nsba(ibuftoken
BufToken
p5623
(dp5624
g5
I1
sg6
S'me'
p5625
sg8
S'O'
sg9
S'PRP'
p5626
sg11
S'I'
sg13
Nsba(ibuftoken
BufToken
p5627
(dp5628
g5
I2
sg6
S'a'
sg8
S'O'
sg9
S'DT'
p5629
sg11
S'a'
sg13
Nsba(ibuftoken
BufToken
p5630
(dp5631
g5
I3
sg6
S'sheep'
p5632
sg8
S'O'
sg9
S'NN'
p5633
sg11
S'sheep'
p5634
sg13
Nsba(ibuftoken
BufToken
p5635
(dp5636
g5
I4
sg6
S'.'
sg8
S'O'
sg9
S'.'
sg11
S'.'
sg13
Nsba(ibuftoken
BufToken
p5637
(dp5638
g5
I5
sg6
S'"'
sg8
S'O'
sg9
S"''"
p5639
sg11
S'"'
sg13
Nsbaa(lp5640
(ibuftoken
BufToken
p5641
(dp5642
g5
I0
sg6
S'So'
p5643
sg8
S'O'
sg9
S'RB'
p5644
sg11
S'so'
p5645
sg13
Nsba(ibuftoken
BufToken
p5646
(dp5647
g5
I1
sg6
S'then'
p5648
sg8
S'O'
sg9
S'RB'
p5649
sg11
S'then'
p5650
sg13
Nsba(ibuftoken
BufToken
p5651
(dp5652
g5
I2
sg6
S'I'
sg8
S'O'
sg9
S'PRP'
p5653
sg11
S'I'
sg13
Nsba(ibuftoken
BufToken
p5654
(dp5655
g5
I3
sg6
S'made'
p5656
sg8
S'O'
sg9
S'VBD'
p5657
sg11
S'make'
p5658
sg13
Nsba(ibuftoken
BufToken
p5659
(dp5660
g5
I4
sg6
S'a'
sg8
S'O'
sg9
S'DT'
p5661
sg11
S'a'
sg13
Nsba(ibuftoken
BufToken
p5662
(dp5663
g5
I5
sg6
S'drawing'
p5664
sg8
S'O'
sg9
S'NN'
p5665
sg11
S'drawing'
p5666
sg13
Nsba(ibuftoken
BufToken
p5667
(dp5668
g5
I6
sg6
S'.'
sg8
S'O'
sg9
S'.'
sg11
S'.'
sg13
Nsbaa(lp5669
(ibuftoken
BufToken
p5670
(dp5671
g5
I0
sg6
S'He'
p5672
sg8
S'O'
sg9
S'PRP'
p5673
sg11
S'he'
p5674
sg13
Nsba(ibuftoken
BufToken
p5675
(dp5676
g5
I1
sg6
S'looked'
p5677
sg8
S'O'
sg9
S'VBD'
p5678
sg11
S'look'
p5679
sg13
Nsba(ibuftoken
BufToken
p5680
(dp5681
g5
I2
sg6
S'at'
p5682
sg8
S'O'
sg9
S'IN'
p5683
sg11
S'at'
p5684
sg13
Nsba(ibuftoken
BufToken
p5685
(dp5686
g5
I3
sg6
S'it'
p5687
sg8
S'O'
sg9
S'PRP'
p5688
sg11
S'it'
p5689
sg13
Nsba(ibuftoken
BufToken
p5690
(dp5691
g5
I4
sg6
S'carefully'
p5692
sg8
S'O'
sg9
S'RB'
p5693
sg11
S'carefully'
p5694
sg13
Nsba(ibuftoken
BufToken
p5695
(dp5696
g5
I5
sg6
S','
sg8
S'O'
sg9
S','
sg11
S','
sg13
Nsba(ibuftoken
BufToken
p5697
(dp5698
g5
I6
sg6
S'then'
p5699
sg8
S'O'
sg9
S'RB'
p5700
sg11
S'then'
p5701
sg13
Nsba(ibuftoken
BufToken
p5702
(dp5703
g5
I7
sg6
S'he'
p5704
sg8
S'O'
sg9
S'PRP'
p5705
sg11
S'he'
p5706
sg13
Nsba(ibuftoken
BufToken
p5707
(dp5708
g5
I8
sg6
S'said'
p5709
sg8
S'O'
sg9
S'VBD'
p5710
sg11
S'say'
p5711
sg13
Nsba(ibuftoken
BufToken
p5712
(dp5713
g5
I9
sg6
S':'
sg8
S'O'
sg9
S':'
sg11
S':'
sg13
Nsba(ibuftoken
BufToken
p5714
(dp5715
g5
I10
sg6
S'"'
sg8
S'O'
sg9
S'``'
p5716
sg11
S'"'
sg13
Nsba(ibuftoken
BufToken
p5717
(dp5718
g5
I11
sg6
S'No'
p5719
sg8
S'O'
sg9
S'UH'
p5720
sg11
S'no'
p5721
sg13
Nsba(ibuftoken
BufToken
p5722
(dp5723
g5
I12
sg6
S'.'
sg8
S'O'
sg9
S'.'
sg11
S'.'
sg13
Nsbaa(lp5724
(ibuftoken
BufToken
p5725
(dp5726
g5
I0
sg6
S'This'
p5727
sg8
S'O'
sg9
S'DT'
p5728
sg11
S'this'
p5729
sg13
Nsba(ibuftoken
BufToken
p5730
(dp5731
g5
I1
sg6
S'sheep'
p5732
sg8
S'O'
sg9
S'NN'
p5733
sg11
S'sheep'
p5734
sg13
Nsba(ibuftoken
BufToken
p5735
(dp5736
g5
I2
sg6
S'is'
p5737
sg8
S'O'
sg9
S'VBZ'
p5738
sg11
S'be'
p5739
sg13
Nsba(ibuftoken
BufToken
p5740
(dp5741
g5
I3
sg6
S'already'
p5742
sg8
S'O'
sg9
S'RB'
p5743
sg11
S'already'
p5744
sg13
Nsba(ibuftoken
BufToken
p5745
(dp5746
g5
I4
sg6
S'very'
p5747
sg8
S'O'
sg9
S'RB'
p5748
sg11
S'very'
p5749
sg13
Nsba(ibuftoken
BufToken
p5750
(dp5751
g5
I5
sg6
S'sickly'
p5752
sg8
S'O'
sg9
S'JJ'
p5753
sg11
S'sickly'
p5754
sg13
Nsba(ibuftoken
BufToken
p5755
(dp5756
g5
I6
sg6
S'.'
sg8
S'O'
sg9
S'.'
sg11
S'.'
sg13
Nsbaa(lp5757
(ibuftoken
BufToken
p5758
(dp5759
g5
I0
sg6
S'Make'
p5760
sg8
S'O'
sg9
S'VB'
p5761
sg11
S'make'
p5762
sg13
Nsba(ibuftoken
BufToken
p5763
(dp5764
g5
I1
sg6
S'me'
p5765
sg8
S'O'
sg9
S'PRP'
p5766
sg11
S'I'
sg13
Nsba(ibuftoken
BufToken
p5767
(dp5768
g5
I2
sg6
S'another'
p5769
sg8
S'O'
sg9
S'DT'
p5770
sg11
S'another'
p5771
sg13
Nsba(ibuftoken
BufToken
p5772
(dp5773
g5
I3
sg6
S'.'
sg8
S'O'
sg9
S'.'
sg11
S'.'
sg13
Nsba(ibuftoken
BufToken
p5774
(dp5775
g5
I4
sg6
S'"'
sg8
S'O'
sg9
S"''"
p5776
sg11
S'"'
sg13
Nsbaa(lp5777
(ibuftoken
BufToken
p5778
(dp5779
g5
I0
sg6
S'So'
p5780
sg8
S'O'
sg9
S'IN'
p5781
sg11
S'so'
p5782
sg13
Nsba(ibuftoken
BufToken
p5783
(dp5784
g5
I1
sg6
S'I'
sg8
S'O'
sg9
S'PRP'
p5785
sg11
S'I'
sg13
Nsba(ibuftoken
BufToken
p5786
(dp5787
g5
I2
sg6
S'made'
p5788
sg8
S'O'
sg9
S'VBD'
p5789
sg11
S'make'
p5790
sg13
Nsba(ibuftoken
BufToken
p5791
(dp5792
g5
I3
sg6
S'another'
p5793
sg8
S'O'
sg9
S'DT'
p5794
sg11
S'another'
p5795
sg13
Nsba(ibuftoken
BufToken
p5796
(dp5797
g5
I4
sg6
S'drawing'
p5798
sg8
S'O'
sg9
S'NN'
p5799
sg11
S'drawing'
p5800
sg13
Nsba(ibuftoken
BufToken
p5801
(dp5802
g5
I5
sg6
S'.'
sg8
S'O'
sg9
S'.'
sg11
S'.'
sg13
Nsbaa(lp5803
(ibuftoken
BufToken
p5804
(dp5805
g5
I0
sg6
S'My'
p5806
sg8
S'O'
sg9
S'PRP$'
p5807
sg11
S'my'
p5808
sg13
Nsba(ibuftoken
BufToken
p5809
(dp5810
g5
I1
sg6
S'friend'
p5811
sg8
S'O'
sg9
S'NN'
p5812
sg11
S'friend'
p5813
sg13
Nsba(ibuftoken
BufToken
p5814
(dp5815
g5
I2
sg6
S'smiled'
p5816
sg8
S'O'
sg9
S'VBD'
p5817
sg11
S'smile'
p5818
sg13
Nsba(ibuftoken
BufToken
p5819
(dp5820
g5
I3
sg6
S'gently'
p5821
sg8
S'O'
sg9
S'RB'
p5822
sg11
S'gently'
p5823
sg13
Nsba(ibuftoken
BufToken
p5824
(dp5825
g5
I4
sg6
S'and'
p5826
sg8
S'O'
sg9
S'CC'
p5827
sg11
S'and'
p5828
sg13
Nsba(ibuftoken
BufToken
p5829
(dp5830
g5
I5
sg6
S'indulgently'
p5831
sg8
S'O'
sg9
S'RB'
p5832
sg11
S'indulgently'
p5833
sg13
Nsba(ibuftoken
BufToken
p5834
(dp5835
g5
I6
sg6
S'.'
sg8
S'O'
sg9
S'.'
sg11
S'.'
sg13
Nsbaa(lp5836
(ibuftoken
BufToken
p5837
(dp5838
g5
I0
sg6
S'"'
sg8
S'O'
sg9
S'``'
p5839
sg11
S'"'
sg13
Nsba(ibuftoken
BufToken
p5840
(dp5841
g5
I1
sg6
S'You'
p5842
sg8
S'O'
sg9
S'PRP'
p5843
sg11
S'you'
p5844
sg13
Nsba(ibuftoken
BufToken
p5845
(dp5846
g5
I2
sg6
S'see'
p5847
sg8
S'O'
sg9
S'VBP'
p5848
sg11
S'see'
p5849
sg13
Nsba(ibuftoken
BufToken
p5850
(dp5851
g5
I3
sg6
S'yourself'
p5852
sg8
S'O'
sg9
S'PRP'
p5853
sg11
S'yourself'
p5854
sg13
Nsba(ibuftoken
BufToken
p5855
(dp5856
g5
I4
sg6
S','
sg8
S'O'
sg9
S','
sg11
S','
sg13
Nsba(ibuftoken
BufToken
p5857
(dp5858
g5
I5
sg6
S'"'
sg8
S'O'
sg9
S'``'
p5859
sg11
S'"'
sg13
Nsba(ibuftoken
BufToken
p5860
(dp5861
g5
I6
sg6
S'he'
p5862
sg8
S'O'
sg9
S'PRP'
p5863
sg11
S'he'
p5864
sg13
Nsba(ibuftoken
BufToken
p5865
(dp5866
g5
I7
sg6
S'said'
p5867
sg8
S'O'
sg9
S'VBD'
p5868
sg11
S'say'
p5869
sg13
Nsba(ibuftoken
BufToken
p5870
(dp5871
g5
I8
sg6
S','
sg8
S'O'
sg9
S','
sg11
S','
sg13
Nsba(ibuftoken
BufToken
p5872
(dp5873
g5
I9
sg6
S'"'
sg8
S'O'
sg9
S'``'
p5874
sg11
S'"'
sg13
Nsba(ibuftoken
BufToken
p5875
(dp5876
g5
I10
sg6
S'that'
p5877
sg8
S'O'
sg9
S'IN'
p5878
sg11
S'that'
p5879
sg13
Nsba(ibuftoken
BufToken
p5880
(dp5881
g5
I11
sg6
S'this'
p5882
sg8
S'O'
sg9
S'DT'
p5883
sg11
S'this'
p5884
sg13
Nsba(ibuftoken
BufToken
p5885
(dp5886
g5
I12
sg6
S'is'
p5887
sg8
S'O'
sg9
S'VBZ'
p5888
sg11
S'be'
p5889
sg13
Nsba(ibuftoken
BufToken
p5890
(dp5891
g5
I13
sg6
S'not'
p5892
sg8
S'O'
sg9
S'RB'
p5893
sg11
S'not'
p5894
sg13
Nsba(ibuftoken
BufToken
p5895
(dp5896
g5
I14
sg6
S'a'
sg8
S'O'
sg9
S'DT'
p5897
sg11
S'a'
sg13
Nsba(ibuftoken
BufToken
p5898
(dp5899
g5
I15
sg6
S'sheep'
p5900
sg8
S'O'
sg9
S'NN'
p5901
sg11
S'sheep'
p5902
sg13
Nsba(ibuftoken
BufToken
p5903
(dp5904
g5
I16
sg6
S'.'
sg8
S'O'
sg9
S'.'
sg11
S'.'
sg13
Nsbaa(lp5905
(ibuftoken
BufToken
p5906
(dp5907
g5
I0
sg6
S'This'
p5908
sg8
S'O'
sg9
S'DT'
p5909
sg11
S'this'
p5910
sg13
Nsba(ibuftoken
BufToken
p5911
(dp5912
g5
I1
sg6
S'is'
p5913
sg8
S'O'
sg9
S'VBZ'
p5914
sg11
S'be'
p5915
sg13
Nsba(ibuftoken
BufToken
p5916
(dp5917
g5
I2
sg6
S'a'
sg8
S'O'
sg9
S'DT'
p5918
sg11
S'a'
sg13
Nsba(ibuftoken
BufToken
p5919
(dp5920
g5
I3
sg6
S'ram'
p5921
sg8
S'O'
sg9
S'NN'
p5922
sg11
S'ram'
p5923
sg13
Nsba(ibuftoken
BufToken
p5924
(dp5925
g5
I4
sg6
S'.'
sg8
S'O'
sg9
S'.'
sg11
S'.'
sg13
Nsbaa(lp5926
(ibuftoken
BufToken
p5927
(dp5928
g5
I0
sg6
S'It'
p5929
sg8
S'O'
sg9
S'PRP'
p5930
sg11
S'it'
p5931
sg13
Nsba(ibuftoken
BufToken
p5932
(dp5933
g5
I1
sg6
S'has'
p5934
sg8
S'O'
sg9
S'VBZ'
p5935
sg11
S'have'
p5936
sg13
Nsba(ibuftoken
BufToken
p5937
(dp5938
g5
I2
sg6
S'horns'
p5939
sg8
S'O'
sg9
S'NNS'
p5940
sg11
S'horn'
p5941
sg13
Nsba(ibuftoken
BufToken
p5942
(dp5943
g5
I3
sg6
S'.'
sg8
S'O'
sg9
S'.'
sg11
S'.'
sg13
Nsba(ibuftoken
BufToken
p5944
(dp5945
g5
I4
sg6
S'"'
sg8
S'O'
sg9
S"''"
p5946
sg11
S'"'
sg13
Nsbaa(lp5947
(ibuftoken
BufToken
p5948
(dp5949
g5
I0
sg6
S'So'
p5950
sg8
S'O'
sg9
S'RB'
p5951
sg11
S'so'
p5952
sg13
Nsba(ibuftoken
BufToken
p5953
(dp5954
g5
I1
sg6
S'then'
p5955
sg8
S'O'
sg9
S'RB'
p5956
sg11
S'then'
p5957
sg13
Nsba(ibuftoken
BufToken
p5958
(dp5959
g5
I2
sg6
S'I'
sg8
S'O'
sg9
S'PRP'
p5960
sg11
S'I'
sg13
Nsba(ibuftoken
BufToken
p5961
(dp5962
g5
I3
sg6
S'did'
p5963
sg8
S'O'
sg9
S'VBD'
p5964
sg11
S'do'
p5965
sg13
Nsba(ibuftoken
BufToken
p5966
(dp5967
g5
I4
sg6
S'my'
p5968
sg8
S'O'
sg9
S'PRP$'
p5969
sg11
S'my'
p5970
sg13
Nsba(ibuftoken
BufToken
p5971
(dp5972
g5
I5
sg6
S'drawing'
p5973
sg8
S'O'
sg9
S'NN'
p5974
sg11
S'drawing'
p5975
sg13
Nsba(ibuftoken
BufToken
p5976
(dp5977
g5
I6
sg6
S'over'
p5978
sg8
S'O'
sg9
S'IN'
p5979
sg11
S'over'
p5980
sg13
Nsba(ibuftoken
BufToken
p5981
(dp5982
g5
I7
sg6
S'once'
p5983
sg8
S'DATE'
p5984
sg9
S'RB'
p5985
sg11
S'once'
p5986
sg13
Nsba(ibuftoken
BufToken
p5987
(dp5988
g5
I8
sg6
S'more'
p5989
sg8
S'O'
sg9
S'JJR'
p5990
sg11
S'more'
p5991
sg13
Nsba(ibuftoken
BufToken
p5992
(dp5993
g5
I9
sg6
S'.'
sg8
S'O'
sg9
S'.'
sg11
S'.'
sg13
Nsbaa(lp5994
(ibuftoken
BufToken
p5995
(dp5996
g5
I0
sg6
S'But'
p5997
sg8
S'O'
sg9
S'CC'
p5998
sg11
S'but'
p5999
sg13
Nsba(ibuftoken
BufToken
p6000
(dp6001
g5
I1
sg6
S'it'
p6002
sg8
S'O'
sg9
S'PRP'
p6003
sg11
S'it'
p6004
sg13
Nsba(ibuftoken
BufToken
p6005
(dp6006
g5
I2
sg6
S'was'
p6007
sg8
S'O'
sg9
S'VBD'
p6008
sg11
S'be'
p6009
sg13
Nsba(ibuftoken
BufToken
p6010
(dp6011
g5
I3
sg6
S'rejected'
p6012
sg8
S'O'
sg9
S'VBN'
p6013
sg11
S'reject'
p6014
sg13
Nsba(ibuftoken
BufToken
p6015
(dp6016
g5
I4
sg6
S'too'
p6017
sg8
S'O'
sg9
S'RB'
p6018
sg11
S'too'
p6019
sg13
Nsba(ibuftoken
BufToken
p6020
(dp6021
g5
I5
sg6
S','
sg8
S'O'
sg9
S','
sg11
S','
sg13
Nsba(ibuftoken
BufToken
p6022
(dp6023
g5
I6
sg6
S'just'
p6024
sg8
S'O'
sg9
S'RB'
p6025
sg11
S'just'
p6026
sg13
Nsba(ibuftoken
BufToken
p6027
(dp6028
g5
I7
sg6
S'like'
p6029
sg8
S'O'
sg9
S'IN'
p6030
sg11
S'like'
p6031
sg13
Nsba(ibuftoken
BufToken
p6032
(dp6033
g5
I8
sg6
S'the'
p6034
sg8
S'O'
sg9
S'DT'
p6035
sg11
S'the'
p6036
sg13
Nsba(ibuftoken
BufToken
p6037
(dp6038
g5
I9
sg6
S'others'
p6039
sg8
S'O'
sg9
S'NNS'
p6040
sg11
S'other'
p6041
sg13
Nsba(ibuftoken
BufToken
p6042
(dp6043
g5
I10
sg6
S'.'
sg8
S'O'
sg9
S'.'
sg11
S'.'
sg13
Nsbaa(lp6044
(ibuftoken
BufToken
p6045
(dp6046
g5
I0
sg6
S'"'
sg8
S'O'
sg9
S'``'
p6047
sg11
S'"'
sg13
Nsba(ibuftoken
BufToken
p6048
(dp6049
g5
I1
sg6
S'This'
p6050
sg8
S'O'
sg9
S'DT'
p6051
sg11
S'this'
p6052
sg13
Nsba(ibuftoken
BufToken
p6053
(dp6054
g5
I2
sg6
S'1'
sg8
S'NUMBER'
p6055
sg9
S'NN'
p6056
sg11
S'one'
p6057
sg13
Nsba(ibuftoken
BufToken
p6058
(dp6059
g5
I3
sg6
S'is'
p6060
sg8
S'O'
sg9
S'VBZ'
p6061
sg11
S'be'
p6062
sg13
Nsba(ibuftoken
BufToken
p6063
(dp6064
g5
I4
sg6
S'too'
p6065
sg8
S'O'
sg9
S'RB'
p6066
sg11
S'too'
p6067
sg13
Nsba(ibuftoken
BufToken
p6068
(dp6069
g5
I5
sg6
S'old'
p6070
sg8
S'O'
sg9
S'JJ'
p6071
sg11
S'old'
p6072
sg13
Nsba(ibuftoken
BufToken
p6073
(dp6074
g5
I6
sg6
S'.'
sg8
S'O'
sg9
S'.'
sg11
S'.'
sg13
Nsbaa(lp6075
(ibuftoken
BufToken
p6076
(dp6077
g5
I0
sg6
S'I'
sg8
S'O'
sg9
S'PRP'
p6078
sg11
S'I'
sg13
Nsba(ibuftoken
BufToken
p6079
(dp6080
g5
I1
sg6
S'want'
p6081
sg8
S'O'
sg9
S'VBP'
p6082
sg11
S'want'
p6083
sg13
Nsba(ibuftoken
BufToken
p6084
(dp6085
g5
I2
sg6
S'a'
sg8
S'O'
sg9
S'DT'
p6086
sg11
S'a'
sg13
Nsba(ibuftoken
BufToken
p6087
(dp6088
g5
I3
sg6
S'sheep'
p6089
sg8
S'O'
sg9
S'NN'
p6090
sg11
S'sheep'
p6091
sg13
Nsba(ibuftoken
BufToken
p6092
(dp6093
g5
I4
sg6
S'that'
p6094
sg8
S'O'
sg9
S'WDT'
p6095
sg11
S'that'
p6096
sg13
Nsba(ibuftoken
BufToken
p6097
(dp6098
g5
I5
sg6
S'will'
p6099
sg8
S'O'
sg9
S'MD'
p6100
sg11
S'will'
p6101
sg13
Nsba(ibuftoken
BufToken
p6102
(dp6103
g5
I6
sg6
S'live'
p6104
sg8
S'O'
sg9
S'VB'
p6105
sg11
S'live'
p6106
sg13
Nsba(ibuftoken
BufToken
p6107
(dp6108
g5
I7
sg6
S'a'
sg8
S'O'
sg9
S'DT'
p6109
sg11
S'a'
sg13
Nsba(ibuftoken
BufToken
p6110
(dp6111
g5
I8
sg6
S'long'
p6112
sg8
S'O'
sg9
S'JJ'
p6113
sg11
S'long'
p6114
sg13
Nsba(ibuftoken
BufToken
p6115
(dp6116
g5
I9
sg6
S'time'
p6117
sg8
S'O'
sg9
S'NN'
p6118
sg11
S'time'
p6119
sg13
Nsba(ibuftoken
BufToken
p6120
(dp6121
g5
I10
sg6
S'.'
sg8
S'O'
sg9
S'.'
sg11
S'.'
sg13
Nsba(ibuftoken
BufToken
p6122
(dp6123
g5
I11
sg6
S'"'
sg8
S'O'
sg9
S"''"
p6124
sg11
S'"'
sg13
Nsbaa(lp6125
(ibuftoken
BufToken
p6126
(dp6127
g5
I0
sg6
S'By'
p6128
sg8
S'O'
sg9
S'IN'
p6129
sg11
S'by'
p6130
sg13
Nsba(ibuftoken
BufToken
p6131
(dp6132
g5
I1
sg6
S'this'
p6133
sg8
S'O'
sg9
S'DT'
p6134
sg11
S'this'
p6135
sg13
Nsba(ibuftoken
BufToken
p6136
(dp6137
g5
I2
sg6
S'time'
p6138
sg8
S'O'
sg9
S'NN'
p6139
sg11
S'time'
p6140
sg13
Nsba(ibuftoken
BufToken
p6141
(dp6142
g5
I3
sg6
S'my'
p6143
sg8
S'O'
sg9
S'PRP$'
p6144
sg11
S'my'
p6145
sg13
Nsba(ibuftoken
BufToken
p6146
(dp6147
g5
I4
sg6
S'patience'
p6148
sg8
S'O'
sg9
S'NN'
p6149
sg11
S'patience'
p6150
sg13
Nsba(ibuftoken
BufToken
p6151
(dp6152
g5
I5
sg6
S'was'
p6153
sg8
S'O'
sg9
S'VBD'
p6154
sg11
S'be'
p6155
sg13
Nsba(ibuftoken
BufToken
p6156
(dp6157
g5
I6
sg6
S'exhausted'
p6158
sg8
S'O'
sg9
S'VBN'
p6159
sg11
S'exhaust'
p6160
sg13
Nsba(ibuftoken
BufToken
p6161
(dp6162
g5
I7
sg6
S','
sg8
S'O'
sg9
S','
sg11
S','
sg13
Nsba(ibuftoken
BufToken
p6163
(dp6164
g5
I8
sg6
S'because'
p6165
sg8
S'O'
sg9
S'IN'
p6166
sg11
S'because'
p6167
sg13
Nsba(ibuftoken
BufToken
p6168
(dp6169
g5
I9
sg6
S'I'
sg8
S'O'
sg9
S'PRP'
p6170
sg11
S'I'
sg13
Nsba(ibuftoken
BufToken
p6171
(dp6172
g5
I10
sg6
S'was'
p6173
sg8
S'O'
sg9
S'VBD'
p6174
sg11
S'be'
p6175
sg13
Nsba(ibuftoken
BufToken
p6176
(dp6177
g5
I11
sg6
S'in'
p6178
sg8
S'O'
sg9
S'IN'
p6179
sg11
S'in'
p6180
sg13
Nsba(ibuftoken
BufToken
p6181
(dp6182
g5
I12
sg6
S'a'
sg8
S'O'
sg9
S'DT'
p6183
sg11
S'a'
sg13
Nsba(ibuftoken
BufToken
p6184
(dp6185
g5
I13
sg6
S'hurry'
p6186
sg8
S'O'
sg9
S'NN'
p6187
sg11
S'hurry'
p6188
sg13
Nsba(ibuftoken
BufToken
p6189
(dp6190
g5
I14
sg6
S'to'
p6191
sg8
S'O'
sg9
S'TO'
p6192
sg11
S'to'
p6193
sg13
Nsba(ibuftoken
BufToken
p6194
(dp6195
g5
I15
sg6
S'start'
p6196
sg8
S'O'
sg9
S'VB'
p6197
sg11
S'start'
p6198
sg13
Nsba(ibuftoken
BufToken
p6199
(dp6200
g5
I16
sg6
S'taking'
p6201
sg8
S'O'
sg9
S'VBG'
p6202
sg11
S'take'
p6203
sg13
Nsba(ibuftoken
BufToken
p6204
(dp6205
g5
I17
sg6
S'my'
p6206
sg8
S'O'
sg9
S'PRP$'
p6207
sg11
S'my'
p6208
sg13
Nsba(ibuftoken
BufToken
p6209
(dp6210
g5
I18
sg6
S'engine'
p6211
sg8
S'O'
sg9
S'NN'
p6212
sg11
S'engine'
p6213
sg13
Nsba(ibuftoken
BufToken
p6214
(dp6215
g5
I19
sg6
S'apart'
p6216
sg8
S'O'
sg9
S'RB'
p6217
sg11
S'apart'
p6218
sg13
Nsba(ibuftoken
BufToken
p6219
(dp6220
g5
I20
sg6
S'.'
sg8
S'O'
sg9
S'.'
sg11
S'.'
sg13
Nsbaa(lp6221
(ibuftoken
BufToken
p6222
(dp6223
g5
I0
sg6
S'So'
p6224
sg8
S'O'
sg9
S'IN'
p6225
sg11
S'so'
p6226
sg13
Nsba(ibuftoken
BufToken
p6227
(dp6228
g5
I1
sg6
S'I'
sg8
S'O'
sg9
S'PRP'
p6229
sg11
S'I'
sg13
Nsba(ibuftoken
BufToken
p6230
(dp6231
g5
I2
sg6
S'tossed'
p6232
sg8
S'O'
sg9
S'VBD'
p6233
sg11
S'toss'
p6234
sg13
Nsba(ibuftoken
BufToken
p6235
(dp6236
g5
I3
sg6
S'off'
p6237
sg8
S'O'
sg9
S'RP'
p6238
sg11
S'off'
p6239
sg13
Nsba(ibuftoken
BufToken
p6240
(dp6241
g5
I4
sg6
S'this'
p6242
sg8
S'O'
sg9
S'DT'
p6243
sg11
S'this'
p6244
sg13
Nsba(ibuftoken
BufToken
p6245
(dp6246
g5
I5
sg6
S'drawing'
p6247
sg8
S'O'
sg9
S'NN'
p6248
sg11
S'drawing'
p6249
sg13
Nsba(ibuftoken
BufToken
p6250
(dp6251
g5
I6
sg6
S'.'
sg8
S'O'
sg9
S'.'
sg11
S'.'
sg13
Nsbaa(lp6252
(ibuftoken
BufToken
p6253
(dp6254
g5
I0
sg6
S'And'
p6255
sg8
S'O'
sg9
S'CC'
p6256
sg11
S'and'
p6257
sg13
Nsba(ibuftoken
BufToken
p6258
(dp6259
g5
I1
sg6
S'I'
sg8
S'O'
sg9
S'PRP'
p6260
sg11
S'I'
sg13
Nsba(ibuftoken
BufToken
p6261
(dp6262
g5
I2
sg6
S'threw'
p6263
sg8
S'O'
sg9
S'VBD'
p6264
sg11
S'throw'
p6265
sg13
Nsba(ibuftoken
BufToken
p6266
(dp6267
g5
I3
sg6
S'out'
p6268
sg8
S'O'
sg9
S'RP'
p6269
sg11
S'out'
p6270
sg13
Nsba(ibuftoken
BufToken
p6271
(dp6272
g5
I4
sg6
S'an'
p6273
sg8
S'O'
sg9
S'DT'
p6274
sg11
S'a'
sg13
Nsba(ibuftoken
BufToken
p6275
(dp6276
g5
I5
sg6
S'explanation'
p6277
sg8
S'O'
sg9
S'NN'
p6278
sg11
S'explanation'
p6279
sg13
Nsba(ibuftoken
BufToken
p6280
(dp6281
g5
I6
sg6
S'with'
p6282
sg8
S'O'
sg9
S'IN'
p6283
sg11
S'with'
p6284
sg13
Nsba(ibuftoken
BufToken
p6285
(dp6286
g5
I7
sg6
S'it'
p6287
sg8
S'O'
sg9
S'PRP'
p6288
sg11
S'it'
p6289
sg13
Nsba(ibuftoken
BufToken
p6290
(dp6291
g5
I8
sg6
S'.'
sg8
S'O'
sg9
S'.'
sg11
S'.'
sg13
Nsbaa(lp6292
(ibuftoken
BufToken
p6293
(dp6294
g5
I0
sg6
S'"'
sg8
S'O'
sg9
S'``'
p6295
sg11
S'"'
sg13
Nsba(ibuftoken
BufToken
p6296
(dp6297
g5
I1
sg6
S'This'
p6298
sg8
S'O'
sg9
S'DT'
p6299
sg11
S'this'
p6300
sg13
Nsba(ibuftoken
BufToken
p6301
(dp6302
g5
I2
sg6
S'is'
p6303
sg8
S'O'
sg9
S'VBZ'
p6304
sg11
S'be'
p6305
sg13
Nsba(ibuftoken
BufToken
p6306
(dp6307
g5
I3
sg6
S'only'
p6308
sg8
S'O'
sg9
S'RB'
p6309
sg11
S'only'
p6310
sg13
Nsba(ibuftoken
BufToken
p6311
(dp6312
g5
I4
sg6
S'his'
p6313
sg8
S'O'
sg9
S'PRP$'
p6314
sg11
S'he'
p6315
sg13
Nsba(ibuftoken
BufToken
p6316
(dp6317
g5
I5
sg6
S'box'
p6318
sg8
S'O'
sg9
S'NN'
p6319
sg11
S'box'
p6320
sg13
Nsba(ibuftoken
BufToken
p6321
(dp6322
g5
I6
sg6
S'.'
sg8
S'O'
sg9
S'.'
sg11
S'.'
sg13
Nsbaa(lp6323
(ibuftoken
BufToken
p6324
(dp6325
g5
I0
sg6
S'The'
p6326
sg8
S'O'
sg9
S'DT'
p6327
sg11
S'the'
p6328
sg13
Nsba(ibuftoken
BufToken
p6329
(dp6330
g5
I1
sg6
S'sheep'
p6331
sg8
S'O'
sg9
S'NN'
p6332
sg11
S'sheep'
p6333
sg13
Nsba(ibuftoken
BufToken
p6334
(dp6335
g5
I2
sg6
S'you'
p6336
sg8
S'O'
sg9
S'PRP'
p6337
sg11
S'you'
p6338
sg13
Nsba(ibuftoken
BufToken
p6339
(dp6340
g5
I3
sg6
S'asked'
p6341
sg8
S'O'
sg9
S'VBD'
p6342
sg11
S'ask'
p6343
sg13
Nsba(ibuftoken
BufToken
p6344
(dp6345
g5
I4
sg6
S'for'
p6346
sg8
S'O'
sg9
S'IN'
p6347
sg11
S'for'
p6348
sg13
Nsba(ibuftoken
BufToken
p6349
(dp6350
g5
I5
sg6
S'is'
p6351
sg8
S'O'
sg9
S'VBZ'
p6352
sg11
S'be'
p6353
sg13
Nsba(ibuftoken
BufToken
p6354
(dp6355
g5
I6
sg6
S'inside'
p6356
sg8
S'O'
sg9
S'RB'
p6357
sg11
S'inside'
p6358
sg13
Nsba(ibuftoken
BufToken
p6359
(dp6360
g5
I7
sg6
S'.'
sg8
S'O'
sg9
S'.'
sg11
S'.'
sg13
Nsba(ibuftoken
BufToken
p6361
(dp6362
g5
I8
sg6
S'"'
sg8
S'O'
sg9
S"''"
p6363
sg11
S'"'
sg13
Nsbaa(lp6364
(ibuftoken
BufToken
p6365
(dp6366
g5
I0
sg6
S'I'
sg8
S'O'
sg9
S'PRP'
p6367
sg11
S'I'
sg13
Nsba(ibuftoken
BufToken
p6368
(dp6369
g5
I1
sg6
S'was'
p6370
sg8
S'O'
sg9
S'VBD'
p6371
sg11
S'be'
p6372
sg13
Nsba(ibuftoken
BufToken
p6373
(dp6374
g5
I2
sg6
S'very'
p6375
sg8
S'O'
sg9
S'RB'
p6376
sg11
S'very'
p6377
sg13
Nsba(ibuftoken
BufToken
p6378
(dp6379
g5
I3
sg6
S'surprised'
p6380
sg8
S'O'
sg9
S'JJ'
p6381
sg11
S'surprised'
p6382
sg13
Nsba(ibuftoken
BufToken
p6383
(dp6384
g5
I4
sg6
S'to'
p6385
sg8
S'O'
sg9
S'TO'
p6386
sg11
S'to'
p6387
sg13
Nsba(ibuftoken
BufToken
p6388
(dp6389
g5
I5
sg6
S'see'
p6390
sg8
S'O'
sg9
S'VB'
p6391
sg11
S'see'
p6392
sg13
Nsba(ibuftoken
BufToken
p6393
(dp6394
g5
I6
sg6
S'a'
sg8
S'O'
sg9
S'DT'
p6395
sg11
S'a'
sg13
Nsba(ibuftoken
BufToken
p6396
(dp6397
g5
I7
sg6
S'light'
p6398
sg8
S'O'
sg9
S'JJ'
p6399
sg11
S'light'
p6400
sg13
Nsba(ibuftoken
BufToken
p6401
(dp6402
g5
I8
sg6
S'break'
p6403
sg8
S'O'
sg9
S'NN'
p6404
sg11
S'break'
p6405
sg13
Nsba(ibuftoken
BufToken
p6406
(dp6407
g5
I9
sg6
S'over'
p6408
sg8
S'O'
sg9
S'IN'
p6409
sg11
S'over'
p6410
sg13
Nsba(ibuftoken
BufToken
p6411
(dp6412
g5
I10
sg6
S'the'
p6413
sg8
S'O'
sg9
S'DT'
p6414
sg11
S'the'
p6415
sg13
Nsba(ibuftoken
BufToken
p6416
(dp6417
g5
I11
sg6
S'face'
p6418
sg8
S'O'
sg9
S'NN'
p6419
sg11
S'face'
p6420
sg13
Nsba(ibuftoken
BufToken
p6421
(dp6422
g5
I12
sg6
S'of'
p6423
sg8
S'O'
sg9
S'IN'
p6424
sg11
S'of'
p6425
sg13
Nsba(ibuftoken
BufToken
p6426
(dp6427
g5
I13
sg6
S'my'
p6428
sg8
S'O'
sg9
S'PRP$'
p6429
sg11
S'my'
p6430
sg13
Nsba(ibuftoken
BufToken
p6431
(dp6432
g5
I14
sg6
S'young'
p6433
sg8
S'O'
sg9
S'JJ'
p6434
sg11
S'young'
p6435
sg13
Nsba(ibuftoken
BufToken
p6436
(dp6437
g5
I15
sg6
S'judge'
p6438
sg8
S'O'
sg9
S'NN'
p6439
sg11
S'judge'
p6440
sg13
Nsba(ibuftoken
BufToken
p6441
(dp6442
g5
I16
sg6
S':'
sg8
S'O'
sg9
S':'
sg11
S':'
sg13
Nsba(ibuftoken
BufToken
p6443
(dp6444
g5
I17
sg6
S'"'
sg8
S'O'
sg9
S'``'
p6445
sg11
S'"'
sg13
Nsba(ibuftoken
BufToken
p6446
(dp6447
g5
I18
sg6
S'That'
p6448
sg8
S'O'
sg9
S'WDT'
p6449
sg11
S'that'
p6450
sg13
Nsba(ibuftoken
BufToken
p6451
(dp6452
g5
I19
sg6
S'is'
p6453
sg8
S'O'
sg9
S'VBZ'
p6454
sg11
S'be'
p6455
sg13
Nsba(ibuftoken
BufToken
p6456
(dp6457
g5
I20
sg6
S'exactly'
p6458
sg8
S'O'
sg9
S'RB'
p6459
sg11
S'exactly'
p6460
sg13
Nsba(ibuftoken
BufToken
p6461
(dp6462
g5
I21
sg6
S'the'
p6463
sg8
S'O'
sg9
S'DT'
p6464
sg11
S'the'
p6465
sg13
Nsba(ibuftoken
BufToken
p6466
(dp6467
g5
I22
sg6
S'way'
p6468
sg8
S'O'
sg9
S'NN'
p6469
sg11
S'way'
p6470
sg13
Nsba(ibuftoken
BufToken
p6471
(dp6472
g5
I23
sg6
S'I'
sg8
S'O'
sg9
S'PRP'
p6473
sg11
S'I'
sg13
Nsba(ibuftoken
BufToken
p6474
(dp6475
g5
I24
sg6
S'wanted'
p6476
sg8
S'O'
sg9
S'VBD'
p6477
sg11
S'want'
p6478
sg13
Nsba(ibuftoken
BufToken
p6479
(dp6480
g5
I25
sg6
S'it'
p6481
sg8
S'O'
sg9
S'PRP'
p6482
sg11
S'it'
p6483
sg13
Nsba(ibuftoken
BufToken
p6484
(dp6485
g5
I26
sg6
S'!'
sg8
S'O'
sg9
S'.'
sg11
S'!'
sg13
Nsbaa(lp6486
(ibuftoken
BufToken
p6487
(dp6488
g5
I0
sg6
S'Do'
p6489
sg8
S'O'
sg9
S'VBP'
p6490
sg11
S'do'
p6491
sg13
Nsba(ibuftoken
BufToken
p6492
(dp6493
g5
I1
sg6
S'you'
p6494
sg8
S'O'
sg9
S'PRP'
p6495
sg11
S'you'
p6496
sg13
Nsba(ibuftoken
BufToken
p6497
(dp6498
g5
I2
sg6
S'think'
p6499
sg8
S'O'
sg9
S'VB'
p6500
sg11
S'think'
p6501
sg13
Nsba(ibuftoken
BufToken
p6502
(dp6503
g5
I3
sg6
S'that'
p6504
sg8
S'O'
sg9
S'IN'
p6505
sg11
S'that'
p6506
sg13
Nsba(ibuftoken
BufToken
p6507
(dp6508
g5
I4
sg6
S'this'
p6509
sg8
S'O'
sg9
S'DT'
p6510
sg11
S'this'
p6511
sg13
Nsba(ibuftoken
BufToken
p6512
(dp6513
g5
I5
sg6
S'sheep'
p6514
sg8
S'O'
sg9
S'NN'
p6515
sg11
S'sheep'
p6516
sg13
Nsba(ibuftoken
BufToken
p6517
(dp6518
g5
I6
sg6
S'will'
p6519
sg8
S'O'
sg9
S'MD'
p6520
sg11
S'will'
p6521
sg13
Nsba(ibuftoken
BufToken
p6522
(dp6523
g5
I7
sg6
S'have'
p6524
sg8
S'O'
sg9
S'VB'
p6525
sg11
S'have'
p6526
sg13
Nsba(ibuftoken
BufToken
p6527
(dp6528
g5
I8
sg6
S'to'
p6529
sg8
S'O'
sg9
S'TO'
p6530
sg11
S'to'
p6531
sg13
Nsba(ibuftoken
BufToken
p6532
(dp6533
g5
I9
sg6
S'have'
p6534
sg8
S'O'
sg9
S'VB'
p6535
sg11
S'have'
p6536
sg13
Nsba(ibuftoken
BufToken
p6537
(dp6538
g5
I10
sg6
S'a'
sg8
S'O'
sg9
S'DT'
p6539
sg11
S'a'
sg13
Nsba(ibuftoken
BufToken
p6540
(dp6541
g5
I11
sg6
S'great'
p6542
sg8
S'O'
sg9
S'JJ'
p6543
sg11
S'great'
p6544
sg13
Nsba(ibuftoken
BufToken
p6545
(dp6546
g5
I12
sg6
S'deal'
p6547
sg8
S'O'
sg9
S'NN'
p6548
sg11
S'deal'
p6549
sg13
Nsba(ibuftoken
BufToken
p6550
(dp6551
g5
I13
sg6
S'of'
p6552
sg8
S'O'
sg9
S'IN'
p6553
sg11
S'of'
p6554
sg13
Nsba(ibuftoken
BufToken
p6555
(dp6556
g5
I14
sg6
S'grass'
p6557
sg8
S'O'
sg9
S'NN'
p6558
sg11
S'grass'
p6559
sg13
Nsba(ibuftoken
BufToken
p6560
(dp6561
g5
I15
sg6
S'?'
sg8
S'O'
sg9
S'.'
sg11
S'?'
sg13
Nsba(ibuftoken
BufToken
p6562
(dp6563
g5
I16
sg6
S'"'
sg8
S'O'
sg9
S"''"
p6564
sg11
S'"'
sg13
Nsbaa(lp6565
(ibuftoken
BufToken
p6566
(dp6567
g5
I0
sg6
S'"'
sg8
S'O'
sg9
S'``'
p6568
sg11
S'"'
sg13
Nsba(ibuftoken
BufToken
p6569
(dp6570
g5
I1
sg6
S'Why'
p6571
sg8
S'O'
sg9
S'WRB'
p6572
sg11
S'why'
p6573
sg13
Nsba(ibuftoken
BufToken
p6574
(dp6575
g5
I2
sg6
S'?'
sg8
S'O'
sg9
S'.'
sg11
S'?'
sg13
Nsba(ibuftoken
BufToken
p6576
(dp6577
g5
I3
sg6
S'"'
sg8
S'O'
sg9
S"''"
p6578
sg11
S'"'
sg13
Nsbaa(lp6579
(ibuftoken
BufToken
p6580
(dp6581
g5
I0
sg6
S'"'
sg8
S'O'
sg9
S'``'
p6582
sg11
S'"'
sg13
Nsba(ibuftoken
BufToken
p6583
(dp6584
g5
I1
sg6
S'Because'
p6585
sg8
S'O'
sg9
S'IN'
p6586
sg11
S'because'
p6587
sg13
Nsba(ibuftoken
BufToken
p6588
(dp6589
g5
I2
sg6
S'where'
p6590
sg8
S'O'
sg9
S'WRB'
p6591
sg11
S'where'
p6592
sg13
Nsba(ibuftoken
BufToken
p6593
(dp6594
g5
I3
sg6
S'I'
sg8
S'O'
sg9
S'PRP'
p6595
sg11
S'I'
sg13
Nsba(ibuftoken
BufToken
p6596
(dp6597
g5
I4
sg6
S'live'
p6598
sg8
S'O'
sg9
S'VBP'
p6599
sg11
S'live'
p6600
sg13
Nsba(ibuftoken
BufToken
p6601
(dp6602
g5
I5
sg6
S'everything'
p6603
sg8
S'O'
sg9
S'NN'
p6604
sg11
S'everything'
p6605
sg13
Nsba(ibuftoken
BufToken
p6606
(dp6607
g5
I6
sg6
S'is'
p6608
sg8
S'O'
sg9
S'VBZ'
p6609
sg11
S'be'
p6610
sg13
Nsba(ibuftoken
BufToken
p6611
(dp6612
g5
I7
sg6
S'very'
p6613
sg8
S'O'
sg9
S'RB'
p6614
sg11
S'very'
p6615
sg13
Nsba(ibuftoken
BufToken
p6616
(dp6617
g5
I8
sg6
S'small'
p6618
sg8
S'O'
sg9
S'JJ'
p6619
sg11
S'small'
p6620
sg13
Nsba(ibuftoken
BufToken
p6621
(dp6622
g5
I9
sg6
S'...'
p6623
sg8
S'O'
sg9
S':'
sg11
S'...'
p6624
sg13
Nsba(ibuftoken
BufToken
p6625
(dp6626
g5
I10
sg6
S'"'
sg8
S'O'
sg9
S"''"
p6627
sg11
S'"'
sg13
Nsbaa(lp6628
(ibuftoken
BufToken
p6629
(dp6630
g5
I0
sg6
S'"'
sg8
S'O'
sg9
S'``'
p6631
sg11
S'"'
sg13
Nsba(ibuftoken
BufToken
p6632
(dp6633
g5
I1
sg6
S'There'
p6634
sg8
S'O'
sg9
S'EX'
p6635
sg11
S'there'
p6636
sg13
Nsba(ibuftoken
BufToken
p6637
(dp6638
g5
I2
sg6
S'will'
p6639
sg8
S'O'
sg9
S'MD'
p6640
sg11
S'will'
p6641
sg13
Nsba(ibuftoken
BufToken
p6642
(dp6643
g5
I3
sg6
S'surely'
p6644
sg8
S'O'
sg9
S'RB'
p6645
sg11
S'surely'
p6646
sg13
Nsba(ibuftoken
BufToken
p6647
(dp6648
g5
I4
sg6
S'be'
p6649
sg8
S'O'
sg9
S'VB'
p6650
sg11
S'be'
p6651
sg13
Nsba(ibuftoken
BufToken
p6652
(dp6653
g5
I5
sg6
S'enough'
p6654
sg8
S'O'
sg9
S'JJ'
p6655
sg11
S'enough'
p6656
sg13
Nsba(ibuftoken
BufToken
p6657
(dp6658
g5
I6
sg6
S'grass'
p6659
sg8
S'O'
sg9
S'NN'
p6660
sg11
S'grass'
p6661
sg13
Nsba(ibuftoken
BufToken
p6662
(dp6663
g5
I7
sg6
S'for'
p6664
sg8
S'O'
sg9
S'IN'
p6665
sg11
S'for'
p6666
sg13
Nsba(ibuftoken
BufToken
p6667
(dp6668
g5
I8
sg6
S'him'
p6669
sg8
S'O'
sg9
S'PRP'
p6670
sg11
S'he'
p6671
sg13
Nsba(ibuftoken
BufToken
p6672
(dp6673
g5
I9
sg6
S','
sg8
S'O'
sg9
S','
sg11
S','
sg13
Nsba(ibuftoken
BufToken
p6674
(dp6675
g5
I10
sg6
S'"'
sg8
S'O'
sg9
S"''"
p6676
sg11
S'"'
sg13
Nsbaa(lp6677
(ibuftoken
BufToken
p6678
(dp6679
g5
I0
sg6
S'I'
sg8
S'O'
sg9
S'PRP'
p6680
sg11
S'I'
sg13
Nsba(ibuftoken
BufToken
p6681
(dp6682
g5
I1
sg6
S'said'
p6683
sg8
S'O'
sg9
S'VBD'
p6684
sg11
S'say'
p6685
sg13
Nsba(ibuftoken
BufToken
p6686
(dp6687
g5
I2
sg6
S'.'
sg8
S'O'
sg9
S'.'
sg11
S'.'
sg13
Nsbaa(lp6688
(ibuftoken
BufToken
p6689
(dp6690
g5
I0
sg6
S'"'
sg8
S'O'
sg9
S'``'
p6691
sg11
S'"'
sg13
Nsba(ibuftoken
BufToken
p6692
(dp6693
g5
I1
sg6
S'It'
p6694
sg8
S'O'
sg9
S'PRP'
p6695
sg11
S'it'
p6696
sg13
Nsba(ibuftoken
BufToken
p6697
(dp6698
g5
I2
sg6
S'is'
p6699
sg8
S'O'
sg9
S'VBZ'
p6700
sg11
S'be'
p6701
sg13
Nsba(ibuftoken
BufToken
p6702
(dp6703
g5
I3
sg6
S'a'
sg8
S'O'
sg9
S'DT'
p6704
sg11
S'a'
sg13
Nsba(ibuftoken
BufToken
p6705
(dp6706
g5
I4
sg6
S'very'
p6707
sg8
S'O'
sg9
S'RB'
p6708
sg11
S'very'
p6709
sg13
Nsba(ibuftoken
BufToken
p6710
(dp6711
g5
I5
sg6
S'small'
p6712
sg8
S'O'
sg9
S'JJ'
p6713
sg11
S'small'
p6714
sg13
Nsba(ibuftoken
BufToken
p6715
(dp6716
g5
I6
sg6
S'sheep'
p6717
sg8
S'O'
sg9
S'NN'
p6718
sg11
S'sheep'
p6719
sg13
Nsba(ibuftoken
BufToken
p6720
(dp6721
g5
I7
sg6
S'that'
p6722
sg8
S'O'
sg9
S'IN'
p6723
sg11
S'that'
p6724
sg13
Nsba(ibuftoken
BufToken
p6725
(dp6726
g5
I8
sg6
S'I'
sg8
S'O'
sg9
S'PRP'
p6727
sg11
S'I'
sg13
Nsba(ibuftoken
BufToken
p6728
(dp6729
g5
I9
sg6
S'have'
p6730
sg8
S'O'
sg9
S'VBP'
p6731
sg11
S'have'
p6732
sg13
Nsba(ibuftoken
BufToken
p6733
(dp6734
g5
I10
sg6
S'given'
p6735
sg8
S'O'
sg9
S'VBN'
p6736
sg11
S'give'
p6737
sg13
Nsba(ibuftoken
BufToken
p6738
(dp6739
g5
I11
sg6
S'you'
p6740
sg8
S'O'
sg9
S'PRP'
p6741
sg11
S'you'
p6742
sg13
Nsba(ibuftoken
BufToken
p6743
(dp6744
g5
I12
sg6
S'.'
sg8
S'O'
sg9
S'.'
sg11
S'.'
sg13
Nsba(ibuftoken
BufToken
p6745
(dp6746
g5
I13
sg6
S'"'
sg8
S'O'
sg9
S"''"
p6747
sg11
S'"'
sg13
Nsbaa(lp6748
(ibuftoken
BufToken
p6749
(dp6750
g5
I0
sg6
S'He'
p6751
sg8
S'O'
sg9
S'PRP'
p6752
sg11
S'he'
p6753
sg13
Nsba(ibuftoken
BufToken
p6754
(dp6755
g5
I1
sg6
S'bent'
p6756
sg8
S'O'
sg9
S'JJ'
p6757
sg11
S'bent'
p6758
sg13
Nsba(ibuftoken
BufToken
p6759
(dp6760
g5
I2
sg6
S'his'
p6761
sg8
S'O'
sg9
S'PRP$'
p6762
sg11
S'he'
p6763
sg13
Nsba(ibuftoken
BufToken
p6764
(dp6765
g5
I3
sg6
S'head'
p6766
sg8
S'O'
sg9
S'NN'
p6767
sg11
S'head'
p6768
sg13
Nsba(ibuftoken
BufToken
p6769
(dp6770
g5
I4
sg6
S'over'
p6771
sg8
S'O'
sg9
S'IN'
p6772
sg11
S'over'
p6773
sg13
Nsba(ibuftoken
BufToken
p6774
(dp6775
g5
I5
sg6
S'the'
p6776
sg8
S'O'
sg9
S'DT'
p6777
sg11
S'the'
p6778
sg13
Nsba(ibuftoken
BufToken
p6779
(dp6780
g5
I6
sg6
S'drawing'
p6781
sg8
S'O'
sg9
S'NN'
p6782
sg11
S'drawing'
p6783
sg13
Nsba(ibuftoken
BufToken
p6784
(dp6785
g5
I7
sg6
S':'
sg8
S'O'
sg9
S':'
sg11
S':'
sg13
Nsba(ibuftoken
BufToken
p6786
(dp6787
g5
I8
sg6
S'"'
sg8
S'O'
sg9
S'``'
p6788
sg11
S'"'
sg13
Nsba(ibuftoken
BufToken
p6789
(dp6790
g5
I9
sg6
S'Not'
p6791
sg8
S'O'
sg9
S'RB'
p6792
sg11
S'not'
p6793
sg13
Nsba(ibuftoken
BufToken
p6794
(dp6795
g5
I10
sg6
S'so'
p6796
sg8
S'O'
sg9
S'RB'
p6797
sg11
S'so'
p6798
sg13
Nsba(ibuftoken
BufToken
p6799
(dp6800
g5
I11
sg6
S'small'
p6801
sg8
S'O'
sg9
S'JJ'
p6802
sg11
S'small'
p6803
sg13
Nsba(ibuftoken
BufToken
p6804
(dp6805
g5
I12
sg6
S'that'
p6806
sg8
S'O'
sg9
S'DT'
p6807
sg11
S'that'
p6808
sg13
Nsba(ibuftoken
BufToken
p6809
(dp6810
g5
I13
sg6
S'--'
p6811
sg8
S'O'
sg9
S':'
sg11
S'--'
p6812
sg13
Nsba(ibuftoken
BufToken
p6813
(dp6814
g5
I14
sg6
S'Look'
p6815
sg8
S'O'
sg9
S'VB'
p6816
sg11
S'look'
p6817
sg13
Nsba(ibuftoken
BufToken
p6818
(dp6819
g5
I15
sg6
S'!'
sg8
S'O'
sg9
S'.'
sg11
S'!'
sg13
Nsbaa.